; ModuleID = '/home/npopov/repos/llvm-test-suite/CTMark/7zip/CPP/7zip/Archive/7z/7zHandler.cpp'
source_filename = "/home/npopov/repos/llvm-test-suite/CTMark/7zip/CPP/7zip/Archive/7z/7zHandler.cpp"
target datalayout = "e-m:e-p270:32:32-p271:32:32-p272:64:64-i64:64-f80:128-n8:16:32:64-S128"
target triple = "x86_64-unknown-linux-gnu"

%struct.tagSTATPROPSTG = type { ptr, i32, i16 }
%struct.GUID = type { i32, i16, i16, [8 x i8] }
%"class.NArchive::N7z::CHandler" = type { %struct.IInArchive, %"class.NArchive::COutHandler.base", %struct.ISetProperties, %struct.IOutArchive, %class.CMyUnknownImp, %class.CMyComPtr, %"struct.NArchive::N7z::CArchiveDatabaseEx", i8, %class.CRecordVector.5, %class.CRecordVector.0 }
%struct.IInArchive = type { %struct.IUnknown }
%struct.IUnknown = type { ptr }
%"class.NArchive::COutHandler.base" = type <{ i32, i32, %class.CObjectVector, i8, [7 x i8], i64, i64, i8, i8, i8, i8, i8, i8, i8, i8, i8, [3 x i8], i32, i8, [3 x i8], i32, i32, i32, i32 }>
%class.CObjectVector = type { %class.CRecordVector }
%class.CRecordVector = type { %class.CBaseRecordVector }
%class.CBaseRecordVector = type { ptr, i32, i32, ptr, i64 }
%struct.ISetProperties = type { %struct.IUnknown }
%struct.IOutArchive = type { %struct.IUnknown }
%class.CMyUnknownImp = type { i32 }
%class.CMyComPtr = type { ptr }
%"struct.NArchive::N7z::CArchiveDatabaseEx" = type { %"struct.NArchive::N7z::CArchiveDatabase", %"struct.NArchive::N7z::CInArchiveInfo", %class.CRecordVector.0, %class.CRecordVector.2, %class.CRecordVector.2, %class.CRecordVector.2, i64, i64 }
%"struct.NArchive::N7z::CArchiveDatabase" = type { %class.CRecordVector.0, %class.CRecordVector.1, %class.CRecordVector.2, %class.CObjectVector.3, %class.CRecordVector.2, %class.CObjectVector.4, %"struct.NArchive::N7z::CUInt64DefVector", %"struct.NArchive::N7z::CUInt64DefVector", %"struct.NArchive::N7z::CUInt64DefVector", %"struct.NArchive::N7z::CUInt64DefVector", %class.CRecordVector.1 }
%class.CObjectVector.3 = type { %class.CRecordVector }
%class.CObjectVector.4 = type { %class.CRecordVector }
%"struct.NArchive::N7z::CUInt64DefVector" = type { %class.CRecordVector.0, %class.CRecordVector.1 }
%class.CRecordVector.1 = type { %class.CBaseRecordVector }
%"struct.NArchive::N7z::CInArchiveInfo" = type { %"struct.NArchive::N7z::CArchiveVersion", i64, i64, i64, i64, %class.CRecordVector.0 }
%"struct.NArchive::N7z::CArchiveVersion" = type { i8, i8 }
%class.CRecordVector.2 = type { %class.CBaseRecordVector }
%class.CRecordVector.5 = type { %class.CBaseRecordVector }
%class.CRecordVector.0 = type { %class.CBaseRecordVector }
%"class.NArchive::COutHandler" = type <{ i32, i32, %class.CObjectVector, i8, [7 x i8], i64, i64, i8, i8, i8, i8, i8, i8, i8, i8, i8, [3 x i8], i32, i8, [3 x i8], i32, i32, i32, i32, [4 x i8] }>
%"class.NWindows::NCOM::CPropVariant" = type { %struct.tagPROPVARIANT }
%struct.tagPROPVARIANT = type { i16, i16, i16, i16, %union.anon }
%union.anon = type { %struct.LARGE_INTEGER }
%struct.LARGE_INTEGER = type { i64 }
%class.CStringBase = type { ptr, i32, i32 }
%struct._FILETIME = type { i32, i32 }
%"struct.NArchive::N7z::CFileItem" = type <{ i64, i32, i32, %class.CStringBase, i8, i8, i8, i8, [4 x i8] }>
%"struct.NArchive::N7z::CFolder" = type <{ %class.CObjectVector.6, %class.CRecordVector.7, %class.CRecordVector.2, %class.CRecordVector.0, i32, i8, [3 x i8] }>
%class.CObjectVector.6 = type { %class.CRecordVector }
%class.CRecordVector.7 = type { %class.CBaseRecordVector }
%"struct.NArchive::N7z::CCoderInfo" = type { i64, %class.CBuffer, i32, i32 }
%class.CBuffer = type { ptr, i64, ptr }
%class.CMyComPtr.9 = type { ptr }
%"class.NArchive::N7z::CInArchive" = type { %class.CMyComPtr, %class.CObjectVector.10, ptr, i64, [32 x i8], i64 }
%class.CObjectVector.10 = type { %class.CRecordVector }
%"struct.NArchive::COneMethodInfo" = type { %class.CObjectVector.11, %class.CStringBase }
%class.CObjectVector.11 = type { %class.CRecordVector }
%struct.CProp = type { i32, %"class.NWindows::NCOM::CPropVariant" }

$_ZN8NArchive3N7z18CArchiveDatabaseExD2Ev = comdat any

$_ZN8NArchive11COutHandlerD2Ev = comdat any

$_ZN11CStringBaseIwEpLEw = comdat any

$_ZN11CStringBaseIwEpLERKS0_ = comdat any

$_ZN11CStringBaseIwEpLEPKw = comdat any

$_ZN8NArchive3N7z10CInArchiveD2Ev = comdat any

$__clang_call_terminate = comdat any

$_ZN8NArchive3N7z8CHandler14QueryInterfaceERK4GUIDPPv = comdat any

$_ZN8NArchive3N7z8CHandler6AddRefEv = comdat any

$_ZN8NArchive3N7z8CHandler7ReleaseEv = comdat any

$_ZN8NArchive3N7z8CHandlerD2Ev = comdat any

$_ZN8NArchive3N7z8CHandlerD0Ev = comdat any

$_ZThn112_N8NArchive3N7z8CHandler14QueryInterfaceERK4GUIDPPv = comdat any

$_ZThn112_N8NArchive3N7z8CHandler6AddRefEv = comdat any

$_ZThn112_N8NArchive3N7z8CHandler7ReleaseEv = comdat any

$_ZThn112_N8NArchive3N7z8CHandlerD1Ev = comdat any

$_ZThn112_N8NArchive3N7z8CHandlerD0Ev = comdat any

$_ZThn120_N8NArchive3N7z8CHandler14QueryInterfaceERK4GUIDPPv = comdat any

$_ZThn120_N8NArchive3N7z8CHandler6AddRefEv = comdat any

$_ZThn120_N8NArchive3N7z8CHandler7ReleaseEv = comdat any

$_ZThn120_N8NArchive3N7z8CHandlerD1Ev = comdat any

$_ZThn120_N8NArchive3N7z8CHandlerD0Ev = comdat any

$_ZN13CObjectVectorIN8NArchive14COneMethodInfoEED2Ev = comdat any

$_ZN13CObjectVectorIN8NArchive14COneMethodInfoEED0Ev = comdat any

$_ZN13CObjectVectorIN8NArchive14COneMethodInfoEE6DeleteEii = comdat any

$_ZN13CObjectVectorI5CPropED2Ev = comdat any

$_ZN13CObjectVectorI5CPropED0Ev = comdat any

$_ZN13CObjectVectorI5CPropE6DeleteEii = comdat any

$_ZN8NArchive3N7z16CArchiveDatabaseD2Ev = comdat any

$_ZN13CObjectVectorIN8NArchive3N7z9CFileItemEED2Ev = comdat any

$_ZN13CObjectVectorIN8NArchive3N7z7CFolderEED2Ev = comdat any

$_ZN13CRecordVectorIbED0Ev = comdat any

$_ZN13CObjectVectorIN8NArchive3N7z7CFolderEED0Ev = comdat any

$_ZN13CObjectVectorIN8NArchive3N7z7CFolderEE6DeleteEii = comdat any

$_ZN13CObjectVectorIN8NArchive3N7z10CCoderInfoEED2Ev = comdat any

$_ZN13CObjectVectorIN8NArchive3N7z10CCoderInfoEED0Ev = comdat any

$_ZN13CObjectVectorIN8NArchive3N7z10CCoderInfoEE6DeleteEii = comdat any

$_ZN7CBufferIhED2Ev = comdat any

$_ZN7CBufferIhED0Ev = comdat any

$_ZN13CObjectVectorIN8NArchive3N7z9CFileItemEED0Ev = comdat any

$_ZN13CObjectVectorIN8NArchive3N7z9CFileItemEE6DeleteEii = comdat any

$_ZN13CRecordVectorIjED0Ev = comdat any

$_ZN13CObjectVectorIN8NArchive3N7z8CInByte2EED2Ev = comdat any

$_ZN13CObjectVectorIN8NArchive3N7z8CInByte2EED0Ev = comdat any

$_ZN13CObjectVectorIN8NArchive3N7z8CInByte2EE6DeleteEii = comdat any

$_ZN8NArchive3N7z16CArchiveDatabase5ClearEv = comdat any

$_ZN13CRecordVectorIN8NArchive3N7z5CBindEED0Ev = comdat any

$_ZN13CRecordVectorIyED0Ev = comdat any

$_ZTSN8NArchive11COutHandlerE = comdat any

$_ZTIN8NArchive11COutHandlerE = comdat any

$_ZTS10IInArchive = comdat any

$_ZTS8IUnknown = comdat any

$_ZTI8IUnknown = comdat any

$_ZTI10IInArchive = comdat any

$_ZTS14ISetProperties = comdat any

$_ZTI14ISetProperties = comdat any

$_ZTS11IOutArchive = comdat any

$_ZTI11IOutArchive = comdat any

$_ZTS13CMyUnknownImp = comdat any

$_ZTI13CMyUnknownImp = comdat any

$_ZTV13CObjectVectorIN8NArchive14COneMethodInfoEE = comdat any

$_ZTS13CObjectVectorIN8NArchive14COneMethodInfoEE = comdat any

$_ZTS13CRecordVectorIPvE = comdat any

$_ZTI13CRecordVectorIPvE = comdat any

$_ZTI13CObjectVectorIN8NArchive14COneMethodInfoEE = comdat any

$_ZTV13CObjectVectorI5CPropE = comdat any

$_ZTS13CObjectVectorI5CPropE = comdat any

$_ZTI13CObjectVectorI5CPropE = comdat any

$_ZTV13CRecordVectorIbE = comdat any

$_ZTS13CRecordVectorIbE = comdat any

$_ZTI13CRecordVectorIbE = comdat any

$_ZTV13CObjectVectorIN8NArchive3N7z7CFolderEE = comdat any

$_ZTS13CObjectVectorIN8NArchive3N7z7CFolderEE = comdat any

$_ZTI13CObjectVectorIN8NArchive3N7z7CFolderEE = comdat any

$_ZTV13CObjectVectorIN8NArchive3N7z10CCoderInfoEE = comdat any

$_ZTS13CObjectVectorIN8NArchive3N7z10CCoderInfoEE = comdat any

$_ZTI13CObjectVectorIN8NArchive3N7z10CCoderInfoEE = comdat any

$_ZTV7CBufferIhE = comdat any

$_ZTS7CBufferIhE = comdat any

$_ZTI7CBufferIhE = comdat any

$_ZTV13CObjectVectorIN8NArchive3N7z9CFileItemEE = comdat any

$_ZTS13CObjectVectorIN8NArchive3N7z9CFileItemEE = comdat any

$_ZTI13CObjectVectorIN8NArchive3N7z9CFileItemEE = comdat any

$_ZTV13CRecordVectorIjE = comdat any

$_ZTS13CRecordVectorIjE = comdat any

$_ZTI13CRecordVectorIjE = comdat any

$_ZTV13CObjectVectorIN8NArchive3N7z8CInByte2EE = comdat any

$_ZTS13CObjectVectorIN8NArchive3N7z8CInByte2EE = comdat any

$_ZTI13CObjectVectorIN8NArchive3N7z8CInByte2EE = comdat any

$_ZTV13CRecordVectorIN8NArchive3N7z5CBindEE = comdat any

$_ZTS13CRecordVectorIN8NArchive3N7z5CBindEE = comdat any

$_ZTI13CRecordVectorIN8NArchive3N7z5CBindEE = comdat any

$_ZTV13CRecordVectorIyE = comdat any

$_ZTS13CRecordVectorIyE = comdat any

$_ZTI13CRecordVectorIyE = comdat any

@_ZTVN8NArchive3N7z8CHandlerE = dso_local unnamed_addr constant { [20 x ptr], [8 x ptr], [9 x ptr] } { [20 x ptr] [ptr null, ptr @_ZTIN8NArchive3N7z8CHandlerE, ptr @_ZN8NArchive3N7z8CHandler14QueryInterfaceERK4GUIDPPv, ptr @_ZN8NArchive3N7z8CHandler6AddRefEv, ptr @_ZN8NArchive3N7z8CHandler7ReleaseEv, ptr @_ZN8NArchive3N7z8CHandlerD2Ev, ptr @_ZN8NArchive3N7z8CHandlerD0Ev, ptr @_ZN8NArchive3N7z8CHandler4OpenEP9IInStreamPKyP20IArchiveOpenCallback, ptr @_ZN8NArchive3N7z8CHandler5CloseEv, ptr @_ZN8NArchive3N7z8CHandler16GetNumberOfItemsEPj, ptr @_ZN8NArchive3N7z8CHandler11GetPropertyEjjP14tagPROPVARIANT, ptr @_ZN8NArchive3N7z8CHandler7ExtractEPKjjiP23IArchiveExtractCallback, ptr @_ZN8NArchive3N7z8CHandler18GetArchivePropertyEjP14tagPROPVARIANT, ptr @_ZN8NArchive3N7z8CHandler21GetNumberOfPropertiesEPj, ptr @_ZN8NArchive3N7z8CHandler15GetPropertyInfoEjPPwPjPt, ptr @_ZN8NArchive3N7z8CHandler28GetNumberOfArchivePropertiesEPj, ptr @_ZN8NArchive3N7z8CHandler22GetArchivePropertyInfoEjPPwPjPt, ptr @_ZN8NArchive3N7z8CHandler13SetPropertiesEPPKwPK14tagPROPVARIANTi, ptr @_ZN8NArchive3N7z8CHandler11UpdateItemsEP20ISequentialOutStreamjP22IArchiveUpdateCallback, ptr @_ZN8NArchive3N7z8CHandler15GetFileTimeTypeEPj], [8 x ptr] [ptr inttoptr (i64 -112 to ptr), ptr @_ZTIN8NArchive3N7z8CHandlerE, ptr @_ZThn112_N8NArchive3N7z8CHandler14QueryInterfaceERK4GUIDPPv, ptr @_ZThn112_N8NArchive3N7z8CHandler6AddRefEv, ptr @_ZThn112_N8NArchive3N7z8CHandler7ReleaseEv, ptr @_ZThn112_N8NArchive3N7z8CHandlerD1Ev, ptr @_ZThn112_N8NArchive3N7z8CHandlerD0Ev, ptr @_ZThn112_N8NArchive3N7z8CHandler13SetPropertiesEPPKwPK14tagPROPVARIANTi], [9 x ptr] [ptr inttoptr (i64 -120 to ptr), ptr @_ZTIN8NArchive3N7z8CHandlerE, ptr @_ZThn120_N8NArchive3N7z8CHandler14QueryInterfaceERK4GUIDPPv, ptr @_ZThn120_N8NArchive3N7z8CHandler6AddRefEv, ptr @_ZThn120_N8NArchive3N7z8CHandler7ReleaseEv, ptr @_ZThn120_N8NArchive3N7z8CHandlerD1Ev, ptr @_ZThn120_N8NArchive3N7z8CHandlerD0Ev, ptr @_ZThn120_N8NArchive3N7z8CHandler11UpdateItemsEP20ISequentialOutStreamjP22IArchiveUpdateCallback, ptr @_ZThn120_N8NArchive3N7z8CHandler15GetFileTimeTypeEPj] }, align 8
@_ZN8NArchive3N7z9kArcPropsE = dso_local local_unnamed_addr global [6 x %struct.tagSTATPROPSTG] [%struct.tagSTATPROPSTG { ptr null, i32 22, i16 8 }, %struct.tagSTATPROPSTG { ptr null, i32 13, i16 11 }, %struct.tagSTATPROPSTG { ptr null, i32 38, i16 19 }, %struct.tagSTATPROPSTG { ptr null, i32 44, i16 21 }, %struct.tagSTATPROPSTG { ptr null, i32 45, i16 21 }, %struct.tagSTATPROPSTG { ptr null, i32 36, i16 21 }], align 16
@_ZTIPKc = external constant ptr
@IID_ICryptoGetTextPassword = external global %struct.GUID, align 4
@_ZTVN10__cxxabiv121__vmi_class_type_infoE = external global [0 x ptr]
@_ZTSN8NArchive3N7z8CHandlerE = dso_local constant [25 x i8] c"N8NArchive3N7z8CHandlerE\00", align 1
@_ZTVN10__cxxabiv117__class_type_infoE = external global [0 x ptr]
@_ZTSN8NArchive11COutHandlerE = linkonce_odr dso_local constant [25 x i8] c"N8NArchive11COutHandlerE\00", comdat, align 1
@_ZTIN8NArchive11COutHandlerE = linkonce_odr dso_local constant { ptr, ptr } { ptr getelementptr inbounds (ptr, ptr @_ZTVN10__cxxabiv117__class_type_infoE, i64 2), ptr @_ZTSN8NArchive11COutHandlerE }, comdat, align 8
@_ZTVN10__cxxabiv120__si_class_type_infoE = external global [0 x ptr]
@_ZTS10IInArchive = linkonce_odr dso_local constant [13 x i8] c"10IInArchive\00", comdat, align 1
@_ZTS8IUnknown = linkonce_odr dso_local constant [10 x i8] c"8IUnknown\00", comdat, align 1
@_ZTI8IUnknown = linkonce_odr dso_local constant { ptr, ptr } { ptr getelementptr inbounds (ptr, ptr @_ZTVN10__cxxabiv117__class_type_infoE, i64 2), ptr @_ZTS8IUnknown }, comdat, align 8
@_ZTI10IInArchive = linkonce_odr dso_local constant { ptr, ptr, ptr } { ptr getelementptr inbounds (ptr, ptr @_ZTVN10__cxxabiv120__si_class_type_infoE, i64 2), ptr @_ZTS10IInArchive, ptr @_ZTI8IUnknown }, comdat, align 8
@_ZTS14ISetProperties = linkonce_odr dso_local constant [17 x i8] c"14ISetProperties\00", comdat, align 1
@_ZTI14ISetProperties = linkonce_odr dso_local constant { ptr, ptr, ptr } { ptr getelementptr inbounds (ptr, ptr @_ZTVN10__cxxabiv120__si_class_type_infoE, i64 2), ptr @_ZTS14ISetProperties, ptr @_ZTI8IUnknown }, comdat, align 8
@_ZTS11IOutArchive = linkonce_odr dso_local constant [14 x i8] c"11IOutArchive\00", comdat, align 1
@_ZTI11IOutArchive = linkonce_odr dso_local constant { ptr, ptr, ptr } { ptr getelementptr inbounds (ptr, ptr @_ZTVN10__cxxabiv120__si_class_type_infoE, i64 2), ptr @_ZTS11IOutArchive, ptr @_ZTI8IUnknown }, comdat, align 8
@_ZTS13CMyUnknownImp = linkonce_odr dso_local constant [16 x i8] c"13CMyUnknownImp\00", comdat, align 1
@_ZTI13CMyUnknownImp = linkonce_odr dso_local constant { ptr, ptr } { ptr getelementptr inbounds (ptr, ptr @_ZTVN10__cxxabiv117__class_type_infoE, i64 2), ptr @_ZTS13CMyUnknownImp }, comdat, align 8
@_ZTIN8NArchive3N7z8CHandlerE = dso_local constant { ptr, ptr, i32, i32, ptr, i64, ptr, i64, ptr, i64, ptr, i64, ptr, i64 } { ptr getelementptr inbounds (ptr, ptr @_ZTVN10__cxxabiv121__vmi_class_type_infoE, i64 2), ptr @_ZTSN8NArchive3N7z8CHandlerE, i32 1, i32 5, ptr @_ZTIN8NArchive11COutHandlerE, i64 2050, ptr @_ZTI10IInArchive, i64 2, ptr @_ZTI14ISetProperties, i64 28674, ptr @_ZTI11IOutArchive, i64 30722, ptr @_ZTI13CMyUnknownImp, i64 32770 }, align 8
@_ZTV13CObjectVectorIN8NArchive14COneMethodInfoEE = linkonce_odr dso_local unnamed_addr constant { [5 x ptr] } { [5 x ptr] [ptr null, ptr @_ZTI13CObjectVectorIN8NArchive14COneMethodInfoEE, ptr @_ZN13CObjectVectorIN8NArchive14COneMethodInfoEED2Ev, ptr @_ZN13CObjectVectorIN8NArchive14COneMethodInfoEED0Ev, ptr @_ZN13CObjectVectorIN8NArchive14COneMethodInfoEE6DeleteEii] }, comdat, align 8
@_ZTS13CObjectVectorIN8NArchive14COneMethodInfoEE = linkonce_odr dso_local constant [45 x i8] c"13CObjectVectorIN8NArchive14COneMethodInfoEE\00", comdat, align 1
@_ZTS13CRecordVectorIPvE = linkonce_odr dso_local constant [20 x i8] c"13CRecordVectorIPvE\00", comdat, align 1
@_ZTI17CBaseRecordVector = external constant ptr
@_ZTI13CRecordVectorIPvE = linkonce_odr dso_local constant { ptr, ptr, ptr } { ptr getelementptr inbounds (ptr, ptr @_ZTVN10__cxxabiv120__si_class_type_infoE, i64 2), ptr @_ZTS13CRecordVectorIPvE, ptr @_ZTI17CBaseRecordVector }, comdat, align 8
@_ZTI13CObjectVectorIN8NArchive14COneMethodInfoEE = linkonce_odr dso_local constant { ptr, ptr, ptr } { ptr getelementptr inbounds (ptr, ptr @_ZTVN10__cxxabiv120__si_class_type_infoE, i64 2), ptr @_ZTS13CObjectVectorIN8NArchive14COneMethodInfoEE, ptr @_ZTI13CRecordVectorIPvE }, comdat, align 8
@_ZTV13CObjectVectorI5CPropE = linkonce_odr dso_local unnamed_addr constant { [5 x ptr] } { [5 x ptr] [ptr null, ptr @_ZTI13CObjectVectorI5CPropE, ptr @_ZN13CObjectVectorI5CPropED2Ev, ptr @_ZN13CObjectVectorI5CPropED0Ev, ptr @_ZN13CObjectVectorI5CPropE6DeleteEii] }, comdat, align 8
@_ZTS13CObjectVectorI5CPropE = linkonce_odr dso_local constant [24 x i8] c"13CObjectVectorI5CPropE\00", comdat, align 1
@_ZTI13CObjectVectorI5CPropE = linkonce_odr dso_local constant { ptr, ptr, ptr } { ptr getelementptr inbounds (ptr, ptr @_ZTVN10__cxxabiv120__si_class_type_infoE, i64 2), ptr @_ZTS13CObjectVectorI5CPropE, ptr @_ZTI13CRecordVectorIPvE }, comdat, align 8
@_ZTV13CRecordVectorIbE = linkonce_odr dso_local unnamed_addr constant { [5 x ptr] } { [5 x ptr] [ptr null, ptr @_ZTI13CRecordVectorIbE, ptr @_ZN17CBaseRecordVectorD2Ev, ptr @_ZN13CRecordVectorIbED0Ev, ptr @_ZN17CBaseRecordVector6DeleteEii] }, comdat, align 8
@_ZTS13CRecordVectorIbE = linkonce_odr dso_local constant [19 x i8] c"13CRecordVectorIbE\00", comdat, align 1
@_ZTI13CRecordVectorIbE = linkonce_odr dso_local constant { ptr, ptr, ptr } { ptr getelementptr inbounds (ptr, ptr @_ZTVN10__cxxabiv120__si_class_type_infoE, i64 2), ptr @_ZTS13CRecordVectorIbE, ptr @_ZTI17CBaseRecordVector }, comdat, align 8
@_ZTV13CObjectVectorIN8NArchive3N7z7CFolderEE = linkonce_odr dso_local unnamed_addr constant { [5 x ptr] } { [5 x ptr] [ptr null, ptr @_ZTI13CObjectVectorIN8NArchive3N7z7CFolderEE, ptr @_ZN13CObjectVectorIN8NArchive3N7z7CFolderEED2Ev, ptr @_ZN13CObjectVectorIN8NArchive3N7z7CFolderEED0Ev, ptr @_ZN13CObjectVectorIN8NArchive3N7z7CFolderEE6DeleteEii] }, comdat, align 8
@_ZTS13CObjectVectorIN8NArchive3N7z7CFolderEE = linkonce_odr dso_local constant [41 x i8] c"13CObjectVectorIN8NArchive3N7z7CFolderEE\00", comdat, align 1
@_ZTI13CObjectVectorIN8NArchive3N7z7CFolderEE = linkonce_odr dso_local constant { ptr, ptr, ptr } { ptr getelementptr inbounds (ptr, ptr @_ZTVN10__cxxabiv120__si_class_type_infoE, i64 2), ptr @_ZTS13CObjectVectorIN8NArchive3N7z7CFolderEE, ptr @_ZTI13CRecordVectorIPvE }, comdat, align 8
@_ZTV13CObjectVectorIN8NArchive3N7z10CCoderInfoEE = linkonce_odr dso_local unnamed_addr constant { [5 x ptr] } { [5 x ptr] [ptr null, ptr @_ZTI13CObjectVectorIN8NArchive3N7z10CCoderInfoEE, ptr @_ZN13CObjectVectorIN8NArchive3N7z10CCoderInfoEED2Ev, ptr @_ZN13CObjectVectorIN8NArchive3N7z10CCoderInfoEED0Ev, ptr @_ZN13CObjectVectorIN8NArchive3N7z10CCoderInfoEE6DeleteEii] }, comdat, align 8
@_ZTS13CObjectVectorIN8NArchive3N7z10CCoderInfoEE = linkonce_odr dso_local constant [45 x i8] c"13CObjectVectorIN8NArchive3N7z10CCoderInfoEE\00", comdat, align 1
@_ZTI13CObjectVectorIN8NArchive3N7z10CCoderInfoEE = linkonce_odr dso_local constant { ptr, ptr, ptr } { ptr getelementptr inbounds (ptr, ptr @_ZTVN10__cxxabiv120__si_class_type_infoE, i64 2), ptr @_ZTS13CObjectVectorIN8NArchive3N7z10CCoderInfoEE, ptr @_ZTI13CRecordVectorIPvE }, comdat, align 8
@_ZTV7CBufferIhE = linkonce_odr dso_local unnamed_addr constant { [4 x ptr] } { [4 x ptr] [ptr null, ptr @_ZTI7CBufferIhE, ptr @_ZN7CBufferIhED2Ev, ptr @_ZN7CBufferIhED0Ev] }, comdat, align 8
@_ZTS7CBufferIhE = linkonce_odr dso_local constant [12 x i8] c"7CBufferIhE\00", comdat, align 1
@_ZTI7CBufferIhE = linkonce_odr dso_local constant { ptr, ptr } { ptr getelementptr inbounds (ptr, ptr @_ZTVN10__cxxabiv117__class_type_infoE, i64 2), ptr @_ZTS7CBufferIhE }, comdat, align 8
@_ZTV13CObjectVectorIN8NArchive3N7z9CFileItemEE = linkonce_odr dso_local unnamed_addr constant { [5 x ptr] } { [5 x ptr] [ptr null, ptr @_ZTI13CObjectVectorIN8NArchive3N7z9CFileItemEE, ptr @_ZN13CObjectVectorIN8NArchive3N7z9CFileItemEED2Ev, ptr @_ZN13CObjectVectorIN8NArchive3N7z9CFileItemEED0Ev, ptr @_ZN13CObjectVectorIN8NArchive3N7z9CFileItemEE6DeleteEii] }, comdat, align 8
@_ZTS13CObjectVectorIN8NArchive3N7z9CFileItemEE = linkonce_odr dso_local constant [43 x i8] c"13CObjectVectorIN8NArchive3N7z9CFileItemEE\00", comdat, align 1
@_ZTI13CObjectVectorIN8NArchive3N7z9CFileItemEE = linkonce_odr dso_local constant { ptr, ptr, ptr } { ptr getelementptr inbounds (ptr, ptr @_ZTVN10__cxxabiv120__si_class_type_infoE, i64 2), ptr @_ZTS13CObjectVectorIN8NArchive3N7z9CFileItemEE, ptr @_ZTI13CRecordVectorIPvE }, comdat, align 8
@_ZTV13CRecordVectorIjE = linkonce_odr dso_local unnamed_addr constant { [5 x ptr] } { [5 x ptr] [ptr null, ptr @_ZTI13CRecordVectorIjE, ptr @_ZN17CBaseRecordVectorD2Ev, ptr @_ZN13CRecordVectorIjED0Ev, ptr @_ZN17CBaseRecordVector6DeleteEii] }, comdat, align 8
@_ZTS13CRecordVectorIjE = linkonce_odr dso_local constant [19 x i8] c"13CRecordVectorIjE\00", comdat, align 1
@_ZTI13CRecordVectorIjE = linkonce_odr dso_local constant { ptr, ptr, ptr } { ptr getelementptr inbounds (ptr, ptr @_ZTVN10__cxxabiv120__si_class_type_infoE, i64 2), ptr @_ZTS13CRecordVectorIjE, ptr @_ZTI17CBaseRecordVector }, comdat, align 8
@.str.3 = private unnamed_addr constant [2 x i32] [i32 109, i32 0], align 4
@.str.4 = private unnamed_addr constant [2 x i32] [i32 107, i32 0], align 4
@.str.5 = private unnamed_addr constant [2 x i32] [i32 98, i32 0], align 4
@_ZTV13CObjectVectorIN8NArchive3N7z8CInByte2EE = linkonce_odr dso_local unnamed_addr constant { [5 x ptr] } { [5 x ptr] [ptr null, ptr @_ZTI13CObjectVectorIN8NArchive3N7z8CInByte2EE, ptr @_ZN13CObjectVectorIN8NArchive3N7z8CInByte2EED2Ev, ptr @_ZN13CObjectVectorIN8NArchive3N7z8CInByte2EED0Ev, ptr @_ZN13CObjectVectorIN8NArchive3N7z8CInByte2EE6DeleteEii] }, comdat, align 8
@_ZTS13CObjectVectorIN8NArchive3N7z8CInByte2EE = linkonce_odr dso_local constant [42 x i8] c"13CObjectVectorIN8NArchive3N7z8CInByte2EE\00", comdat, align 1
@_ZTI13CObjectVectorIN8NArchive3N7z8CInByte2EE = linkonce_odr dso_local constant { ptr, ptr, ptr } { ptr getelementptr inbounds (ptr, ptr @_ZTVN10__cxxabiv120__si_class_type_infoE, i64 2), ptr @_ZTS13CObjectVectorIN8NArchive3N7z8CInByte2EE, ptr @_ZTI13CRecordVectorIPvE }, comdat, align 8
@IID_IUnknown = external local_unnamed_addr global %struct.GUID, align 4
@IID_IInArchive = external local_unnamed_addr global %struct.GUID, align 4
@IID_ISetProperties = external local_unnamed_addr global %struct.GUID, align 4
@IID_IOutArchive = external local_unnamed_addr global %struct.GUID, align 4
@_ZTV13CRecordVectorIN8NArchive3N7z5CBindEE = linkonce_odr dso_local unnamed_addr constant { [5 x ptr] } { [5 x ptr] [ptr null, ptr @_ZTI13CRecordVectorIN8NArchive3N7z5CBindEE, ptr @_ZN17CBaseRecordVectorD2Ev, ptr @_ZN13CRecordVectorIN8NArchive3N7z5CBindEED0Ev, ptr @_ZN17CBaseRecordVector6DeleteEii] }, comdat, align 8
@_ZTS13CRecordVectorIN8NArchive3N7z5CBindEE = linkonce_odr dso_local constant [39 x i8] c"13CRecordVectorIN8NArchive3N7z5CBindEE\00", comdat, align 1
@_ZTI13CRecordVectorIN8NArchive3N7z5CBindEE = linkonce_odr dso_local constant { ptr, ptr, ptr } { ptr getelementptr inbounds (ptr, ptr @_ZTVN10__cxxabiv120__si_class_type_infoE, i64 2), ptr @_ZTS13CRecordVectorIN8NArchive3N7z5CBindEE, ptr @_ZTI17CBaseRecordVector }, comdat, align 8
@_ZTV13CRecordVectorIyE = linkonce_odr dso_local unnamed_addr constant { [5 x ptr] } { [5 x ptr] [ptr null, ptr @_ZTI13CRecordVectorIyE, ptr @_ZN17CBaseRecordVectorD2Ev, ptr @_ZN13CRecordVectorIyED0Ev, ptr @_ZN17CBaseRecordVector6DeleteEii] }, comdat, align 8
@_ZTS13CRecordVectorIyE = linkonce_odr dso_local constant [19 x i8] c"13CRecordVectorIyE\00", comdat, align 1
@_ZTI13CRecordVectorIyE = linkonce_odr dso_local constant { ptr, ptr, ptr } { ptr getelementptr inbounds (ptr, ptr @_ZTVN10__cxxabiv120__si_class_type_infoE, i64 2), ptr @_ZTS13CRecordVectorIyE, ptr @_ZTI17CBaseRecordVector }, comdat, align 8

@_ZN8NArchive3N7z8CHandlerC1Ev = dso_local unnamed_addr alias void (ptr), ptr @_ZN8NArchive3N7z8CHandlerC2Ev

; Function Attrs: uwtable
define dso_local void @_ZN8NArchive3N7z8CHandlerC2Ev(ptr noundef nonnull align 8 dereferenceable(912) %this) unnamed_addr #0 align 2 personality ptr @__gxx_personality_v0 {
entry:
  %0 = getelementptr inbounds i8, ptr %this, i64 8
  %_methods.i = getelementptr inbounds i8, ptr %this, i64 16
  %_capacity.i.i.i.i = getelementptr inbounds i8, ptr %this, i64 24
  %_itemSize.i.i.i.i = getelementptr inbounds i8, ptr %this, i64 40
  tail call void @llvm.memset.p0.i64(ptr noundef nonnull align 8 dereferenceable(16) %_capacity.i.i.i.i, i8 0, i64 16, i1 false)
  store i64 8, ptr %_itemSize.i.i.i.i, align 8, !tbaa !5
  store ptr getelementptr inbounds ({ [5 x ptr] }, ptr @_ZTV13CObjectVectorIN8NArchive14COneMethodInfoEE, i64 0, inrange i32 0, i64 2), ptr %_methods.i, align 8, !tbaa !12
  invoke void @_ZN8NArchive11COutHandler4InitEv(ptr noundef nonnull align 8 dereferenceable(100) %0)
          to label %invoke.cont5 unwind label %lpad.i

common.resume:                                    ; preds = %_ZN9CMyComPtrI9IInStreamED2Ev.exit, %lpad.i
  %common.resume.op = phi { ptr, i32 } [ %1, %lpad.i ], [ %5, %_ZN9CMyComPtrI9IInStreamED2Ev.exit ]
  resume { ptr, i32 } %common.resume.op

lpad.i:                                           ; preds = %entry
  %1 = landingpad { ptr, i32 }
          cleanup
  tail call void @_ZN13CObjectVectorIN8NArchive14COneMethodInfoEED2Ev(ptr noundef nonnull align 8 dereferenceable(32) %_methods.i) #21
  br label %common.resume

invoke.cont5:                                     ; preds = %entry
  %2 = getelementptr inbounds i8, ptr %this, i64 112
  %3 = getelementptr inbounds i8, ptr %this, i64 120
  %4 = getelementptr inbounds i8, ptr %this, i64 128
  store i32 0, ptr %4, align 8, !tbaa !14
  store ptr getelementptr inbounds ({ [20 x ptr], [8 x ptr], [9 x ptr] }, ptr @_ZTVN8NArchive3N7z8CHandlerE, i64 0, inrange i32 0, i64 2), ptr %this, align 8, !tbaa !12
  store ptr getelementptr inbounds ({ [20 x ptr], [8 x ptr], [9 x ptr] }, ptr @_ZTVN8NArchive3N7z8CHandlerE, i64 0, inrange i32 1, i64 2), ptr %2, align 8, !tbaa !12
  store ptr getelementptr inbounds ({ [20 x ptr], [8 x ptr], [9 x ptr] }, ptr @_ZTVN8NArchive3N7z8CHandlerE, i64 0, inrange i32 2, i64 2), ptr %3, align 8, !tbaa !12
  %_inStream = getelementptr inbounds %"class.NArchive::N7z::CHandler", ptr %this, i64 0, i32 5
  store ptr null, ptr %_inStream, align 8, !tbaa !16
  %_db = getelementptr inbounds %"class.NArchive::N7z::CHandler", ptr %this, i64 0, i32 6
  %_capacity.i.i.i.i22 = getelementptr inbounds %"class.NArchive::N7z::CHandler", ptr %this, i64 0, i32 6, i32 0, i32 0, i32 0, i32 1
  %_itemSize.i.i.i.i23 = getelementptr inbounds %"class.NArchive::N7z::CHandler", ptr %this, i64 0, i32 6, i32 0, i32 0, i32 0, i32 4
  tail call void @llvm.memset.p0.i64(ptr noundef nonnull align 8 dereferenceable(16) %_capacity.i.i.i.i22, i8 0, i64 16, i1 false)
  store i64 8, ptr %_itemSize.i.i.i.i23, align 8, !tbaa !5
  store ptr getelementptr inbounds ({ [5 x ptr] }, ptr @_ZTV13CRecordVectorIyE, i64 0, inrange i32 0, i64 2), ptr %_db, align 8, !tbaa !12
  %PackCRCsDefined.i.i = getelementptr inbounds %"class.NArchive::N7z::CHandler", ptr %this, i64 0, i32 6, i32 0, i32 1
  %_capacity.i.i34.i.i = getelementptr inbounds %"class.NArchive::N7z::CHandler", ptr %this, i64 0, i32 6, i32 0, i32 1, i32 0, i32 1
  %_itemSize.i.i35.i.i = getelementptr inbounds %"class.NArchive::N7z::CHandler", ptr %this, i64 0, i32 6, i32 0, i32 1, i32 0, i32 4
  tail call void @llvm.memset.p0.i64(ptr noundef nonnull align 8 dereferenceable(16) %_capacity.i.i34.i.i, i8 0, i64 16, i1 false)
  store i64 1, ptr %_itemSize.i.i35.i.i, align 8, !tbaa !5
  store ptr getelementptr inbounds ({ [5 x ptr] }, ptr @_ZTV13CRecordVectorIbE, i64 0, inrange i32 0, i64 2), ptr %PackCRCsDefined.i.i, align 8, !tbaa !12
  %PackCRCs.i.i = getelementptr inbounds %"class.NArchive::N7z::CHandler", ptr %this, i64 0, i32 6, i32 0, i32 2
  %_capacity.i.i36.i.i = getelementptr inbounds %"class.NArchive::N7z::CHandler", ptr %this, i64 0, i32 6, i32 0, i32 2, i32 0, i32 1
  %_itemSize.i.i37.i.i = getelementptr inbounds %"class.NArchive::N7z::CHandler", ptr %this, i64 0, i32 6, i32 0, i32 2, i32 0, i32 4
  tail call void @llvm.memset.p0.i64(ptr noundef nonnull align 8 dereferenceable(16) %_capacity.i.i36.i.i, i8 0, i64 16, i1 false)
  store i64 4, ptr %_itemSize.i.i37.i.i, align 8, !tbaa !5
  store ptr getelementptr inbounds ({ [5 x ptr] }, ptr @_ZTV13CRecordVectorIjE, i64 0, inrange i32 0, i64 2), ptr %PackCRCs.i.i, align 8, !tbaa !12
  %Folders.i.i = getelementptr inbounds %"class.NArchive::N7z::CHandler", ptr %this, i64 0, i32 6, i32 0, i32 3
  %_capacity.i.i.i.i.i = getelementptr inbounds %"class.NArchive::N7z::CHandler", ptr %this, i64 0, i32 6, i32 0, i32 3, i32 0, i32 0, i32 1
  %_itemSize.i.i.i.i.i = getelementptr inbounds %"class.NArchive::N7z::CHandler", ptr %this, i64 0, i32 6, i32 0, i32 3, i32 0, i32 0, i32 4
  tail call void @llvm.memset.p0.i64(ptr noundef nonnull align 8 dereferenceable(16) %_capacity.i.i.i.i.i, i8 0, i64 16, i1 false)
  store i64 8, ptr %_itemSize.i.i.i.i.i, align 8, !tbaa !5
  store ptr getelementptr inbounds ({ [5 x ptr] }, ptr @_ZTV13CObjectVectorIN8NArchive3N7z7CFolderEE, i64 0, inrange i32 0, i64 2), ptr %Folders.i.i, align 8, !tbaa !12
  %NumUnpackStreamsVector.i.i = getelementptr inbounds %"class.NArchive::N7z::CHandler", ptr %this, i64 0, i32 6, i32 0, i32 4
  %_capacity.i.i38.i.i = getelementptr inbounds %"class.NArchive::N7z::CHandler", ptr %this, i64 0, i32 6, i32 0, i32 4, i32 0, i32 1
  %_itemSize.i.i39.i.i = getelementptr inbounds %"class.NArchive::N7z::CHandler", ptr %this, i64 0, i32 6, i32 0, i32 4, i32 0, i32 4
  tail call void @llvm.memset.p0.i64(ptr noundef nonnull align 8 dereferenceable(16) %_capacity.i.i38.i.i, i8 0, i64 16, i1 false)
  store i64 4, ptr %_itemSize.i.i39.i.i, align 8, !tbaa !5
  store ptr getelementptr inbounds ({ [5 x ptr] }, ptr @_ZTV13CRecordVectorIjE, i64 0, inrange i32 0, i64 2), ptr %NumUnpackStreamsVector.i.i, align 8, !tbaa !12
  %Files.i.i = getelementptr inbounds %"class.NArchive::N7z::CHandler", ptr %this, i64 0, i32 6, i32 0, i32 5
  %_capacity.i.i.i40.i.i = getelementptr inbounds %"class.NArchive::N7z::CHandler", ptr %this, i64 0, i32 6, i32 0, i32 5, i32 0, i32 0, i32 1
  %_itemSize.i.i.i41.i.i = getelementptr inbounds %"class.NArchive::N7z::CHandler", ptr %this, i64 0, i32 6, i32 0, i32 5, i32 0, i32 0, i32 4
  tail call void @llvm.memset.p0.i64(ptr noundef nonnull align 8 dereferenceable(16) %_capacity.i.i.i40.i.i, i8 0, i64 16, i1 false)
  store i64 8, ptr %_itemSize.i.i.i41.i.i, align 8, !tbaa !5
  store ptr getelementptr inbounds ({ [5 x ptr] }, ptr @_ZTV13CObjectVectorIN8NArchive3N7z9CFileItemEE, i64 0, inrange i32 0, i64 2), ptr %Files.i.i, align 8, !tbaa !12
  %CTime.i.i = getelementptr inbounds %"class.NArchive::N7z::CHandler", ptr %this, i64 0, i32 6, i32 0, i32 6
  %_capacity.i.i.i42.i.i = getelementptr inbounds %"class.NArchive::N7z::CHandler", ptr %this, i64 0, i32 6, i32 0, i32 6, i32 0, i32 0, i32 1
  %_itemSize.i.i.i43.i.i = getelementptr inbounds %"class.NArchive::N7z::CHandler", ptr %this, i64 0, i32 6, i32 0, i32 6, i32 0, i32 0, i32 4
  tail call void @llvm.memset.p0.i64(ptr noundef nonnull align 8 dereferenceable(16) %_capacity.i.i.i42.i.i, i8 0, i64 16, i1 false)
  store i64 8, ptr %_itemSize.i.i.i43.i.i, align 8, !tbaa !5
  store ptr getelementptr inbounds ({ [5 x ptr] }, ptr @_ZTV13CRecordVectorIyE, i64 0, inrange i32 0, i64 2), ptr %CTime.i.i, align 8, !tbaa !12
  %Defined.i.i.i = getelementptr inbounds %"class.NArchive::N7z::CHandler", ptr %this, i64 0, i32 6, i32 0, i32 6, i32 1
  %_capacity.i.i3.i.i.i = getelementptr inbounds %"class.NArchive::N7z::CHandler", ptr %this, i64 0, i32 6, i32 0, i32 6, i32 1, i32 0, i32 1
  %_itemSize.i.i4.i.i.i = getelementptr inbounds %"class.NArchive::N7z::CHandler", ptr %this, i64 0, i32 6, i32 0, i32 6, i32 1, i32 0, i32 4
  tail call void @llvm.memset.p0.i64(ptr noundef nonnull align 8 dereferenceable(16) %_capacity.i.i3.i.i.i, i8 0, i64 16, i1 false)
  store i64 1, ptr %_itemSize.i.i4.i.i.i, align 8, !tbaa !5
  store ptr getelementptr inbounds ({ [5 x ptr] }, ptr @_ZTV13CRecordVectorIbE, i64 0, inrange i32 0, i64 2), ptr %Defined.i.i.i, align 8, !tbaa !12
  %ATime.i.i = getelementptr inbounds %"class.NArchive::N7z::CHandler", ptr %this, i64 0, i32 6, i32 0, i32 7
  %_capacity.i.i.i44.i.i = getelementptr inbounds %"class.NArchive::N7z::CHandler", ptr %this, i64 0, i32 6, i32 0, i32 7, i32 0, i32 0, i32 1
  %_itemSize.i.i.i45.i.i = getelementptr inbounds %"class.NArchive::N7z::CHandler", ptr %this, i64 0, i32 6, i32 0, i32 7, i32 0, i32 0, i32 4
  tail call void @llvm.memset.p0.i64(ptr noundef nonnull align 8 dereferenceable(16) %_capacity.i.i.i44.i.i, i8 0, i64 16, i1 false)
  store i64 8, ptr %_itemSize.i.i.i45.i.i, align 8, !tbaa !5
  store ptr getelementptr inbounds ({ [5 x ptr] }, ptr @_ZTV13CRecordVectorIyE, i64 0, inrange i32 0, i64 2), ptr %ATime.i.i, align 8, !tbaa !12
  %Defined.i46.i.i = getelementptr inbounds %"class.NArchive::N7z::CHandler", ptr %this, i64 0, i32 6, i32 0, i32 7, i32 1
  %_capacity.i.i3.i47.i.i = getelementptr inbounds %"class.NArchive::N7z::CHandler", ptr %this, i64 0, i32 6, i32 0, i32 7, i32 1, i32 0, i32 1
  %_itemSize.i.i4.i48.i.i = getelementptr inbounds %"class.NArchive::N7z::CHandler", ptr %this, i64 0, i32 6, i32 0, i32 7, i32 1, i32 0, i32 4
  tail call void @llvm.memset.p0.i64(ptr noundef nonnull align 8 dereferenceable(16) %_capacity.i.i3.i47.i.i, i8 0, i64 16, i1 false)
  store i64 1, ptr %_itemSize.i.i4.i48.i.i, align 8, !tbaa !5
  store ptr getelementptr inbounds ({ [5 x ptr] }, ptr @_ZTV13CRecordVectorIbE, i64 0, inrange i32 0, i64 2), ptr %Defined.i46.i.i, align 8, !tbaa !12
  %MTime.i.i = getelementptr inbounds %"class.NArchive::N7z::CHandler", ptr %this, i64 0, i32 6, i32 0, i32 8
  %_capacity.i.i.i49.i.i = getelementptr inbounds %"class.NArchive::N7z::CHandler", ptr %this, i64 0, i32 6, i32 0, i32 8, i32 0, i32 0, i32 1
  %_itemSize.i.i.i50.i.i = getelementptr inbounds %"class.NArchive::N7z::CHandler", ptr %this, i64 0, i32 6, i32 0, i32 8, i32 0, i32 0, i32 4
  tail call void @llvm.memset.p0.i64(ptr noundef nonnull align 8 dereferenceable(16) %_capacity.i.i.i49.i.i, i8 0, i64 16, i1 false)
  store i64 8, ptr %_itemSize.i.i.i50.i.i, align 8, !tbaa !5
  store ptr getelementptr inbounds ({ [5 x ptr] }, ptr @_ZTV13CRecordVectorIyE, i64 0, inrange i32 0, i64 2), ptr %MTime.i.i, align 8, !tbaa !12
  %Defined.i51.i.i = getelementptr inbounds %"class.NArchive::N7z::CHandler", ptr %this, i64 0, i32 6, i32 0, i32 8, i32 1
  %_capacity.i.i3.i52.i.i = getelementptr inbounds %"class.NArchive::N7z::CHandler", ptr %this, i64 0, i32 6, i32 0, i32 8, i32 1, i32 0, i32 1
  %_itemSize.i.i4.i53.i.i = getelementptr inbounds %"class.NArchive::N7z::CHandler", ptr %this, i64 0, i32 6, i32 0, i32 8, i32 1, i32 0, i32 4
  tail call void @llvm.memset.p0.i64(ptr noundef nonnull align 8 dereferenceable(16) %_capacity.i.i3.i52.i.i, i8 0, i64 16, i1 false)
  store i64 1, ptr %_itemSize.i.i4.i53.i.i, align 8, !tbaa !5
  store ptr getelementptr inbounds ({ [5 x ptr] }, ptr @_ZTV13CRecordVectorIbE, i64 0, inrange i32 0, i64 2), ptr %Defined.i51.i.i, align 8, !tbaa !12
  %StartPos.i.i = getelementptr inbounds %"class.NArchive::N7z::CHandler", ptr %this, i64 0, i32 6, i32 0, i32 9
  %_capacity.i.i.i54.i.i = getelementptr inbounds %"class.NArchive::N7z::CHandler", ptr %this, i64 0, i32 6, i32 0, i32 9, i32 0, i32 0, i32 1
  %_itemSize.i.i.i55.i.i = getelementptr inbounds %"class.NArchive::N7z::CHandler", ptr %this, i64 0, i32 6, i32 0, i32 9, i32 0, i32 0, i32 4
  tail call void @llvm.memset.p0.i64(ptr noundef nonnull align 8 dereferenceable(16) %_capacity.i.i.i54.i.i, i8 0, i64 16, i1 false)
  store i64 8, ptr %_itemSize.i.i.i55.i.i, align 8, !tbaa !5
  store ptr getelementptr inbounds ({ [5 x ptr] }, ptr @_ZTV13CRecordVectorIyE, i64 0, inrange i32 0, i64 2), ptr %StartPos.i.i, align 8, !tbaa !12
  %Defined.i56.i.i = getelementptr inbounds %"class.NArchive::N7z::CHandler", ptr %this, i64 0, i32 6, i32 0, i32 9, i32 1
  %_capacity.i.i3.i57.i.i = getelementptr inbounds %"class.NArchive::N7z::CHandler", ptr %this, i64 0, i32 6, i32 0, i32 9, i32 1, i32 0, i32 1
  %_itemSize.i.i4.i58.i.i = getelementptr inbounds %"class.NArchive::N7z::CHandler", ptr %this, i64 0, i32 6, i32 0, i32 9, i32 1, i32 0, i32 4
  tail call void @llvm.memset.p0.i64(ptr noundef nonnull align 8 dereferenceable(16) %_capacity.i.i3.i57.i.i, i8 0, i64 16, i1 false)
  store i64 1, ptr %_itemSize.i.i4.i58.i.i, align 8, !tbaa !5
  store ptr getelementptr inbounds ({ [5 x ptr] }, ptr @_ZTV13CRecordVectorIbE, i64 0, inrange i32 0, i64 2), ptr %Defined.i56.i.i, align 8, !tbaa !12
  %IsAnti.i.i = getelementptr inbounds %"class.NArchive::N7z::CHandler", ptr %this, i64 0, i32 6, i32 0, i32 10
  %_capacity.i.i59.i.i = getelementptr inbounds %"class.NArchive::N7z::CHandler", ptr %this, i64 0, i32 6, i32 0, i32 10, i32 0, i32 1
  %_itemSize.i.i60.i.i = getelementptr inbounds %"class.NArchive::N7z::CHandler", ptr %this, i64 0, i32 6, i32 0, i32 10, i32 0, i32 4
  tail call void @llvm.memset.p0.i64(ptr noundef nonnull align 8 dereferenceable(16) %_capacity.i.i59.i.i, i8 0, i64 16, i1 false)
  store i64 1, ptr %_itemSize.i.i60.i.i, align 8, !tbaa !5
  store ptr getelementptr inbounds ({ [5 x ptr] }, ptr @_ZTV13CRecordVectorIbE, i64 0, inrange i32 0, i64 2), ptr %IsAnti.i.i, align 8, !tbaa !12
  %FileInfoPopIDs.i.i = getelementptr inbounds %"class.NArchive::N7z::CHandler", ptr %this, i64 0, i32 6, i32 1, i32 5
  %_capacity.i.i.i14.i = getelementptr inbounds %"class.NArchive::N7z::CHandler", ptr %this, i64 0, i32 6, i32 1, i32 5, i32 0, i32 1
  %_itemSize.i.i.i15.i = getelementptr inbounds %"class.NArchive::N7z::CHandler", ptr %this, i64 0, i32 6, i32 1, i32 5, i32 0, i32 4
  tail call void @llvm.memset.p0.i64(ptr noundef nonnull align 8 dereferenceable(16) %_capacity.i.i.i14.i, i8 0, i64 16, i1 false)
  store i64 8, ptr %_itemSize.i.i.i15.i, align 8, !tbaa !5
  store ptr getelementptr inbounds ({ [5 x ptr] }, ptr @_ZTV13CRecordVectorIyE, i64 0, inrange i32 0, i64 2), ptr %FileInfoPopIDs.i.i, align 8, !tbaa !12
  %PackStreamStartPositions.i = getelementptr inbounds %"class.NArchive::N7z::CHandler", ptr %this, i64 0, i32 6, i32 2
  %_capacity.i.i.i = getelementptr inbounds %"class.NArchive::N7z::CHandler", ptr %this, i64 0, i32 6, i32 2, i32 0, i32 1
  %_itemSize.i.i.i = getelementptr inbounds %"class.NArchive::N7z::CHandler", ptr %this, i64 0, i32 6, i32 2, i32 0, i32 4
  tail call void @llvm.memset.p0.i64(ptr noundef nonnull align 8 dereferenceable(16) %_capacity.i.i.i, i8 0, i64 16, i1 false)
  store i64 8, ptr %_itemSize.i.i.i, align 8, !tbaa !5
  store ptr getelementptr inbounds ({ [5 x ptr] }, ptr @_ZTV13CRecordVectorIyE, i64 0, inrange i32 0, i64 2), ptr %PackStreamStartPositions.i, align 8, !tbaa !12
  %FolderStartPackStreamIndex.i = getelementptr inbounds %"class.NArchive::N7z::CHandler", ptr %this, i64 0, i32 6, i32 3
  %_capacity.i.i16.i = getelementptr inbounds %"class.NArchive::N7z::CHandler", ptr %this, i64 0, i32 6, i32 3, i32 0, i32 1
  %_itemSize.i.i17.i = getelementptr inbounds %"class.NArchive::N7z::CHandler", ptr %this, i64 0, i32 6, i32 3, i32 0, i32 4
  tail call void @llvm.memset.p0.i64(ptr noundef nonnull align 8 dereferenceable(16) %_capacity.i.i16.i, i8 0, i64 16, i1 false)
  store i64 4, ptr %_itemSize.i.i17.i, align 8, !tbaa !5
  store ptr getelementptr inbounds ({ [5 x ptr] }, ptr @_ZTV13CRecordVectorIjE, i64 0, inrange i32 0, i64 2), ptr %FolderStartPackStreamIndex.i, align 8, !tbaa !12
  %FolderStartFileIndex.i = getelementptr inbounds %"class.NArchive::N7z::CHandler", ptr %this, i64 0, i32 6, i32 4
  %_capacity.i.i18.i = getelementptr inbounds %"class.NArchive::N7z::CHandler", ptr %this, i64 0, i32 6, i32 4, i32 0, i32 1
  %_itemSize.i.i19.i = getelementptr inbounds %"class.NArchive::N7z::CHandler", ptr %this, i64 0, i32 6, i32 4, i32 0, i32 4
  tail call void @llvm.memset.p0.i64(ptr noundef nonnull align 8 dereferenceable(16) %_capacity.i.i18.i, i8 0, i64 16, i1 false)
  store i64 4, ptr %_itemSize.i.i19.i, align 8, !tbaa !5
  store ptr getelementptr inbounds ({ [5 x ptr] }, ptr @_ZTV13CRecordVectorIjE, i64 0, inrange i32 0, i64 2), ptr %FolderStartFileIndex.i, align 8, !tbaa !12
  %FileIndexToFolderIndexMap.i = getelementptr inbounds %"class.NArchive::N7z::CHandler", ptr %this, i64 0, i32 6, i32 5
  %_capacity.i.i20.i = getelementptr inbounds %"class.NArchive::N7z::CHandler", ptr %this, i64 0, i32 6, i32 5, i32 0, i32 1
  %_itemSize.i.i21.i = getelementptr inbounds %"class.NArchive::N7z::CHandler", ptr %this, i64 0, i32 6, i32 5, i32 0, i32 4
  tail call void @llvm.memset.p0.i64(ptr noundef nonnull align 8 dereferenceable(16) %_capacity.i.i20.i, i8 0, i64 16, i1 false)
  store i64 4, ptr %_itemSize.i.i21.i, align 8, !tbaa !5
  store ptr getelementptr inbounds ({ [5 x ptr] }, ptr @_ZTV13CRecordVectorIjE, i64 0, inrange i32 0, i64 2), ptr %FileIndexToFolderIndexMap.i, align 8, !tbaa !12
  %_binds = getelementptr inbounds %"class.NArchive::N7z::CHandler", ptr %this, i64 0, i32 8
  %_capacity.i.i = getelementptr inbounds %"class.NArchive::N7z::CHandler", ptr %this, i64 0, i32 8, i32 0, i32 1
  %_itemSize.i.i = getelementptr inbounds %"class.NArchive::N7z::CHandler", ptr %this, i64 0, i32 8, i32 0, i32 4
  tail call void @llvm.memset.p0.i64(ptr noundef nonnull align 8 dereferenceable(16) %_capacity.i.i, i8 0, i64 16, i1 false)
  store i64 16, ptr %_itemSize.i.i, align 8, !tbaa !5
  store ptr getelementptr inbounds ({ [5 x ptr] }, ptr @_ZTV13CRecordVectorIN8NArchive3N7z5CBindEE, i64 0, inrange i32 0, i64 2), ptr %_binds, align 8, !tbaa !12
  %_fileInfoPopIDs = getelementptr inbounds %"class.NArchive::N7z::CHandler", ptr %this, i64 0, i32 9
  %_capacity.i.i24 = getelementptr inbounds %"class.NArchive::N7z::CHandler", ptr %this, i64 0, i32 9, i32 0, i32 1
  %_itemSize.i.i25 = getelementptr inbounds %"class.NArchive::N7z::CHandler", ptr %this, i64 0, i32 9, i32 0, i32 4
  tail call void @llvm.memset.p0.i64(ptr noundef nonnull align 8 dereferenceable(16) %_capacity.i.i24, i8 0, i64 16, i1 false)
  store i64 8, ptr %_itemSize.i.i25, align 8, !tbaa !5
  store ptr getelementptr inbounds ({ [5 x ptr] }, ptr @_ZTV13CRecordVectorIyE, i64 0, inrange i32 0, i64 2), ptr %_fileInfoPopIDs, align 8, !tbaa !12
  %_crcSize = getelementptr inbounds i8, ptr %this, i64 12
  store i32 4, ptr %_crcSize, align 4, !tbaa !18
  %_passwordIsDefined = getelementptr inbounds %"class.NArchive::N7z::CHandler", ptr %this, i64 0, i32 7
  store i8 0, ptr %_passwordIsDefined, align 8, !tbaa !24
  invoke void @_ZN8NArchive11COutHandler4InitEv(ptr noundef nonnull align 8 dereferenceable(100) %0)
          to label %invoke.cont13 unwind label %lpad12

invoke.cont13:                                    ; preds = %invoke.cont5
  ret void

lpad12:                                           ; preds = %invoke.cont5
  %5 = landingpad { ptr, i32 }
          cleanup
  tail call void @_ZN17CBaseRecordVectorD2Ev(ptr noundef nonnull align 8 dereferenceable(32) %_fileInfoPopIDs) #21
  tail call void @_ZN17CBaseRecordVectorD2Ev(ptr noundef nonnull align 8 dereferenceable(32) %_binds) #21
  tail call void @_ZN8NArchive3N7z18CArchiveDatabaseExD2Ev(ptr noundef nonnull align 8 dereferenceable(696) %_db) #21
  %6 = load ptr, ptr %_inStream, align 8, !tbaa !16
  %tobool.not.i = icmp eq ptr %6, null
  br i1 %tobool.not.i, label %_ZN9CMyComPtrI9IInStreamED2Ev.exit, label %if.then.i

if.then.i:                                        ; preds = %lpad12
  %vtable.i = load ptr, ptr %6, align 8, !tbaa !12
  %vfn.i = getelementptr inbounds ptr, ptr %vtable.i, i64 2
  %7 = load ptr, ptr %vfn.i, align 8
  %call.i = invoke noundef i32 %7(ptr noundef nonnull align 8 dereferenceable(8) %6)
          to label %_ZN9CMyComPtrI9IInStreamED2Ev.exit unwind label %terminate.lpad.i

terminate.lpad.i:                                 ; preds = %if.then.i
  %8 = landingpad { ptr, i32 }
          catch ptr null
  %9 = extractvalue { ptr, i32 } %8, 0
  tail call void @__clang_call_terminate(ptr %9) #22
  unreachable

_ZN9CMyComPtrI9IInStreamED2Ev.exit:               ; preds = %lpad12, %if.then.i
  tail call void @_ZN8NArchive11COutHandlerD2Ev(ptr noundef nonnull align 8 dereferenceable(100) %0) #21
  br label %common.resume
}

declare i32 @__gxx_personality_v0(...)

declare void @_ZN8NArchive11COutHandler4InitEv(ptr noundef nonnull align 8 dereferenceable(100)) local_unnamed_addr #1

; Function Attrs: nounwind
declare void @_ZN17CBaseRecordVectorD2Ev(ptr noundef nonnull align 8 dereferenceable(32)) unnamed_addr #2

; Function Attrs: inlinehint nounwind uwtable
define linkonce_odr dso_local void @_ZN8NArchive3N7z18CArchiveDatabaseExD2Ev(ptr noundef nonnull align 8 dereferenceable(696) %this) unnamed_addr #3 comdat align 2 {
entry:
  %FileIndexToFolderIndexMap = getelementptr inbounds %"struct.NArchive::N7z::CArchiveDatabaseEx", ptr %this, i64 0, i32 5
  tail call void @_ZN17CBaseRecordVectorD2Ev(ptr noundef nonnull align 8 dereferenceable(32) %FileIndexToFolderIndexMap) #21
  %FolderStartFileIndex = getelementptr inbounds %"struct.NArchive::N7z::CArchiveDatabaseEx", ptr %this, i64 0, i32 4
  tail call void @_ZN17CBaseRecordVectorD2Ev(ptr noundef nonnull align 8 dereferenceable(32) %FolderStartFileIndex) #21
  %FolderStartPackStreamIndex = getelementptr inbounds %"struct.NArchive::N7z::CArchiveDatabaseEx", ptr %this, i64 0, i32 3
  tail call void @_ZN17CBaseRecordVectorD2Ev(ptr noundef nonnull align 8 dereferenceable(32) %FolderStartPackStreamIndex) #21
  %PackStreamStartPositions = getelementptr inbounds %"struct.NArchive::N7z::CArchiveDatabaseEx", ptr %this, i64 0, i32 2
  tail call void @_ZN17CBaseRecordVectorD2Ev(ptr noundef nonnull align 8 dereferenceable(32) %PackStreamStartPositions) #21
  %FileInfoPopIDs.i = getelementptr inbounds %"struct.NArchive::N7z::CArchiveDatabaseEx", ptr %this, i64 0, i32 1, i32 5
  tail call void @_ZN17CBaseRecordVectorD2Ev(ptr noundef nonnull align 8 dereferenceable(32) %FileInfoPopIDs.i) #21
  tail call void @_ZN8NArchive3N7z16CArchiveDatabaseD2Ev(ptr noundef nonnull align 8 dereferenceable(480) %this) #21
  ret void
}

; Function Attrs: inlinehint nounwind uwtable
define linkonce_odr dso_local void @_ZN8NArchive11COutHandlerD2Ev(ptr noundef nonnull align 8 dereferenceable(100) %this) unnamed_addr #3 comdat align 2 personality ptr @__gxx_personality_v0 {
entry:
  %_methods = getelementptr inbounds %"class.NArchive::COutHandler", ptr %this, i64 0, i32 2
  store ptr getelementptr inbounds ({ [5 x ptr] }, ptr @_ZTV13CObjectVectorIN8NArchive14COneMethodInfoEE, i64 0, inrange i32 0, i64 2), ptr %_methods, align 8, !tbaa !12
  invoke void @_ZN17CBaseRecordVector5ClearEv(ptr noundef nonnull align 8 dereferenceable(32) %_methods)
          to label %_ZN13CObjectVectorIN8NArchive14COneMethodInfoEED2Ev.exit unwind label %terminate.lpad.i

terminate.lpad.i:                                 ; preds = %entry
  %0 = landingpad { ptr, i32 }
          catch ptr null
  %1 = extractvalue { ptr, i32 } %0, 0
  tail call void @__clang_call_terminate(ptr %1) #22
  unreachable

_ZN13CObjectVectorIN8NArchive14COneMethodInfoEED2Ev.exit: ; preds = %entry
  tail call void @_ZN17CBaseRecordVectorD2Ev(ptr noundef nonnull align 8 dereferenceable(32) %_methods) #21
  ret void
}

; Function Attrs: mustprogress nofree norecurse nosync nounwind willreturn memory(argmem: readwrite) uwtable
define dso_local noundef i32 @_ZN8NArchive3N7z8CHandler16GetNumberOfItemsEPj(ptr nocapture noundef nonnull readonly align 8 dereferenceable(912) %this, ptr nocapture noundef writeonly %numItems) unnamed_addr #4 align 2 {
entry:
  %_size.i = getelementptr inbounds %"class.NArchive::N7z::CHandler", ptr %this, i64 0, i32 6, i32 0, i32 5, i32 0, i32 0, i32 2
  %0 = load i32, ptr %_size.i, align 4, !tbaa !41
  store i32 %0, ptr %numItems, align 4, !tbaa !42
  ret i32 0
}

; Function Attrs: uwtable
define dso_local noundef i32 @_ZN8NArchive3N7z8CHandler18GetArchivePropertyEjP14tagPROPVARIANT(ptr nocapture noundef nonnull readonly align 8 dereferenceable(912) %this, i32 noundef %propID, ptr noundef %value) unnamed_addr #0 align 2 personality ptr @__gxx_personality_v0 {
entry:
  %prop = alloca %"class.NWindows::NCOM::CPropVariant", align 8
  %ids = alloca %class.CRecordVector.0, align 8
  %methodName = alloca %class.CStringBase, align 8
  %ref.tmp = alloca %class.CStringBase, align 8
  call void @llvm.lifetime.start.p0(i64 16, ptr nonnull %prop) #21
  store i16 0, ptr %prop, align 8, !tbaa !43
  %wReserved1.i = getelementptr inbounds %struct.tagPROPVARIANT, ptr %prop, i64 0, i32 1
  store i16 0, ptr %wReserved1.i, align 2, !tbaa !46
  switch i32 %propID, label %sw.epilog [
    i32 22, label %sw.bb
    i32 13, label %sw.bb71
    i32 38, label %sw.bb78
    i32 45, label %sw.bb85
    i32 44, label %sw.bb89
    i32 36, label %sw.bb93
  ]

sw.bb:                                            ; preds = %entry
  %call.i.i135 = invoke noalias noundef nonnull dereferenceable(16) ptr @_Znam(i64 noundef 16) #23
          to label %invoke.cont3 unwind label %lpad2

invoke.cont3:                                     ; preds = %sw.bb
  store i32 0, ptr %call.i.i135, align 4, !tbaa !47
  call void @llvm.lifetime.start.p0(i64 32, ptr nonnull %ids) #21
  %_capacity.i.i = getelementptr inbounds %class.CBaseRecordVector, ptr %ids, i64 0, i32 1
  %_itemSize.i.i = getelementptr inbounds %class.CBaseRecordVector, ptr %ids, i64 0, i32 4
  call void @llvm.memset.p0.i64(ptr noundef nonnull align 8 dereferenceable(16) %_capacity.i.i, i8 0, i64 16, i1 false)
  store i64 8, ptr %_itemSize.i.i, align 8, !tbaa !5
  store ptr getelementptr inbounds ({ [5 x ptr] }, ptr @_ZTV13CRecordVectorIyE, i64 0, inrange i32 0, i64 2), ptr %ids, align 8, !tbaa !12
  %_size.i = getelementptr inbounds %"class.NArchive::N7z::CHandler", ptr %this, i64 0, i32 6, i32 0, i32 3, i32 0, i32 0, i32 2
  %0 = load i32, ptr %_size.i, align 4, !tbaa !41
  %cmp264 = icmp sgt i32 %0, 0
  br i1 %cmp264, label %invoke.cont11.lr.ph, label %for.end61

invoke.cont11.lr.ph:                              ; preds = %invoke.cont3
  %_items.i.i = getelementptr inbounds %"class.NArchive::N7z::CHandler", ptr %this, i64 0, i32 6, i32 0, i32 3, i32 0, i32 0, i32 3
  %_size.i.i = getelementptr inbounds %class.CBaseRecordVector, ptr %ids, i64 0, i32 2
  %_items.i.i140 = getelementptr inbounds %class.CBaseRecordVector, ptr %ids, i64 0, i32 3
  br label %invoke.cont11

for.cond26.preheader:                             ; preds = %for.cond.cleanup
  %.pre288 = load i32, ptr %_size.i.i, align 4, !tbaa !41
  %_size.i143 = getelementptr inbounds %class.CBaseRecordVector, ptr %ids, i64 0, i32 2
  %cmp29266 = icmp sgt i32 %.pre288, 0
  br i1 %cmp29266, label %for.body30.lr.ph, label %for.end61

for.body30.lr.ph:                                 ; preds = %for.cond26.preheader
  %_items.i = getelementptr inbounds %class.CBaseRecordVector, ptr %ids, i64 0, i32 3
  %_capacity.i144 = getelementptr inbounds %class.CStringBase, ptr %methodName, i64 0, i32 2
  %_length.i = getelementptr inbounds %class.CStringBase, ptr %methodName, i64 0, i32 1
  %_length.i147 = getelementptr inbounds %class.CStringBase, ptr %ref.tmp, i64 0, i32 1
  %1 = getelementptr inbounds i8, ptr %methodName, i64 8
  br label %for.body30

invoke.cont11:                                    ; preds = %invoke.cont11.lr.ph, %for.cond.cleanup
  %2 = phi i32 [ %0, %invoke.cont11.lr.ph ], [ %7, %for.cond.cleanup ]
  %indvars.iv280 = phi i64 [ 0, %invoke.cont11.lr.ph ], [ %indvars.iv.next281, %for.cond.cleanup ]
  %3 = load ptr, ptr %_items.i.i, align 8, !tbaa !49
  %arrayidx.i.i = getelementptr inbounds ptr, ptr %3, i64 %indvars.iv280
  %4 = load ptr, ptr %arrayidx.i.i, align 8, !tbaa !50
  %_size.i136 = getelementptr inbounds %class.CBaseRecordVector, ptr %4, i64 0, i32 2
  %5 = load i32, ptr %_size.i136, align 4, !tbaa !41
  %cmp17262 = icmp sgt i32 %5, 0
  br i1 %cmp17262, label %invoke.cont20.lr.ph, label %for.cond.cleanup

invoke.cont20.lr.ph:                              ; preds = %invoke.cont11
  %_items.i.i137 = getelementptr inbounds %class.CBaseRecordVector, ptr %4, i64 0, i32 3
  %6 = zext i32 %5 to i64
  br label %invoke.cont20

for.cond.cleanup.loopexit:                        ; preds = %_ZN13CRecordVectorIyE17AddToUniqueSortedERKy.exit
  %.pre = load i32, ptr %_size.i, align 4, !tbaa !41
  br label %for.cond.cleanup

for.cond.cleanup:                                 ; preds = %for.cond.cleanup.loopexit, %invoke.cont11
  %7 = phi i32 [ %.pre, %for.cond.cleanup.loopexit ], [ %2, %invoke.cont11 ]
  %indvars.iv.next281 = add nuw nsw i64 %indvars.iv280, 1
  %8 = sext i32 %7 to i64
  %cmp = icmp slt i64 %indvars.iv.next281, %8
  br i1 %cmp, label %invoke.cont11, label %for.cond26.preheader, !llvm.loop !51

lpad2:                                            ; preds = %sw.bb
  %9 = landingpad { ptr, i32 }
          catch ptr @_ZTIPKc
          catch ptr null
  br label %ehcleanup105

lpad6:                                            ; preds = %for.end61
  %10 = landingpad { ptr, i32 }
          catch ptr @_ZTIPKc
          catch ptr null
  br label %ehcleanup66

ehcleanup66.thread:                               ; preds = %while.end.i
  %11 = landingpad { ptr, i32 }
          catch ptr @_ZTIPKc
          catch ptr null
  call void @_ZN17CBaseRecordVectorD2Ev(ptr noundef nonnull align 8 dereferenceable(32) %ids) #21
  call void @llvm.lifetime.end.p0(i64 32, ptr nonnull %ids) #21
  br label %delete.notnull.i220

invoke.cont20:                                    ; preds = %invoke.cont20.lr.ph, %_ZN13CRecordVectorIyE17AddToUniqueSortedERKy.exit
  %indvars.iv = phi i64 [ %6, %invoke.cont20.lr.ph ], [ %indvars.iv.next, %_ZN13CRecordVectorIyE17AddToUniqueSortedERKy.exit ]
  %indvars.iv.next = add nsw i64 %indvars.iv, -1
  %12 = load ptr, ptr %_items.i.i137, align 8, !tbaa !49
  %idxprom.i.i138 = and i64 %indvars.iv.next, 4294967295
  %arrayidx.i.i139 = getelementptr inbounds ptr, ptr %12, i64 %idxprom.i.i138
  %13 = load ptr, ptr %arrayidx.i.i139, align 8, !tbaa !50
  %14 = load i32, ptr %_size.i.i, align 4, !tbaa !41
  %15 = load ptr, ptr %_items.i.i140, align 8
  %16 = load i64, ptr %13, align 8
  br label %while.cond.i

while.cond.i:                                     ; preds = %while.body.i, %invoke.cont20
  %right.0.i = phi i32 [ %14, %invoke.cont20 ], [ %right.1.i, %while.body.i ]
  %left.0.i = phi i32 [ 0, %invoke.cont20 ], [ %left.1.i, %while.body.i ]
  %cmp.not.i = icmp eq i32 %left.0.i, %right.0.i
  br i1 %cmp.not.i, label %while.end.i, label %while.body.i

while.body.i:                                     ; preds = %while.cond.i
  %add.i = add nsw i32 %left.0.i, %right.0.i
  %div.i = sdiv i32 %add.i, 2
  %idxprom.i.i141 = sext i32 %div.i to i64
  %arrayidx.i.i142 = getelementptr inbounds i64, ptr %15, i64 %idxprom.i.i141
  %17 = load i64, ptr %arrayidx.i.i142, align 8, !tbaa !53
  %cmp3.not.i = icmp eq i64 %16, %17
  %cmp4.i = icmp ult i64 %16, %17
  %add6.i = add nsw i32 %div.i, 1
  %right.1.i = select i1 %cmp4.i, i32 %div.i, i32 %right.0.i
  %left.1.i = select i1 %cmp4.i, i32 %left.0.i, i32 %add6.i
  br i1 %cmp3.not.i, label %_ZN13CRecordVectorIyE17AddToUniqueSortedERKy.exit, label %while.cond.i, !llvm.loop !54

while.end.i:                                      ; preds = %while.cond.i
  invoke void @_ZN17CBaseRecordVector13InsertOneItemEi(ptr noundef nonnull align 8 dereferenceable(32) %ids, i32 noundef %right.0.i)
          to label %.noexc unwind label %ehcleanup66.thread

.noexc:                                           ; preds = %while.end.i
  %18 = load ptr, ptr %_items.i.i140, align 8, !tbaa !49
  %idxprom.i23.i = sext i32 %right.0.i to i64
  %arrayidx.i24.i = getelementptr inbounds i64, ptr %18, i64 %idxprom.i23.i
  store i64 %16, ptr %arrayidx.i24.i, align 8, !tbaa !53
  br label %_ZN13CRecordVectorIyE17AddToUniqueSortedERKy.exit

_ZN13CRecordVectorIyE17AddToUniqueSortedERKy.exit: ; preds = %while.body.i, %.noexc
  %cmp17 = icmp sgt i64 %indvars.iv, 1
  br i1 %cmp17, label %invoke.cont20, label %for.cond.cleanup.loopexit

for.body30:                                       ; preds = %for.body30.lr.ph, %_ZN11CStringBaseIwED2Ev.exit212
  %indvars.iv284 = phi i64 [ 0, %for.body30.lr.ph ], [ %indvars.iv.next285, %_ZN11CStringBaseIwED2Ev.exit212 ]
  %resString.sroa.21.0270 = phi i32 [ 4, %for.body30.lr.ph ], [ %resString.sroa.21.3, %_ZN11CStringBaseIwED2Ev.exit212 ]
  %resString.sroa.14.0269 = phi i32 [ 0, %for.body30.lr.ph ], [ %add.i173, %_ZN11CStringBaseIwED2Ev.exit212 ]
  %resString.sroa.0.0267 = phi ptr [ %call.i.i135, %for.body30.lr.ph ], [ %resString.sroa.0.4, %_ZN11CStringBaseIwED2Ev.exit212 ]
  %resString.sroa.0.0267308 = ptrtoint ptr %resString.sroa.0.0267 to i64
  %19 = load ptr, ptr %_items.i, align 8, !tbaa !49
  %arrayidx.i = getelementptr inbounds i64, ptr %19, i64 %indvars.iv284
  %20 = load i64, ptr %arrayidx.i, align 8, !tbaa !53
  call void @llvm.lifetime.start.p0(i64 16, ptr nonnull %methodName) #21
  store i64 0, ptr %1, align 8
  %call.i.i145 = invoke noalias noundef nonnull dereferenceable(16) ptr @_Znam(i64 noundef 16) #23
          to label %invoke.cont35 unwind label %lpad34

invoke.cont35:                                    ; preds = %for.body30
  store ptr %call.i.i145, ptr %methodName, align 8, !tbaa !55
  store i32 0, ptr %call.i.i145, align 4, !tbaa !47
  store i32 4, ptr %_capacity.i144, align 4, !tbaa !57
  %call38 = invoke noundef zeroext i1 @_Z10FindMethodyR11CStringBaseIwE(i64 noundef %20, ptr noundef nonnull align 8 dereferenceable(16) %methodName)
          to label %invoke.cont37 unwind label %lpad36

invoke.cont37:                                    ; preds = %invoke.cont35
  %21 = load i32, ptr %_length.i, align 8, !tbaa !58
  %cmp.i = icmp eq i32 %21, 0
  br i1 %cmp.i, label %if.then, label %if.end

if.then:                                          ; preds = %invoke.cont37
  call void @llvm.lifetime.start.p0(i64 16, ptr nonnull %ref.tmp) #21
  invoke void @_Z23ConvertMethodIdToStringy(ptr nonnull sret(%class.CStringBase) align 8 %ref.tmp, i64 noundef %20)
          to label %invoke.cont42 unwind label %lpad41

invoke.cont42:                                    ; preds = %if.then
  store i32 0, ptr %_length.i, align 8, !tbaa !58
  %22 = load ptr, ptr %methodName, align 8, !tbaa !55
  store i32 0, ptr %22, align 4, !tbaa !47
  %23 = load i32, ptr %_length.i147, align 8, !tbaa !58
  %add.i.i = add nsw i32 %23, 1
  %24 = load i32, ptr %_capacity.i144, align 4, !tbaa !57
  %cmp.i.i = icmp eq i32 %add.i.i, %24
  br i1 %cmp.i.i, label %_ZN11CStringBaseIwE11SetCapacityEi.exit.i, label %if.end.i.i

if.end.i.i:                                       ; preds = %invoke.cont42
  %conv.i.i = zext i32 %add.i.i to i64
  %25 = icmp slt i32 %23, -1
  %26 = shl nuw nsw i64 %conv.i.i, 2
  %27 = select i1 %25, i64 -1, i64 %26
  %call.i.i149 = invoke noalias noundef nonnull ptr @_Znam(i64 noundef %27) #23
          to label %call.i.i.noexc unwind label %lpad43

call.i.i.noexc:                                   ; preds = %if.end.i.i
  %cmp3.i.i = icmp sgt i32 %24, 0
  br i1 %cmp3.i.i, label %delete.notnull.i.i, label %if.end9.i.i

delete.notnull.i.i:                               ; preds = %call.i.i.noexc
  call void @_ZdaPv(ptr noundef nonnull %22) #24
  %.pre.i = load i32, ptr %_length.i, align 8, !tbaa !58
  %28 = sext i32 %.pre.i to i64
  br label %if.end9.i.i

if.end9.i.i:                                      ; preds = %delete.notnull.i.i, %call.i.i.noexc
  %idxprom13.i.i = phi i64 [ %28, %delete.notnull.i.i ], [ 0, %call.i.i.noexc ]
  store ptr %call.i.i149, ptr %methodName, align 8, !tbaa !55
  %arrayidx14.i.i = getelementptr inbounds i32, ptr %call.i.i149, i64 %idxprom13.i.i
  store i32 0, ptr %arrayidx14.i.i, align 4, !tbaa !47
  store i32 %add.i.i, ptr %_capacity.i144, align 4, !tbaa !57
  br label %_ZN11CStringBaseIwE11SetCapacityEi.exit.i

_ZN11CStringBaseIwE11SetCapacityEi.exit.i:        ; preds = %if.end9.i.i, %invoke.cont42
  %29 = phi ptr [ %22, %invoke.cont42 ], [ %call.i.i149, %if.end9.i.i ]
  %30 = load ptr, ptr %ref.tmp, align 8, !tbaa !55
  br label %while.cond.i.i

while.cond.i.i:                                   ; preds = %while.cond.i.i, %_ZN11CStringBaseIwE11SetCapacityEi.exit.i
  %src.addr.0.i.i = phi ptr [ %30, %_ZN11CStringBaseIwE11SetCapacityEi.exit.i ], [ %incdec.ptr.i.i, %while.cond.i.i ]
  %dest.addr.0.i.i = phi ptr [ %29, %_ZN11CStringBaseIwE11SetCapacityEi.exit.i ], [ %incdec.ptr1.i.i, %while.cond.i.i ]
  %incdec.ptr.i.i = getelementptr inbounds i32, ptr %src.addr.0.i.i, i64 1
  %31 = load i32, ptr %src.addr.0.i.i, align 4, !tbaa !47
  %incdec.ptr1.i.i = getelementptr inbounds i32, ptr %dest.addr.0.i.i, i64 1
  store i32 %31, ptr %dest.addr.0.i.i, align 4, !tbaa !47
  %cmp.not.i.i = icmp eq i32 %31, 0
  br i1 %cmp.not.i.i, label %invoke.cont44, label %while.cond.i.i, !llvm.loop !59

invoke.cont44:                                    ; preds = %while.cond.i.i
  %32 = load i32, ptr %_length.i147, align 8, !tbaa !58
  store i32 %32, ptr %_length.i, align 8, !tbaa !58
  %isnull.i = icmp eq ptr %30, null
  br i1 %isnull.i, label %_ZN11CStringBaseIwED2Ev.exit, label %delete.notnull.i

delete.notnull.i:                                 ; preds = %invoke.cont44
  call void @_ZdaPv(ptr noundef nonnull %30) #24
  br label %_ZN11CStringBaseIwED2Ev.exit

_ZN11CStringBaseIwED2Ev.exit:                     ; preds = %invoke.cont44, %delete.notnull.i
  call void @llvm.lifetime.end.p0(i64 16, ptr nonnull %ref.tmp) #21
  br label %if.end

lpad34:                                           ; preds = %for.body30
  %33 = landingpad { ptr, i32 }
          catch ptr @_ZTIPKc
          catch ptr null
  br label %ehcleanup57

lpad36:                                           ; preds = %if.end.i.i.i187, %if.end.i.i.i, %invoke.cont35
  %resString.sroa.0.1 = phi ptr [ %resString.sroa.0.3, %if.end.i.i.i187 ], [ %resString.sroa.0.0267, %if.end.i.i.i ], [ %resString.sroa.0.0267, %invoke.cont35 ]
  %34 = landingpad { ptr, i32 }
          catch ptr @_ZTIPKc
          catch ptr null
  br label %ehcleanup56

lpad41:                                           ; preds = %if.then
  %35 = landingpad { ptr, i32 }
          catch ptr @_ZTIPKc
          catch ptr null
  br label %ehcleanup47

lpad43:                                           ; preds = %if.end.i.i
  %36 = landingpad { ptr, i32 }
          catch ptr @_ZTIPKc
          catch ptr null
  %37 = load ptr, ptr %ref.tmp, align 8, !tbaa !55
  %isnull.i150 = icmp eq ptr %37, null
  br i1 %isnull.i150, label %ehcleanup47, label %delete.notnull.i151

delete.notnull.i151:                              ; preds = %lpad43
  call void @_ZdaPv(ptr noundef nonnull %37) #24
  br label %ehcleanup47

ehcleanup47:                                      ; preds = %delete.notnull.i151, %lpad43, %lpad41
  %.pn = phi { ptr, i32 } [ %35, %lpad41 ], [ %36, %lpad43 ], [ %36, %delete.notnull.i151 ]
  call void @llvm.lifetime.end.p0(i64 16, ptr nonnull %ref.tmp) #21
  br label %ehcleanup56

if.end:                                           ; preds = %_ZN11CStringBaseIwED2Ev.exit, %invoke.cont37
  %cmp.i154 = icmp eq i32 %resString.sroa.14.0269, 0
  br i1 %cmp.i154, label %if.end53, label %if.then50

if.then50:                                        ; preds = %if.end
  %38 = xor i32 %resString.sroa.14.0269, -1
  %sub2.i.i = add i32 %resString.sroa.21.0270, %38
  %cmp.not.i.i157 = icmp slt i32 %sub2.i.i, 1
  br i1 %cmp.not.i.i157, label %if.end.i.i160, label %_ZN11CStringBaseIwEpLEw.exit

if.end.i.i160:                                    ; preds = %if.then50
  %cmp4.i.i = icmp sgt i32 %resString.sroa.21.0270, 64
  %div24.i.i = lshr i32 %resString.sroa.21.0270, 1
  %cmp8.i.i = icmp sgt i32 %resString.sroa.21.0270, 8
  %..i.i = select i1 %cmp8.i.i, i32 16, i32 4
  %delta.0.i.i = select i1 %cmp4.i.i, i32 %div24.i.i, i32 %..i.i
  %add.i.i161 = add nsw i32 %delta.0.i.i, %sub2.i.i
  %cmp13.i.i = icmp slt i32 %add.i.i161, 1
  %sub15.i.i = sub nsw i32 1, %sub2.i.i
  %delta.1.i.i = select i1 %cmp13.i.i, i32 %sub15.i.i, i32 %delta.0.i.i
  %add18.i.i = add nsw i32 %delta.1.i.i, %resString.sroa.21.0270
  %add.i.i.i = add nsw i32 %add18.i.i, 1
  %cmp.i.i.i = icmp eq i32 %add.i.i.i, %resString.sroa.21.0270
  br i1 %cmp.i.i.i, label %_ZN11CStringBaseIwEpLEw.exit, label %if.end.i.i.i

if.end.i.i.i:                                     ; preds = %if.end.i.i160
  %conv.i.i.i = zext i32 %add.i.i.i to i64
  %39 = icmp slt i32 %add18.i.i, -1
  %40 = shl nuw nsw i64 %conv.i.i.i, 2
  %41 = select i1 %39, i64 -1, i64 %40
  %call.i.i.i162 = invoke noalias noundef nonnull ptr @_Znam(i64 noundef %41) #23
          to label %call.i.i.i.noexc unwind label %lpad36

call.i.i.i.noexc:                                 ; preds = %if.end.i.i.i
  %call.i.i.i162307 = ptrtoint ptr %call.i.i.i162 to i64
  %cmp3.i.i.i = icmp sgt i32 %resString.sroa.21.0270, 0
  br i1 %cmp3.i.i.i, label %for.cond.preheader.i.i.i, label %if.end9.i.i.i

for.cond.preheader.i.i.i:                         ; preds = %call.i.i.i.noexc
  %cmp522.i.i.i = icmp sgt i32 %resString.sroa.14.0269, 0
  br i1 %cmp522.i.i.i, label %for.body.lr.ph.i.i.i, label %for.cond.cleanup.i.i.i

for.body.lr.ph.i.i.i:                             ; preds = %for.cond.preheader.i.i.i
  %wide.trip.count.i.i.i = zext i32 %resString.sroa.14.0269 to i64
  %min.iters.check312 = icmp ult i32 %resString.sroa.14.0269, 8
  %42 = sub i64 %call.i.i.i162307, %resString.sroa.0.0267308
  %diff.check309 = icmp ult i64 %42, 32
  %or.cond = select i1 %min.iters.check312, i1 true, i1 %diff.check309
  br i1 %or.cond, label %for.body.i.i.i.preheader, label %vector.ph313

vector.ph313:                                     ; preds = %for.body.lr.ph.i.i.i
  %n.vec315 = and i64 %wide.trip.count.i.i.i, 4294967288
  br label %vector.body318

vector.body318:                                   ; preds = %vector.body318, %vector.ph313
  %index319 = phi i64 [ 0, %vector.ph313 ], [ %index.next322, %vector.body318 ]
  %43 = getelementptr inbounds i32, ptr %resString.sroa.0.0267, i64 %index319
  %wide.load320 = load <4 x i32>, ptr %43, align 4, !tbaa !47
  %44 = getelementptr inbounds i32, ptr %43, i64 4
  %wide.load321 = load <4 x i32>, ptr %44, align 4, !tbaa !47
  %45 = getelementptr inbounds i32, ptr %call.i.i.i162, i64 %index319
  store <4 x i32> %wide.load320, ptr %45, align 4, !tbaa !47
  %46 = getelementptr inbounds i32, ptr %45, i64 4
  store <4 x i32> %wide.load321, ptr %46, align 4, !tbaa !47
  %index.next322 = add nuw i64 %index319, 8
  %47 = icmp eq i64 %index.next322, %n.vec315
  br i1 %47, label %middle.block310, label %vector.body318, !llvm.loop !60

middle.block310:                                  ; preds = %vector.body318
  %cmp.n317 = icmp eq i64 %n.vec315, %wide.trip.count.i.i.i
  br i1 %cmp.n317, label %delete.notnull.i.i.i, label %for.body.i.i.i.preheader

for.body.i.i.i.preheader:                         ; preds = %for.body.lr.ph.i.i.i, %middle.block310
  %indvars.iv.i.i.i.ph = phi i64 [ 0, %for.body.lr.ph.i.i.i ], [ %n.vec315, %middle.block310 ]
  %48 = xor i64 %indvars.iv.i.i.i.ph, -1
  %49 = add nsw i64 %48, %wide.trip.count.i.i.i
  %xtraiter = and i64 %wide.trip.count.i.i.i, 3
  %lcmp.mod.not = icmp eq i64 %xtraiter, 0
  br i1 %lcmp.mod.not, label %for.body.i.i.i.prol.loopexit, label %for.body.i.i.i.prol

for.body.i.i.i.prol:                              ; preds = %for.body.i.i.i.preheader, %for.body.i.i.i.prol
  %indvars.iv.i.i.i.prol = phi i64 [ %indvars.iv.next.i.i.i.prol, %for.body.i.i.i.prol ], [ %indvars.iv.i.i.i.ph, %for.body.i.i.i.preheader ]
  %prol.iter = phi i64 [ %prol.iter.next, %for.body.i.i.i.prol ], [ 0, %for.body.i.i.i.preheader ]
  %arrayidx.i.i.i.prol = getelementptr inbounds i32, ptr %resString.sroa.0.0267, i64 %indvars.iv.i.i.i.prol
  %50 = load i32, ptr %arrayidx.i.i.i.prol, align 4, !tbaa !47
  %arrayidx7.i.i.i.prol = getelementptr inbounds i32, ptr %call.i.i.i162, i64 %indvars.iv.i.i.i.prol
  store i32 %50, ptr %arrayidx7.i.i.i.prol, align 4, !tbaa !47
  %indvars.iv.next.i.i.i.prol = add nuw nsw i64 %indvars.iv.i.i.i.prol, 1
  %prol.iter.next = add i64 %prol.iter, 1
  %prol.iter.cmp.not = icmp eq i64 %prol.iter.next, %xtraiter
  br i1 %prol.iter.cmp.not, label %for.body.i.i.i.prol.loopexit, label %for.body.i.i.i.prol, !llvm.loop !63

for.body.i.i.i.prol.loopexit:                     ; preds = %for.body.i.i.i.prol, %for.body.i.i.i.preheader
  %indvars.iv.i.i.i.unr = phi i64 [ %indvars.iv.i.i.i.ph, %for.body.i.i.i.preheader ], [ %indvars.iv.next.i.i.i.prol, %for.body.i.i.i.prol ]
  %51 = icmp ult i64 %49, 3
  br i1 %51, label %delete.notnull.i.i.i, label %for.body.i.i.i

for.cond.cleanup.i.i.i:                           ; preds = %for.cond.preheader.i.i.i
  %isnull.i.i.i = icmp eq ptr %resString.sroa.0.0267, null
  br i1 %isnull.i.i.i, label %if.end9.i.i.i, label %delete.notnull.i.i.i

for.body.i.i.i:                                   ; preds = %for.body.i.i.i.prol.loopexit, %for.body.i.i.i
  %indvars.iv.i.i.i = phi i64 [ %indvars.iv.next.i.i.i.3, %for.body.i.i.i ], [ %indvars.iv.i.i.i.unr, %for.body.i.i.i.prol.loopexit ]
  %arrayidx.i.i.i = getelementptr inbounds i32, ptr %resString.sroa.0.0267, i64 %indvars.iv.i.i.i
  %52 = load i32, ptr %arrayidx.i.i.i, align 4, !tbaa !47
  %arrayidx7.i.i.i = getelementptr inbounds i32, ptr %call.i.i.i162, i64 %indvars.iv.i.i.i
  store i32 %52, ptr %arrayidx7.i.i.i, align 4, !tbaa !47
  %indvars.iv.next.i.i.i = add nuw nsw i64 %indvars.iv.i.i.i, 1
  %arrayidx.i.i.i.1 = getelementptr inbounds i32, ptr %resString.sroa.0.0267, i64 %indvars.iv.next.i.i.i
  %53 = load i32, ptr %arrayidx.i.i.i.1, align 4, !tbaa !47
  %arrayidx7.i.i.i.1 = getelementptr inbounds i32, ptr %call.i.i.i162, i64 %indvars.iv.next.i.i.i
  store i32 %53, ptr %arrayidx7.i.i.i.1, align 4, !tbaa !47
  %indvars.iv.next.i.i.i.1 = add nuw nsw i64 %indvars.iv.i.i.i, 2
  %arrayidx.i.i.i.2 = getelementptr inbounds i32, ptr %resString.sroa.0.0267, i64 %indvars.iv.next.i.i.i.1
  %54 = load i32, ptr %arrayidx.i.i.i.2, align 4, !tbaa !47
  %arrayidx7.i.i.i.2 = getelementptr inbounds i32, ptr %call.i.i.i162, i64 %indvars.iv.next.i.i.i.1
  store i32 %54, ptr %arrayidx7.i.i.i.2, align 4, !tbaa !47
  %indvars.iv.next.i.i.i.2 = add nuw nsw i64 %indvars.iv.i.i.i, 3
  %arrayidx.i.i.i.3 = getelementptr inbounds i32, ptr %resString.sroa.0.0267, i64 %indvars.iv.next.i.i.i.2
  %55 = load i32, ptr %arrayidx.i.i.i.3, align 4, !tbaa !47
  %arrayidx7.i.i.i.3 = getelementptr inbounds i32, ptr %call.i.i.i162, i64 %indvars.iv.next.i.i.i.2
  store i32 %55, ptr %arrayidx7.i.i.i.3, align 4, !tbaa !47
  %indvars.iv.next.i.i.i.3 = add nuw nsw i64 %indvars.iv.i.i.i, 4
  %exitcond.not.i.i.i.3 = icmp eq i64 %indvars.iv.next.i.i.i.3, %wide.trip.count.i.i.i
  br i1 %exitcond.not.i.i.i.3, label %delete.notnull.i.i.i, label %for.body.i.i.i, !llvm.loop !65

delete.notnull.i.i.i:                             ; preds = %for.body.i.i.i.prol.loopexit, %for.body.i.i.i, %middle.block310, %for.cond.cleanup.i.i.i
  call void @_ZdaPv(ptr noundef nonnull %resString.sroa.0.0267) #24
  br label %if.end9.i.i.i

if.end9.i.i.i:                                    ; preds = %delete.notnull.i.i.i, %for.cond.cleanup.i.i.i, %call.i.i.i.noexc
  %idxprom13.i.i.i = sext i32 %resString.sroa.14.0269 to i64
  %arrayidx14.i.i.i = getelementptr inbounds i32, ptr %call.i.i.i162, i64 %idxprom13.i.i.i
  store i32 0, ptr %arrayidx14.i.i.i, align 4, !tbaa !47
  br label %_ZN11CStringBaseIwEpLEw.exit

_ZN11CStringBaseIwEpLEw.exit:                     ; preds = %if.then50, %if.end.i.i160, %if.end9.i.i.i
  %resString.sroa.0.2 = phi ptr [ %resString.sroa.0.0267, %if.end.i.i160 ], [ %call.i.i.i162, %if.end9.i.i.i ], [ %resString.sroa.0.0267, %if.then50 ]
  %resString.sroa.21.1 = phi i32 [ %resString.sroa.21.0270, %if.end.i.i160 ], [ %add.i.i.i, %if.end9.i.i.i ], [ %resString.sroa.21.0270, %if.then50 ]
  %idxprom.i158 = sext i32 %resString.sroa.14.0269 to i64
  %arrayidx.i159 = getelementptr inbounds i32, ptr %resString.sroa.0.2, i64 %idxprom.i158
  store i32 32, ptr %arrayidx.i159, align 4, !tbaa !47
  %inc.i = add nsw i32 %resString.sroa.14.0269, 1
  %idxprom4.i = sext i32 %inc.i to i64
  %arrayidx5.i = getelementptr inbounds i32, ptr %resString.sroa.0.2, i64 %idxprom4.i
  store i32 0, ptr %arrayidx5.i, align 4, !tbaa !47
  br label %if.end53

if.end53:                                         ; preds = %_ZN11CStringBaseIwEpLEw.exit, %if.end
  %resString.sroa.0.3 = phi ptr [ %resString.sroa.0.0267, %if.end ], [ %resString.sroa.0.2, %_ZN11CStringBaseIwEpLEw.exit ]
  %resString.sroa.14.1 = phi i32 [ 0, %if.end ], [ %inc.i, %_ZN11CStringBaseIwEpLEw.exit ]
  %resString.sroa.21.2 = phi i32 [ %resString.sroa.21.0270, %if.end ], [ %resString.sroa.21.1, %_ZN11CStringBaseIwEpLEw.exit ]
  %resString.sroa.0.3304 = ptrtoint ptr %resString.sroa.0.3 to i64
  %56 = load i32, ptr %_length.i, align 8, !tbaa !58
  %57 = xor i32 %resString.sroa.14.1, -1
  %sub2.i.i166 = add i32 %resString.sroa.21.2, %57
  %cmp.not.i.i167 = icmp slt i32 %sub2.i.i166, %56
  br i1 %cmp.not.i.i167, label %if.end.i.i174, label %_ZN11CStringBaseIwE10GrowLengthEi.exit.i

if.end.i.i174:                                    ; preds = %if.end53
  %cmp4.i.i175 = icmp sgt i32 %resString.sroa.21.2, 64
  %div24.i.i176 = lshr i32 %resString.sroa.21.2, 1
  %cmp8.i.i177 = icmp sgt i32 %resString.sroa.21.2, 8
  %..i.i178 = select i1 %cmp8.i.i177, i32 16, i32 4
  %delta.0.i.i179 = select i1 %cmp4.i.i175, i32 %div24.i.i176, i32 %..i.i178
  %add.i.i180 = add nsw i32 %delta.0.i.i179, %sub2.i.i166
  %cmp13.i.i181 = icmp slt i32 %add.i.i180, %56
  %sub15.i.i182 = sub nsw i32 %56, %sub2.i.i166
  %delta.1.i.i183 = select i1 %cmp13.i.i181, i32 %sub15.i.i182, i32 %delta.0.i.i179
  %add18.i.i184 = add nsw i32 %delta.1.i.i183, %resString.sroa.21.2
  %add.i.i.i185 = add nsw i32 %add18.i.i184, 1
  %cmp.i.i.i186 = icmp eq i32 %add.i.i.i185, %resString.sroa.21.2
  br i1 %cmp.i.i.i186, label %_ZN11CStringBaseIwE10GrowLengthEi.exit.i, label %if.end.i.i.i187

if.end.i.i.i187:                                  ; preds = %if.end.i.i174
  %conv.i.i.i188 = zext i32 %add.i.i.i185 to i64
  %58 = icmp slt i32 %add18.i.i184, -1
  %59 = shl nuw nsw i64 %conv.i.i.i188, 2
  %60 = select i1 %58, i64 -1, i64 %59
  %call.i.i.i209 = invoke noalias noundef nonnull ptr @_Znam(i64 noundef %60) #23
          to label %call.i.i.i.noexc208 unwind label %lpad36

call.i.i.i.noexc208:                              ; preds = %if.end.i.i.i187
  %call.i.i.i209303 = ptrtoint ptr %call.i.i.i209 to i64
  %cmp3.i.i.i189 = icmp sgt i32 %resString.sroa.21.2, 0
  br i1 %cmp3.i.i.i189, label %for.cond.preheader.i.i.i193, label %if.end9.i.i.i190

for.cond.preheader.i.i.i193:                      ; preds = %call.i.i.i.noexc208
  %cmp522.i.i.i194 = icmp sgt i32 %resString.sroa.14.1, 0
  br i1 %cmp522.i.i.i194, label %for.body.lr.ph.i.i.i200, label %for.cond.cleanup.i.i.i196

for.body.lr.ph.i.i.i200:                          ; preds = %for.cond.preheader.i.i.i193
  %wide.trip.count.i.i.i201 = zext i32 %resString.sroa.14.1 to i64
  %min.iters.check = icmp ult i32 %resString.sroa.14.1, 8
  %61 = sub i64 %call.i.i.i209303, %resString.sroa.0.3304
  %diff.check = icmp ult i64 %61, 32
  %or.cond323 = select i1 %min.iters.check, i1 true, i1 %diff.check
  br i1 %or.cond323, label %for.body.i.i.i202.preheader, label %vector.ph

vector.ph:                                        ; preds = %for.body.lr.ph.i.i.i200
  %n.vec = and i64 %wide.trip.count.i.i.i201, 4294967288
  br label %vector.body

vector.body:                                      ; preds = %vector.body, %vector.ph
  %index = phi i64 [ 0, %vector.ph ], [ %index.next, %vector.body ]
  %62 = getelementptr inbounds i32, ptr %resString.sroa.0.3, i64 %index
  %wide.load = load <4 x i32>, ptr %62, align 4, !tbaa !47
  %63 = getelementptr inbounds i32, ptr %62, i64 4
  %wide.load305 = load <4 x i32>, ptr %63, align 4, !tbaa !47
  %64 = getelementptr inbounds i32, ptr %call.i.i.i209, i64 %index
  store <4 x i32> %wide.load, ptr %64, align 4, !tbaa !47
  %65 = getelementptr inbounds i32, ptr %64, i64 4
  store <4 x i32> %wide.load305, ptr %65, align 4, !tbaa !47
  %index.next = add nuw i64 %index, 8
  %66 = icmp eq i64 %index.next, %n.vec
  br i1 %66, label %middle.block, label %vector.body, !llvm.loop !66

middle.block:                                     ; preds = %vector.body
  %cmp.n = icmp eq i64 %n.vec, %wide.trip.count.i.i.i201
  br i1 %cmp.n, label %delete.notnull.i.i.i198, label %for.body.i.i.i202.preheader

for.body.i.i.i202.preheader:                      ; preds = %for.body.lr.ph.i.i.i200, %middle.block
  %indvars.iv.i.i.i203.ph = phi i64 [ 0, %for.body.lr.ph.i.i.i200 ], [ %n.vec, %middle.block ]
  %67 = xor i64 %indvars.iv.i.i.i203.ph, -1
  %68 = add nsw i64 %67, %wide.trip.count.i.i.i201
  %xtraiter330 = and i64 %wide.trip.count.i.i.i201, 3
  %lcmp.mod331.not = icmp eq i64 %xtraiter330, 0
  br i1 %lcmp.mod331.not, label %for.body.i.i.i202.prol.loopexit, label %for.body.i.i.i202.prol

for.body.i.i.i202.prol:                           ; preds = %for.body.i.i.i202.preheader, %for.body.i.i.i202.prol
  %indvars.iv.i.i.i203.prol = phi i64 [ %indvars.iv.next.i.i.i206.prol, %for.body.i.i.i202.prol ], [ %indvars.iv.i.i.i203.ph, %for.body.i.i.i202.preheader ]
  %prol.iter332 = phi i64 [ %prol.iter332.next, %for.body.i.i.i202.prol ], [ 0, %for.body.i.i.i202.preheader ]
  %arrayidx.i.i.i204.prol = getelementptr inbounds i32, ptr %resString.sroa.0.3, i64 %indvars.iv.i.i.i203.prol
  %69 = load i32, ptr %arrayidx.i.i.i204.prol, align 4, !tbaa !47
  %arrayidx7.i.i.i205.prol = getelementptr inbounds i32, ptr %call.i.i.i209, i64 %indvars.iv.i.i.i203.prol
  store i32 %69, ptr %arrayidx7.i.i.i205.prol, align 4, !tbaa !47
  %indvars.iv.next.i.i.i206.prol = add nuw nsw i64 %indvars.iv.i.i.i203.prol, 1
  %prol.iter332.next = add i64 %prol.iter332, 1
  %prol.iter332.cmp.not = icmp eq i64 %prol.iter332.next, %xtraiter330
  br i1 %prol.iter332.cmp.not, label %for.body.i.i.i202.prol.loopexit, label %for.body.i.i.i202.prol, !llvm.loop !67

for.body.i.i.i202.prol.loopexit:                  ; preds = %for.body.i.i.i202.prol, %for.body.i.i.i202.preheader
  %indvars.iv.i.i.i203.unr = phi i64 [ %indvars.iv.i.i.i203.ph, %for.body.i.i.i202.preheader ], [ %indvars.iv.next.i.i.i206.prol, %for.body.i.i.i202.prol ]
  %70 = icmp ult i64 %68, 3
  br i1 %70, label %delete.notnull.i.i.i198, label %for.body.i.i.i202

for.cond.cleanup.i.i.i196:                        ; preds = %for.cond.preheader.i.i.i193
  %isnull.i.i.i197 = icmp eq ptr %resString.sroa.0.3, null
  br i1 %isnull.i.i.i197, label %if.end9.i.i.i190, label %delete.notnull.i.i.i198

for.body.i.i.i202:                                ; preds = %for.body.i.i.i202.prol.loopexit, %for.body.i.i.i202
  %indvars.iv.i.i.i203 = phi i64 [ %indvars.iv.next.i.i.i206.3, %for.body.i.i.i202 ], [ %indvars.iv.i.i.i203.unr, %for.body.i.i.i202.prol.loopexit ]
  %arrayidx.i.i.i204 = getelementptr inbounds i32, ptr %resString.sroa.0.3, i64 %indvars.iv.i.i.i203
  %71 = load i32, ptr %arrayidx.i.i.i204, align 4, !tbaa !47
  %arrayidx7.i.i.i205 = getelementptr inbounds i32, ptr %call.i.i.i209, i64 %indvars.iv.i.i.i203
  store i32 %71, ptr %arrayidx7.i.i.i205, align 4, !tbaa !47
  %indvars.iv.next.i.i.i206 = add nuw nsw i64 %indvars.iv.i.i.i203, 1
  %arrayidx.i.i.i204.1 = getelementptr inbounds i32, ptr %resString.sroa.0.3, i64 %indvars.iv.next.i.i.i206
  %72 = load i32, ptr %arrayidx.i.i.i204.1, align 4, !tbaa !47
  %arrayidx7.i.i.i205.1 = getelementptr inbounds i32, ptr %call.i.i.i209, i64 %indvars.iv.next.i.i.i206
  store i32 %72, ptr %arrayidx7.i.i.i205.1, align 4, !tbaa !47
  %indvars.iv.next.i.i.i206.1 = add nuw nsw i64 %indvars.iv.i.i.i203, 2
  %arrayidx.i.i.i204.2 = getelementptr inbounds i32, ptr %resString.sroa.0.3, i64 %indvars.iv.next.i.i.i206.1
  %73 = load i32, ptr %arrayidx.i.i.i204.2, align 4, !tbaa !47
  %arrayidx7.i.i.i205.2 = getelementptr inbounds i32, ptr %call.i.i.i209, i64 %indvars.iv.next.i.i.i206.1
  store i32 %73, ptr %arrayidx7.i.i.i205.2, align 4, !tbaa !47
  %indvars.iv.next.i.i.i206.2 = add nuw nsw i64 %indvars.iv.i.i.i203, 3
  %arrayidx.i.i.i204.3 = getelementptr inbounds i32, ptr %resString.sroa.0.3, i64 %indvars.iv.next.i.i.i206.2
  %74 = load i32, ptr %arrayidx.i.i.i204.3, align 4, !tbaa !47
  %arrayidx7.i.i.i205.3 = getelementptr inbounds i32, ptr %call.i.i.i209, i64 %indvars.iv.next.i.i.i206.2
  store i32 %74, ptr %arrayidx7.i.i.i205.3, align 4, !tbaa !47
  %indvars.iv.next.i.i.i206.3 = add nuw nsw i64 %indvars.iv.i.i.i203, 4
  %exitcond.not.i.i.i207.3 = icmp eq i64 %indvars.iv.next.i.i.i206.3, %wide.trip.count.i.i.i201
  br i1 %exitcond.not.i.i.i207.3, label %delete.notnull.i.i.i198, label %for.body.i.i.i202, !llvm.loop !68

delete.notnull.i.i.i198:                          ; preds = %for.body.i.i.i202.prol.loopexit, %for.body.i.i.i202, %middle.block, %for.cond.cleanup.i.i.i196
  call void @_ZdaPv(ptr noundef nonnull %resString.sroa.0.3) #24
  br label %if.end9.i.i.i190

if.end9.i.i.i190:                                 ; preds = %delete.notnull.i.i.i198, %for.cond.cleanup.i.i.i196, %call.i.i.i.noexc208
  %idxprom13.i.i.i191 = sext i32 %resString.sroa.14.1 to i64
  %arrayidx14.i.i.i192 = getelementptr inbounds i32, ptr %call.i.i.i209, i64 %idxprom13.i.i.i191
  store i32 0, ptr %arrayidx14.i.i.i192, align 4, !tbaa !47
  br label %_ZN11CStringBaseIwE10GrowLengthEi.exit.i

_ZN11CStringBaseIwE10GrowLengthEi.exit.i:         ; preds = %if.end9.i.i.i190, %if.end.i.i174, %if.end53
  %resString.sroa.0.4 = phi ptr [ %resString.sroa.0.3, %if.end.i.i174 ], [ %call.i.i.i209, %if.end9.i.i.i190 ], [ %resString.sroa.0.3, %if.end53 ]
  %resString.sroa.21.3 = phi i32 [ %resString.sroa.21.2, %if.end.i.i174 ], [ %add.i.i.i185, %if.end9.i.i.i190 ], [ %resString.sroa.21.2, %if.end53 ]
  %idx.ext.i = sext i32 %resString.sroa.14.1 to i64
  %add.ptr.i = getelementptr inbounds i32, ptr %resString.sroa.0.4, i64 %idx.ext.i
  %75 = load ptr, ptr %methodName, align 8, !tbaa !55
  br label %while.cond.i.i168

while.cond.i.i168:                                ; preds = %while.cond.i.i168, %_ZN11CStringBaseIwE10GrowLengthEi.exit.i
  %src.addr.0.i.i169 = phi ptr [ %75, %_ZN11CStringBaseIwE10GrowLengthEi.exit.i ], [ %incdec.ptr.i.i171, %while.cond.i.i168 ]
  %dest.addr.0.i.i170 = phi ptr [ %add.ptr.i, %_ZN11CStringBaseIwE10GrowLengthEi.exit.i ], [ %incdec.ptr1.i.i172, %while.cond.i.i168 ]
  %incdec.ptr.i.i171 = getelementptr inbounds i32, ptr %src.addr.0.i.i169, i64 1
  %76 = load i32, ptr %src.addr.0.i.i169, align 4, !tbaa !47
  %incdec.ptr1.i.i172 = getelementptr inbounds i32, ptr %dest.addr.0.i.i170, i64 1
  store i32 %76, ptr %dest.addr.0.i.i170, align 4, !tbaa !47
  %cmp.not.i8.i = icmp eq i32 %76, 0
  br i1 %cmp.not.i8.i, label %invoke.cont54, label %while.cond.i.i168, !llvm.loop !59

invoke.cont54:                                    ; preds = %while.cond.i.i168
  %77 = load i32, ptr %_length.i, align 8, !tbaa !58
  %add.i173 = add nsw i32 %77, %resString.sroa.14.1
  %isnull.i210 = icmp eq ptr %75, null
  br i1 %isnull.i210, label %_ZN11CStringBaseIwED2Ev.exit212, label %delete.notnull.i211

delete.notnull.i211:                              ; preds = %invoke.cont54
  call void @_ZdaPv(ptr noundef nonnull %75) #24
  br label %_ZN11CStringBaseIwED2Ev.exit212

_ZN11CStringBaseIwED2Ev.exit212:                  ; preds = %invoke.cont54, %delete.notnull.i211
  call void @llvm.lifetime.end.p0(i64 16, ptr nonnull %methodName) #21
  %indvars.iv.next285 = add nuw nsw i64 %indvars.iv284, 1
  %78 = load i32, ptr %_size.i143, align 4, !tbaa !41
  %79 = sext i32 %78 to i64
  %cmp29 = icmp slt i64 %indvars.iv.next285, %79
  br i1 %cmp29, label %for.body30, label %for.end61, !llvm.loop !69

ehcleanup56:                                      ; preds = %ehcleanup47, %lpad36
  %resString.sroa.0.5 = phi ptr [ %resString.sroa.0.1, %lpad36 ], [ %resString.sroa.0.0267, %ehcleanup47 ]
  %.pn126 = phi { ptr, i32 } [ %34, %lpad36 ], [ %.pn, %ehcleanup47 ]
  %80 = load ptr, ptr %methodName, align 8, !tbaa !55
  %isnull.i213 = icmp eq ptr %80, null
  br i1 %isnull.i213, label %ehcleanup57, label %delete.notnull.i214

delete.notnull.i214:                              ; preds = %ehcleanup56
  call void @_ZdaPv(ptr noundef nonnull %80) #24
  br label %ehcleanup57

ehcleanup57:                                      ; preds = %delete.notnull.i214, %ehcleanup56, %lpad34
  %resString.sroa.0.6 = phi ptr [ %resString.sroa.0.0267, %lpad34 ], [ %resString.sroa.0.5, %ehcleanup56 ], [ %resString.sroa.0.5, %delete.notnull.i214 ]
  %.pn126.pn = phi { ptr, i32 } [ %33, %lpad34 ], [ %.pn126, %ehcleanup56 ], [ %.pn126, %delete.notnull.i214 ]
  call void @llvm.lifetime.end.p0(i64 16, ptr nonnull %methodName) #21
  br label %ehcleanup66

for.end61:                                        ; preds = %_ZN11CStringBaseIwED2Ev.exit212, %invoke.cont3, %for.cond26.preheader
  %resString.sroa.0.0.lcssa = phi ptr [ %call.i.i135, %for.cond26.preheader ], [ %call.i.i135, %invoke.cont3 ], [ %resString.sroa.0.4, %_ZN11CStringBaseIwED2Ev.exit212 ]
  %call65 = invoke noundef nonnull align 8 dereferenceable(16) ptr @_ZN8NWindows4NCOM12CPropVariantaSEPKw(ptr noundef nonnull align 8 dereferenceable(16) %prop, ptr noundef %resString.sroa.0.0.lcssa)
          to label %invoke.cont64 unwind label %lpad6

invoke.cont64:                                    ; preds = %for.end61
  call void @_ZN17CBaseRecordVectorD2Ev(ptr noundef nonnull align 8 dereferenceable(32) %ids) #21
  call void @llvm.lifetime.end.p0(i64 32, ptr nonnull %ids) #21
  %isnull.i216 = icmp eq ptr %resString.sroa.0.0.lcssa, null
  br i1 %isnull.i216, label %sw.epilog, label %delete.notnull.i217

delete.notnull.i217:                              ; preds = %invoke.cont64
  call void @_ZdaPv(ptr noundef nonnull %resString.sroa.0.0.lcssa) #24
  br label %sw.epilog

ehcleanup66:                                      ; preds = %ehcleanup57, %lpad6
  %resString.sroa.0.7 = phi ptr [ %resString.sroa.0.6, %ehcleanup57 ], [ %resString.sroa.0.0.lcssa, %lpad6 ]
  %.pn129.pn = phi { ptr, i32 } [ %.pn126.pn, %ehcleanup57 ], [ %10, %lpad6 ]
  call void @_ZN17CBaseRecordVectorD2Ev(ptr noundef nonnull align 8 dereferenceable(32) %ids) #21
  call void @llvm.lifetime.end.p0(i64 32, ptr nonnull %ids) #21
  %isnull.i219 = icmp eq ptr %resString.sroa.0.7, null
  br i1 %isnull.i219, label %ehcleanup105, label %delete.notnull.i220

delete.notnull.i220:                              ; preds = %ehcleanup66.thread, %ehcleanup66
  %.pn129.pn246 = phi { ptr, i32 } [ %11, %ehcleanup66.thread ], [ %.pn129.pn, %ehcleanup66 ]
  %resString.sroa.0.7245 = phi ptr [ %call.i.i135, %ehcleanup66.thread ], [ %resString.sroa.0.7, %ehcleanup66 ]
  call void @_ZdaPv(ptr noundef nonnull %resString.sroa.0.7245) #24
  br label %ehcleanup105

sw.bb71:                                          ; preds = %entry
  %_size.i.i222 = getelementptr inbounds %"class.NArchive::N7z::CHandler", ptr %this, i64 0, i32 6, i32 0, i32 4, i32 0, i32 2
  %81 = load i32, ptr %_size.i.i222, align 4, !tbaa !41
  %cmp.not7.i = icmp sgt i32 %81, 0
  br i1 %cmp.not7.i, label %for.body.lr.ph.i, label %invoke.cont74

for.body.lr.ph.i:                                 ; preds = %sw.bb71
  %_items.i.i223 = getelementptr inbounds %"class.NArchive::N7z::CHandler", ptr %this, i64 0, i32 6, i32 0, i32 4, i32 0, i32 3
  %82 = load ptr, ptr %_items.i.i223, align 8, !tbaa !49
  %83 = zext i32 %81 to i64
  %84 = load i32, ptr %82, align 4, !tbaa !42
  %cmp4.i225258 = icmp ugt i32 %84, 1
  br i1 %cmp4.i225258, label %invoke.cont74, label %for.cond.i

for.cond.i:                                       ; preds = %for.body.lr.ph.i, %for.body.i
  %indvars.iv.i259 = phi i64 [ %indvars.iv.next.i, %for.body.i ], [ 0, %for.body.lr.ph.i ]
  %indvars.iv.next.i = add nuw nsw i64 %indvars.iv.i259, 1
  %exitcond.not.i = icmp eq i64 %indvars.iv.next.i, %83
  br i1 %exitcond.not.i, label %invoke.cont74.loopexit, label %for.body.i, !llvm.loop !70

for.body.i:                                       ; preds = %for.cond.i
  %arrayidx.i.i224 = getelementptr inbounds i32, ptr %82, i64 %indvars.iv.next.i
  %85 = load i32, ptr %arrayidx.i.i224, align 4, !tbaa !42
  %cmp4.i225 = icmp ugt i32 %85, 1
  br i1 %cmp4.i225, label %invoke.cont74.loopexit, label %for.cond.i, !llvm.loop !70

invoke.cont74.loopexit:                           ; preds = %for.body.i, %for.cond.i
  %cmp.not.i226.le = icmp ult i64 %indvars.iv.next.i, %83
  br label %invoke.cont74

invoke.cont74:                                    ; preds = %invoke.cont74.loopexit, %for.body.lr.ph.i, %sw.bb71
  %cmp.not.lcssa.i = phi i1 [ false, %sw.bb71 ], [ true, %for.body.lr.ph.i ], [ %cmp.not.i226.le, %invoke.cont74.loopexit ]
  %call77 = invoke noundef nonnull align 8 dereferenceable(16) ptr @_ZN8NWindows4NCOM12CPropVariantaSEb(ptr noundef nonnull align 8 dereferenceable(16) %prop, i1 noundef zeroext %cmp.not.lcssa.i)
          to label %sw.epilog unwind label %lpad73

lpad73:                                           ; preds = %if.then96.invoke, %sw.epilog, %sw.bb78, %invoke.cont74
  %86 = landingpad { ptr, i32 }
          catch ptr @_ZTIPKc
          catch ptr null
  br label %ehcleanup105

sw.bb78:                                          ; preds = %entry
  %_size.i227 = getelementptr inbounds %"class.NArchive::N7z::CHandler", ptr %this, i64 0, i32 6, i32 0, i32 3, i32 0, i32 0, i32 2
  %87 = load i32, ptr %_size.i227, align 4, !tbaa !41
  %call84 = invoke noundef nonnull align 8 dereferenceable(16) ptr @_ZN8NWindows4NCOM12CPropVariantaSEj(ptr noundef nonnull align 8 dereferenceable(16) %prop, i32 noundef %87)
          to label %sw.epilog unwind label %lpad73

sw.bb85:                                          ; preds = %entry
  %HeadersSize = getelementptr inbounds %"class.NArchive::N7z::CHandler", ptr %this, i64 0, i32 6, i32 6
  %88 = load i64, ptr %HeadersSize, align 8, !tbaa !71
  br label %if.then96.invoke

sw.bb89:                                          ; preds = %entry
  %PhySize = getelementptr inbounds %"class.NArchive::N7z::CHandler", ptr %this, i64 0, i32 6, i32 7
  %89 = load i64, ptr %PhySize, align 8, !tbaa !72
  br label %if.then96.invoke

sw.bb93:                                          ; preds = %entry
  %StartPosition = getelementptr inbounds %"class.NArchive::N7z::CHandler", ptr %this, i64 0, i32 6, i32 1, i32 1
  %90 = load i64, ptr %StartPosition, align 8, !tbaa !73
  %cmp95.not = icmp eq i64 %90, 0
  br i1 %cmp95.not, label %sw.epilog, label %if.then96.invoke

if.then96.invoke:                                 ; preds = %sw.bb93, %sw.bb85, %sw.bb89
  %91 = phi i64 [ %89, %sw.bb89 ], [ %88, %sw.bb85 ], [ %90, %sw.bb93 ]
  %92 = invoke noundef nonnull align 8 dereferenceable(16) ptr @_ZN8NWindows4NCOM12CPropVariantaSEy(ptr noundef nonnull align 8 dereferenceable(16) %prop, i64 noundef %91)
          to label %sw.epilog unwind label %lpad73

sw.epilog:                                        ; preds = %if.then96.invoke, %delete.notnull.i217, %invoke.cont64, %sw.bb93, %sw.bb78, %invoke.cont74, %entry
  %call104 = invoke noundef i32 @_ZN8NWindows4NCOM12CPropVariant6DetachEP14tagPROPVARIANT(ptr noundef nonnull align 8 dereferenceable(16) %prop, ptr noundef %value)
          to label %invoke.cont103 unwind label %lpad73

invoke.cont103:                                   ; preds = %sw.epilog
  %call.i = invoke noundef i32 @_ZN8NWindows4NCOM12CPropVariant5ClearEv(ptr noundef nonnull align 8 dereferenceable(16) %prop)
          to label %_ZN8NWindows4NCOM12CPropVariantD2Ev.exit unwind label %terminate.lpad.i

terminate.lpad.i:                                 ; preds = %invoke.cont103
  %93 = landingpad { ptr, i32 }
          catch ptr null
  %94 = extractvalue { ptr, i32 } %93, 0
  call void @__clang_call_terminate(ptr %94) #22
  unreachable

_ZN8NWindows4NCOM12CPropVariantD2Ev.exit:         ; preds = %invoke.cont103
  call void @llvm.lifetime.end.p0(i64 16, ptr nonnull %prop) #21
  br label %return

ehcleanup105:                                     ; preds = %lpad2, %ehcleanup66, %delete.notnull.i220, %lpad73
  %.pn133 = phi { ptr, i32 } [ %86, %lpad73 ], [ %9, %lpad2 ], [ %.pn129.pn, %ehcleanup66 ], [ %.pn129.pn246, %delete.notnull.i220 ]
  %call.i228 = invoke noundef i32 @_ZN8NWindows4NCOM12CPropVariant5ClearEv(ptr noundef nonnull align 8 dereferenceable(16) %prop)
          to label %_ZN8NWindows4NCOM12CPropVariantD2Ev.exit230 unwind label %terminate.lpad.i229

terminate.lpad.i229:                              ; preds = %ehcleanup105
  %95 = landingpad { ptr, i32 }
          catch ptr null
  %96 = extractvalue { ptr, i32 } %95, 0
  call void @__clang_call_terminate(ptr %96) #22
  unreachable

_ZN8NWindows4NCOM12CPropVariantD2Ev.exit230:      ; preds = %ehcleanup105
  %exn.slot.6 = extractvalue { ptr, i32 } %.pn133, 0
  %ehselector.slot.6 = extractvalue { ptr, i32 } %.pn133, 1
  call void @llvm.lifetime.end.p0(i64 16, ptr nonnull %prop) #21
  %97 = call i32 @llvm.eh.typeid.for(ptr nonnull @_ZTIPKc) #21
  %matches = icmp eq i32 %ehselector.slot.6, %97
  %98 = call ptr @__cxa_begin_catch(ptr %exn.slot.6) #21
  br i1 %matches, label %catch107, label %catch

catch107:                                         ; preds = %_ZN8NWindows4NCOM12CPropVariantD2Ev.exit230
  %exception = call ptr @__cxa_allocate_exception(i64 8) #21
  store ptr %98, ptr %exception, align 16, !tbaa !50
  invoke void @__cxa_throw(ptr nonnull %exception, ptr nonnull @_ZTIPKc, ptr null) #25
          to label %unreachable unwind label %lpad109

catch:                                            ; preds = %_ZN8NWindows4NCOM12CPropVariantD2Ev.exit230
  call void @__cxa_end_catch()
  br label %return

lpad109:                                          ; preds = %catch107
  %99 = landingpad { ptr, i32 }
          cleanup
  call void @__cxa_end_catch() #21
  resume { ptr, i32 } %99

return:                                           ; preds = %catch, %_ZN8NWindows4NCOM12CPropVariantD2Ev.exit
  %retval.0 = phi i32 [ 0, %_ZN8NWindows4NCOM12CPropVariantD2Ev.exit ], [ -2147024882, %catch ]
  ret i32 %retval.0

unreachable:                                      ; preds = %catch107
  unreachable
}

; Function Attrs: mustprogress nocallback nofree nosync nounwind willreturn memory(argmem: readwrite)
declare void @llvm.lifetime.start.p0(i64 immarg, ptr nocapture) #5

; Function Attrs: mustprogress nocallback nofree nosync nounwind willreturn memory(argmem: readwrite)
declare void @llvm.lifetime.end.p0(i64 immarg, ptr nocapture) #5

declare noundef zeroext i1 @_Z10FindMethodyR11CStringBaseIwE(i64 noundef, ptr noundef nonnull align 8 dereferenceable(16)) local_unnamed_addr #1

declare void @_Z23ConvertMethodIdToStringy(ptr sret(%class.CStringBase) align 8, i64 noundef) local_unnamed_addr #1

; Function Attrs: mustprogress uwtable
define linkonce_odr dso_local noundef nonnull align 8 dereferenceable(16) ptr @_ZN11CStringBaseIwEpLEw(ptr noundef nonnull align 8 dereferenceable(16) %this, i32 noundef signext %c) local_unnamed_addr #6 comdat align 2 {
entry:
  %_capacity.i = getelementptr inbounds %class.CStringBase, ptr %this, i64 0, i32 2
  %0 = load i32, ptr %_capacity.i, align 4, !tbaa !57
  %_length.i = getelementptr inbounds %class.CStringBase, ptr %this, i64 0, i32 1
  %1 = load i32, ptr %_length.i, align 8, !tbaa !58
  %2 = xor i32 %1, -1
  %sub2.i = add i32 %0, %2
  %cmp.not.i = icmp slt i32 %sub2.i, 1
  br i1 %cmp.not.i, label %if.end.i, label %_ZN11CStringBaseIwE10GrowLengthEi.exit

if.end.i:                                         ; preds = %entry
  %cmp4.i = icmp sgt i32 %0, 64
  %div24.i = lshr i32 %0, 1
  %cmp8.i = icmp sgt i32 %0, 8
  %..i = select i1 %cmp8.i, i32 16, i32 4
  %delta.0.i = select i1 %cmp4.i, i32 %div24.i, i32 %..i
  %add.i = add nsw i32 %delta.0.i, %sub2.i
  %cmp13.i = icmp slt i32 %add.i, 1
  %sub15.i = sub nsw i32 1, %sub2.i
  %delta.1.i = select i1 %cmp13.i, i32 %sub15.i, i32 %delta.0.i
  %add18.i = add nsw i32 %delta.1.i, %0
  %add.i.i = add nsw i32 %add18.i, 1
  %cmp.i.i = icmp eq i32 %add.i.i, %0
  br i1 %cmp.i.i, label %_ZN11CStringBaseIwE10GrowLengthEi.exit, label %if.end.i.i

if.end.i.i:                                       ; preds = %if.end.i
  %conv.i.i = zext i32 %add.i.i to i64
  %3 = icmp slt i32 %add18.i, -1
  %4 = shl nuw nsw i64 %conv.i.i, 2
  %5 = select i1 %3, i64 -1, i64 %4
  %call.i.i = tail call noalias noundef nonnull ptr @_Znam(i64 noundef %5) #23
  %call.i.i6 = ptrtoint ptr %call.i.i to i64
  %cmp3.i.i = icmp sgt i32 %0, 0
  br i1 %cmp3.i.i, label %for.cond.preheader.i.i, label %if.end9.i.i

for.cond.preheader.i.i:                           ; preds = %if.end.i.i
  %cmp522.i.i = icmp sgt i32 %1, 0
  %.pre.i.i = load ptr, ptr %this, align 8, !tbaa !55
  br i1 %cmp522.i.i, label %for.body.lr.ph.i.i, label %for.cond.cleanup.i.i

for.body.lr.ph.i.i:                               ; preds = %for.cond.preheader.i.i
  %.pre.i.i7 = ptrtoint ptr %.pre.i.i to i64
  %wide.trip.count.i.i = zext i32 %1 to i64
  %min.iters.check = icmp ult i32 %1, 8
  %6 = sub i64 %call.i.i6, %.pre.i.i7
  %diff.check = icmp ult i64 %6, 32
  %or.cond = select i1 %min.iters.check, i1 true, i1 %diff.check
  br i1 %or.cond, label %for.body.i.i.preheader, label %vector.ph

vector.ph:                                        ; preds = %for.body.lr.ph.i.i
  %n.vec = and i64 %wide.trip.count.i.i, 4294967288
  br label %vector.body

vector.body:                                      ; preds = %vector.body, %vector.ph
  %index = phi i64 [ 0, %vector.ph ], [ %index.next, %vector.body ]
  %7 = getelementptr inbounds i32, ptr %.pre.i.i, i64 %index
  %wide.load = load <4 x i32>, ptr %7, align 4, !tbaa !47
  %8 = getelementptr inbounds i32, ptr %7, i64 4
  %wide.load8 = load <4 x i32>, ptr %8, align 4, !tbaa !47
  %9 = getelementptr inbounds i32, ptr %call.i.i, i64 %index
  store <4 x i32> %wide.load, ptr %9, align 4, !tbaa !47
  %10 = getelementptr inbounds i32, ptr %9, i64 4
  store <4 x i32> %wide.load8, ptr %10, align 4, !tbaa !47
  %index.next = add nuw i64 %index, 8
  %11 = icmp eq i64 %index.next, %n.vec
  br i1 %11, label %middle.block, label %vector.body, !llvm.loop !74

middle.block:                                     ; preds = %vector.body
  %cmp.n = icmp eq i64 %n.vec, %wide.trip.count.i.i
  br i1 %cmp.n, label %delete.notnull.i.i, label %for.body.i.i.preheader

for.body.i.i.preheader:                           ; preds = %for.body.lr.ph.i.i, %middle.block
  %indvars.iv.i.i.ph = phi i64 [ 0, %for.body.lr.ph.i.i ], [ %n.vec, %middle.block ]
  %12 = xor i64 %indvars.iv.i.i.ph, -1
  %13 = add nsw i64 %12, %wide.trip.count.i.i
  %xtraiter = and i64 %wide.trip.count.i.i, 3
  %lcmp.mod.not = icmp eq i64 %xtraiter, 0
  br i1 %lcmp.mod.not, label %for.body.i.i.prol.loopexit, label %for.body.i.i.prol

for.body.i.i.prol:                                ; preds = %for.body.i.i.preheader, %for.body.i.i.prol
  %indvars.iv.i.i.prol = phi i64 [ %indvars.iv.next.i.i.prol, %for.body.i.i.prol ], [ %indvars.iv.i.i.ph, %for.body.i.i.preheader ]
  %prol.iter = phi i64 [ %prol.iter.next, %for.body.i.i.prol ], [ 0, %for.body.i.i.preheader ]
  %arrayidx.i.i.prol = getelementptr inbounds i32, ptr %.pre.i.i, i64 %indvars.iv.i.i.prol
  %14 = load i32, ptr %arrayidx.i.i.prol, align 4, !tbaa !47
  %arrayidx7.i.i.prol = getelementptr inbounds i32, ptr %call.i.i, i64 %indvars.iv.i.i.prol
  store i32 %14, ptr %arrayidx7.i.i.prol, align 4, !tbaa !47
  %indvars.iv.next.i.i.prol = add nuw nsw i64 %indvars.iv.i.i.prol, 1
  %prol.iter.next = add i64 %prol.iter, 1
  %prol.iter.cmp.not = icmp eq i64 %prol.iter.next, %xtraiter
  br i1 %prol.iter.cmp.not, label %for.body.i.i.prol.loopexit, label %for.body.i.i.prol, !llvm.loop !75

for.body.i.i.prol.loopexit:                       ; preds = %for.body.i.i.prol, %for.body.i.i.preheader
  %indvars.iv.i.i.unr = phi i64 [ %indvars.iv.i.i.ph, %for.body.i.i.preheader ], [ %indvars.iv.next.i.i.prol, %for.body.i.i.prol ]
  %15 = icmp ult i64 %13, 3
  br i1 %15, label %delete.notnull.i.i, label %for.body.i.i

for.cond.cleanup.i.i:                             ; preds = %for.cond.preheader.i.i
  %isnull.i.i = icmp eq ptr %.pre.i.i, null
  br i1 %isnull.i.i, label %if.end9.i.i, label %delete.notnull.i.i

for.body.i.i:                                     ; preds = %for.body.i.i.prol.loopexit, %for.body.i.i
  %indvars.iv.i.i = phi i64 [ %indvars.iv.next.i.i.3, %for.body.i.i ], [ %indvars.iv.i.i.unr, %for.body.i.i.prol.loopexit ]
  %arrayidx.i.i = getelementptr inbounds i32, ptr %.pre.i.i, i64 %indvars.iv.i.i
  %16 = load i32, ptr %arrayidx.i.i, align 4, !tbaa !47
  %arrayidx7.i.i = getelementptr inbounds i32, ptr %call.i.i, i64 %indvars.iv.i.i
  store i32 %16, ptr %arrayidx7.i.i, align 4, !tbaa !47
  %indvars.iv.next.i.i = add nuw nsw i64 %indvars.iv.i.i, 1
  %arrayidx.i.i.1 = getelementptr inbounds i32, ptr %.pre.i.i, i64 %indvars.iv.next.i.i
  %17 = load i32, ptr %arrayidx.i.i.1, align 4, !tbaa !47
  %arrayidx7.i.i.1 = getelementptr inbounds i32, ptr %call.i.i, i64 %indvars.iv.next.i.i
  store i32 %17, ptr %arrayidx7.i.i.1, align 4, !tbaa !47
  %indvars.iv.next.i.i.1 = add nuw nsw i64 %indvars.iv.i.i, 2
  %arrayidx.i.i.2 = getelementptr inbounds i32, ptr %.pre.i.i, i64 %indvars.iv.next.i.i.1
  %18 = load i32, ptr %arrayidx.i.i.2, align 4, !tbaa !47
  %arrayidx7.i.i.2 = getelementptr inbounds i32, ptr %call.i.i, i64 %indvars.iv.next.i.i.1
  store i32 %18, ptr %arrayidx7.i.i.2, align 4, !tbaa !47
  %indvars.iv.next.i.i.2 = add nuw nsw i64 %indvars.iv.i.i, 3
  %arrayidx.i.i.3 = getelementptr inbounds i32, ptr %.pre.i.i, i64 %indvars.iv.next.i.i.2
  %19 = load i32, ptr %arrayidx.i.i.3, align 4, !tbaa !47
  %arrayidx7.i.i.3 = getelementptr inbounds i32, ptr %call.i.i, i64 %indvars.iv.next.i.i.2
  store i32 %19, ptr %arrayidx7.i.i.3, align 4, !tbaa !47
  %indvars.iv.next.i.i.3 = add nuw nsw i64 %indvars.iv.i.i, 4
  %exitcond.not.i.i.3 = icmp eq i64 %indvars.iv.next.i.i.3, %wide.trip.count.i.i
  br i1 %exitcond.not.i.i.3, label %delete.notnull.i.i, label %for.body.i.i, !llvm.loop !76

delete.notnull.i.i:                               ; preds = %for.body.i.i.prol.loopexit, %for.body.i.i, %middle.block, %for.cond.cleanup.i.i
  tail call void @_ZdaPv(ptr noundef nonnull %.pre.i.i) #24
  %.pre.i = load i32, ptr %_length.i, align 8, !tbaa !58
  br label %if.end9.i.i

if.end9.i.i:                                      ; preds = %delete.notnull.i.i, %for.cond.cleanup.i.i, %if.end.i.i
  %20 = phi i32 [ %.pre.i, %delete.notnull.i.i ], [ %1, %for.cond.cleanup.i.i ], [ %1, %if.end.i.i ]
  store ptr %call.i.i, ptr %this, align 8, !tbaa !55
  %idxprom13.i.i = sext i32 %20 to i64
  %arrayidx14.i.i = getelementptr inbounds i32, ptr %call.i.i, i64 %idxprom13.i.i
  store i32 0, ptr %arrayidx14.i.i, align 4, !tbaa !47
  store i32 %add.i.i, ptr %_capacity.i, align 4, !tbaa !57
  br label %_ZN11CStringBaseIwE10GrowLengthEi.exit

_ZN11CStringBaseIwE10GrowLengthEi.exit:           ; preds = %entry, %if.end.i, %if.end9.i.i
  %21 = phi i32 [ %1, %entry ], [ %1, %if.end.i ], [ %20, %if.end9.i.i ]
  %22 = load ptr, ptr %this, align 8, !tbaa !55
  %idxprom = sext i32 %21 to i64
  %arrayidx = getelementptr inbounds i32, ptr %22, i64 %idxprom
  store i32 %c, ptr %arrayidx, align 4, !tbaa !47
  %inc = add nsw i32 %21, 1
  store i32 %inc, ptr %_length.i, align 8, !tbaa !58
  %idxprom4 = sext i32 %inc to i64
  %arrayidx5 = getelementptr inbounds i32, ptr %22, i64 %idxprom4
  store i32 0, ptr %arrayidx5, align 4, !tbaa !47
  ret ptr %this
}

; Function Attrs: mustprogress uwtable
define linkonce_odr dso_local noundef nonnull align 8 dereferenceable(16) ptr @_ZN11CStringBaseIwEpLERKS0_(ptr noundef nonnull align 8 dereferenceable(16) %this, ptr noundef nonnull align 8 dereferenceable(16) %s) local_unnamed_addr #6 comdat align 2 {
entry:
  %_length = getelementptr inbounds %class.CStringBase, ptr %s, i64 0, i32 1
  %0 = load i32, ptr %_length, align 8, !tbaa !58
  %_capacity.i = getelementptr inbounds %class.CStringBase, ptr %this, i64 0, i32 2
  %1 = load i32, ptr %_capacity.i, align 4, !tbaa !57
  %_length.i = getelementptr inbounds %class.CStringBase, ptr %this, i64 0, i32 1
  %2 = load i32, ptr %_length.i, align 8, !tbaa !58
  %3 = xor i32 %2, -1
  %sub2.i = add i32 %1, %3
  %cmp.not.i = icmp slt i32 %sub2.i, %0
  br i1 %cmp.not.i, label %if.end.i, label %_ZN11CStringBaseIwE10GrowLengthEi.exit

if.end.i:                                         ; preds = %entry
  %cmp4.i = icmp sgt i32 %1, 64
  %div24.i = lshr i32 %1, 1
  %cmp8.i = icmp sgt i32 %1, 8
  %..i = select i1 %cmp8.i, i32 16, i32 4
  %delta.0.i = select i1 %cmp4.i, i32 %div24.i, i32 %..i
  %add.i = add nsw i32 %delta.0.i, %sub2.i
  %cmp13.i = icmp slt i32 %add.i, %0
  %sub15.i = sub nsw i32 %0, %sub2.i
  %delta.1.i = select i1 %cmp13.i, i32 %sub15.i, i32 %delta.0.i
  %add18.i = add nsw i32 %delta.1.i, %1
  %add.i.i = add nsw i32 %add18.i, 1
  %cmp.i.i = icmp eq i32 %add.i.i, %1
  br i1 %cmp.i.i, label %_ZN11CStringBaseIwE10GrowLengthEi.exit, label %if.end.i.i

if.end.i.i:                                       ; preds = %if.end.i
  %conv.i.i = zext i32 %add.i.i to i64
  %4 = icmp slt i32 %add18.i, -1
  %5 = shl nuw nsw i64 %conv.i.i, 2
  %6 = select i1 %4, i64 -1, i64 %5
  %call.i.i = tail call noalias noundef nonnull ptr @_Znam(i64 noundef %6) #23
  %call.i.i9 = ptrtoint ptr %call.i.i to i64
  %cmp3.i.i = icmp sgt i32 %1, 0
  br i1 %cmp3.i.i, label %for.cond.preheader.i.i, label %if.end9.i.i

for.cond.preheader.i.i:                           ; preds = %if.end.i.i
  %cmp522.i.i = icmp sgt i32 %2, 0
  %.pre.i.i = load ptr, ptr %this, align 8, !tbaa !55
  br i1 %cmp522.i.i, label %for.body.lr.ph.i.i, label %for.cond.cleanup.i.i

for.body.lr.ph.i.i:                               ; preds = %for.cond.preheader.i.i
  %.pre.i.i10 = ptrtoint ptr %.pre.i.i to i64
  %wide.trip.count.i.i = zext i32 %2 to i64
  %min.iters.check = icmp ult i32 %2, 8
  %7 = sub i64 %call.i.i9, %.pre.i.i10
  %diff.check = icmp ult i64 %7, 32
  %or.cond = select i1 %min.iters.check, i1 true, i1 %diff.check
  br i1 %or.cond, label %for.body.i.i.preheader, label %vector.ph

vector.ph:                                        ; preds = %for.body.lr.ph.i.i
  %n.vec = and i64 %wide.trip.count.i.i, 4294967288
  br label %vector.body

vector.body:                                      ; preds = %vector.body, %vector.ph
  %index = phi i64 [ 0, %vector.ph ], [ %index.next, %vector.body ]
  %8 = getelementptr inbounds i32, ptr %.pre.i.i, i64 %index
  %wide.load = load <4 x i32>, ptr %8, align 4, !tbaa !47
  %9 = getelementptr inbounds i32, ptr %8, i64 4
  %wide.load11 = load <4 x i32>, ptr %9, align 4, !tbaa !47
  %10 = getelementptr inbounds i32, ptr %call.i.i, i64 %index
  store <4 x i32> %wide.load, ptr %10, align 4, !tbaa !47
  %11 = getelementptr inbounds i32, ptr %10, i64 4
  store <4 x i32> %wide.load11, ptr %11, align 4, !tbaa !47
  %index.next = add nuw i64 %index, 8
  %12 = icmp eq i64 %index.next, %n.vec
  br i1 %12, label %middle.block, label %vector.body, !llvm.loop !77

middle.block:                                     ; preds = %vector.body
  %cmp.n = icmp eq i64 %n.vec, %wide.trip.count.i.i
  br i1 %cmp.n, label %delete.notnull.i.i, label %for.body.i.i.preheader

for.body.i.i.preheader:                           ; preds = %for.body.lr.ph.i.i, %middle.block
  %indvars.iv.i.i.ph = phi i64 [ 0, %for.body.lr.ph.i.i ], [ %n.vec, %middle.block ]
  %13 = xor i64 %indvars.iv.i.i.ph, -1
  %14 = add nsw i64 %13, %wide.trip.count.i.i
  %xtraiter = and i64 %wide.trip.count.i.i, 3
  %lcmp.mod.not = icmp eq i64 %xtraiter, 0
  br i1 %lcmp.mod.not, label %for.body.i.i.prol.loopexit, label %for.body.i.i.prol

for.body.i.i.prol:                                ; preds = %for.body.i.i.preheader, %for.body.i.i.prol
  %indvars.iv.i.i.prol = phi i64 [ %indvars.iv.next.i.i.prol, %for.body.i.i.prol ], [ %indvars.iv.i.i.ph, %for.body.i.i.preheader ]
  %prol.iter = phi i64 [ %prol.iter.next, %for.body.i.i.prol ], [ 0, %for.body.i.i.preheader ]
  %arrayidx.i.i.prol = getelementptr inbounds i32, ptr %.pre.i.i, i64 %indvars.iv.i.i.prol
  %15 = load i32, ptr %arrayidx.i.i.prol, align 4, !tbaa !47
  %arrayidx7.i.i.prol = getelementptr inbounds i32, ptr %call.i.i, i64 %indvars.iv.i.i.prol
  store i32 %15, ptr %arrayidx7.i.i.prol, align 4, !tbaa !47
  %indvars.iv.next.i.i.prol = add nuw nsw i64 %indvars.iv.i.i.prol, 1
  %prol.iter.next = add i64 %prol.iter, 1
  %prol.iter.cmp.not = icmp eq i64 %prol.iter.next, %xtraiter
  br i1 %prol.iter.cmp.not, label %for.body.i.i.prol.loopexit, label %for.body.i.i.prol, !llvm.loop !78

for.body.i.i.prol.loopexit:                       ; preds = %for.body.i.i.prol, %for.body.i.i.preheader
  %indvars.iv.i.i.unr = phi i64 [ %indvars.iv.i.i.ph, %for.body.i.i.preheader ], [ %indvars.iv.next.i.i.prol, %for.body.i.i.prol ]
  %16 = icmp ult i64 %14, 3
  br i1 %16, label %delete.notnull.i.i, label %for.body.i.i

for.cond.cleanup.i.i:                             ; preds = %for.cond.preheader.i.i
  %isnull.i.i = icmp eq ptr %.pre.i.i, null
  br i1 %isnull.i.i, label %if.end9.i.i, label %delete.notnull.i.i

for.body.i.i:                                     ; preds = %for.body.i.i.prol.loopexit, %for.body.i.i
  %indvars.iv.i.i = phi i64 [ %indvars.iv.next.i.i.3, %for.body.i.i ], [ %indvars.iv.i.i.unr, %for.body.i.i.prol.loopexit ]
  %arrayidx.i.i = getelementptr inbounds i32, ptr %.pre.i.i, i64 %indvars.iv.i.i
  %17 = load i32, ptr %arrayidx.i.i, align 4, !tbaa !47
  %arrayidx7.i.i = getelementptr inbounds i32, ptr %call.i.i, i64 %indvars.iv.i.i
  store i32 %17, ptr %arrayidx7.i.i, align 4, !tbaa !47
  %indvars.iv.next.i.i = add nuw nsw i64 %indvars.iv.i.i, 1
  %arrayidx.i.i.1 = getelementptr inbounds i32, ptr %.pre.i.i, i64 %indvars.iv.next.i.i
  %18 = load i32, ptr %arrayidx.i.i.1, align 4, !tbaa !47
  %arrayidx7.i.i.1 = getelementptr inbounds i32, ptr %call.i.i, i64 %indvars.iv.next.i.i
  store i32 %18, ptr %arrayidx7.i.i.1, align 4, !tbaa !47
  %indvars.iv.next.i.i.1 = add nuw nsw i64 %indvars.iv.i.i, 2
  %arrayidx.i.i.2 = getelementptr inbounds i32, ptr %.pre.i.i, i64 %indvars.iv.next.i.i.1
  %19 = load i32, ptr %arrayidx.i.i.2, align 4, !tbaa !47
  %arrayidx7.i.i.2 = getelementptr inbounds i32, ptr %call.i.i, i64 %indvars.iv.next.i.i.1
  store i32 %19, ptr %arrayidx7.i.i.2, align 4, !tbaa !47
  %indvars.iv.next.i.i.2 = add nuw nsw i64 %indvars.iv.i.i, 3
  %arrayidx.i.i.3 = getelementptr inbounds i32, ptr %.pre.i.i, i64 %indvars.iv.next.i.i.2
  %20 = load i32, ptr %arrayidx.i.i.3, align 4, !tbaa !47
  %arrayidx7.i.i.3 = getelementptr inbounds i32, ptr %call.i.i, i64 %indvars.iv.next.i.i.2
  store i32 %20, ptr %arrayidx7.i.i.3, align 4, !tbaa !47
  %indvars.iv.next.i.i.3 = add nuw nsw i64 %indvars.iv.i.i, 4
  %exitcond.not.i.i.3 = icmp eq i64 %indvars.iv.next.i.i.3, %wide.trip.count.i.i
  br i1 %exitcond.not.i.i.3, label %delete.notnull.i.i, label %for.body.i.i, !llvm.loop !79

delete.notnull.i.i:                               ; preds = %for.body.i.i.prol.loopexit, %for.body.i.i, %middle.block, %for.cond.cleanup.i.i
  tail call void @_ZdaPv(ptr noundef nonnull %.pre.i.i) #24
  %.pre.i = load i32, ptr %_length.i, align 8, !tbaa !58
  br label %if.end9.i.i

if.end9.i.i:                                      ; preds = %delete.notnull.i.i, %for.cond.cleanup.i.i, %if.end.i.i
  %21 = phi i32 [ %.pre.i, %delete.notnull.i.i ], [ %2, %for.cond.cleanup.i.i ], [ %2, %if.end.i.i ]
  store ptr %call.i.i, ptr %this, align 8, !tbaa !55
  %idxprom13.i.i = sext i32 %21 to i64
  %arrayidx14.i.i = getelementptr inbounds i32, ptr %call.i.i, i64 %idxprom13.i.i
  store i32 0, ptr %arrayidx14.i.i, align 4, !tbaa !47
  store i32 %add.i.i, ptr %_capacity.i, align 4, !tbaa !57
  br label %_ZN11CStringBaseIwE10GrowLengthEi.exit

_ZN11CStringBaseIwE10GrowLengthEi.exit:           ; preds = %entry, %if.end.i, %if.end9.i.i
  %22 = phi i32 [ %2, %entry ], [ %2, %if.end.i ], [ %21, %if.end9.i.i ]
  %23 = load ptr, ptr %this, align 8, !tbaa !55
  %idx.ext = sext i32 %22 to i64
  %add.ptr = getelementptr inbounds i32, ptr %23, i64 %idx.ext
  %24 = load ptr, ptr %s, align 8, !tbaa !55
  br label %while.cond.i

while.cond.i:                                     ; preds = %while.cond.i, %_ZN11CStringBaseIwE10GrowLengthEi.exit
  %src.addr.0.i = phi ptr [ %24, %_ZN11CStringBaseIwE10GrowLengthEi.exit ], [ %incdec.ptr.i, %while.cond.i ]
  %dest.addr.0.i = phi ptr [ %add.ptr, %_ZN11CStringBaseIwE10GrowLengthEi.exit ], [ %incdec.ptr1.i, %while.cond.i ]
  %incdec.ptr.i = getelementptr inbounds i32, ptr %src.addr.0.i, i64 1
  %25 = load i32, ptr %src.addr.0.i, align 4, !tbaa !47
  %incdec.ptr1.i = getelementptr inbounds i32, ptr %dest.addr.0.i, i64 1
  store i32 %25, ptr %dest.addr.0.i, align 4, !tbaa !47
  %cmp.not.i8 = icmp eq i32 %25, 0
  br i1 %cmp.not.i8, label %_Z12MyStringCopyIwEPT_S1_PKS0_.exit, label %while.cond.i, !llvm.loop !59

_Z12MyStringCopyIwEPT_S1_PKS0_.exit:              ; preds = %while.cond.i
  %26 = load i32, ptr %_length, align 8, !tbaa !58
  %add = add nsw i32 %26, %22
  store i32 %add, ptr %_length.i, align 8, !tbaa !58
  ret ptr %this
}

declare noundef nonnull align 8 dereferenceable(16) ptr @_ZN8NWindows4NCOM12CPropVariantaSEPKw(ptr noundef nonnull align 8 dereferenceable(16), ptr noundef) local_unnamed_addr #1

declare noundef nonnull align 8 dereferenceable(16) ptr @_ZN8NWindows4NCOM12CPropVariantaSEb(ptr noundef nonnull align 8 dereferenceable(16), i1 noundef zeroext) local_unnamed_addr #1

declare noundef nonnull align 8 dereferenceable(16) ptr @_ZN8NWindows4NCOM12CPropVariantaSEj(ptr noundef nonnull align 8 dereferenceable(16), i32 noundef) local_unnamed_addr #1

declare noundef nonnull align 8 dereferenceable(16) ptr @_ZN8NWindows4NCOM12CPropVariantaSEy(ptr noundef nonnull align 8 dereferenceable(16), i64 noundef) local_unnamed_addr #1

declare noundef i32 @_ZN8NWindows4NCOM12CPropVariant6DetachEP14tagPROPVARIANT(ptr noundef nonnull align 8 dereferenceable(16), ptr noundef) local_unnamed_addr #1

; Function Attrs: nofree nosync nounwind memory(none)
declare i32 @llvm.eh.typeid.for(ptr) #7

declare ptr @__cxa_begin_catch(ptr) local_unnamed_addr

declare void @__cxa_end_catch() local_unnamed_addr

declare ptr @__cxa_allocate_exception(i64) local_unnamed_addr

declare void @__cxa_throw(ptr, ptr, ptr) local_unnamed_addr

; Function Attrs: mustprogress nofree norecurse nosync nounwind willreturn memory(argmem: write) uwtable
define dso_local noundef i32 @_ZN8NArchive3N7z8CHandler28GetNumberOfArchivePropertiesEPj(ptr nocapture nonnull readnone align 8 %this, ptr nocapture noundef writeonly %numProperties) unnamed_addr #8 align 2 {
entry:
  store i32 6, ptr %numProperties, align 4, !tbaa !42
  ret i32 0
}

; Function Attrs: mustprogress nofree norecurse nosync nounwind willreturn memory(read, argmem: write, inaccessiblemem: none) uwtable
define dso_local noundef i32 @_ZN8NArchive3N7z8CHandler22GetArchivePropertyInfoEjPPwPjPt(ptr nocapture nonnull readnone align 8 %this, i32 noundef %index, ptr nocapture noundef writeonly %name, ptr nocapture noundef writeonly %propID, ptr nocapture noundef writeonly %varType) unnamed_addr #9 align 2 {
entry:
  %cmp = icmp ugt i32 %index, 5
  br i1 %cmp, label %return, label %if.end

if.end:                                           ; preds = %entry
  %conv = zext i32 %index to i64
  %propid = getelementptr inbounds [6 x %struct.tagSTATPROPSTG], ptr @_ZN8NArchive3N7z9kArcPropsE, i64 0, i64 %conv, i32 1
  %0 = load i32, ptr %propid, align 8, !tbaa !80
  store i32 %0, ptr %propID, align 4, !tbaa !42
  %vt = getelementptr inbounds [6 x %struct.tagSTATPROPSTG], ptr @_ZN8NArchive3N7z9kArcPropsE, i64 0, i64 %conv, i32 2
  %1 = load i16, ptr %vt, align 4, !tbaa !82
  store i16 %1, ptr %varType, align 2, !tbaa !83
  store ptr null, ptr %name, align 8, !tbaa !50
  br label %return

return:                                           ; preds = %entry, %if.end
  %retval.0 = phi i32 [ 0, %if.end ], [ -2147024809, %entry ]
  ret i32 %retval.0
}

; Function Attrs: mustprogress nofree norecurse nosync nounwind willreturn memory(read, inaccessiblemem: none) uwtable
define dso_local noundef zeroext i1 @_ZNK8NArchive3N7z8CHandler11IsEncryptedEj(ptr nocapture noundef nonnull readonly align 8 dereferenceable(912) %this, i32 noundef %index2) local_unnamed_addr #10 align 2 {
entry:
  %_items.i = getelementptr inbounds %"class.NArchive::N7z::CHandler", ptr %this, i64 0, i32 6, i32 5, i32 0, i32 3
  %0 = load ptr, ptr %_items.i, align 8, !tbaa !49
  %idxprom.i = sext i32 %index2 to i64
  %arrayidx.i = getelementptr inbounds i32, ptr %0, i64 %idxprom.i
  %1 = load i32, ptr %arrayidx.i, align 4, !tbaa !42
  %cmp.not = icmp eq i32 %1, -1
  br i1 %cmp.not, label %cleanup, label %if.then

if.then:                                          ; preds = %entry
  %_items.i.i = getelementptr inbounds %"class.NArchive::N7z::CHandler", ptr %this, i64 0, i32 6, i32 0, i32 3, i32 0, i32 0, i32 3
  %2 = load ptr, ptr %_items.i.i, align 8, !tbaa !49
  %idxprom.i.i = sext i32 %1 to i64
  %arrayidx.i.i = getelementptr inbounds ptr, ptr %2, i64 %idxprom.i.i
  %3 = load ptr, ptr %arrayidx.i.i, align 8, !tbaa !50
  %_size.i.i = getelementptr inbounds %class.CBaseRecordVector, ptr %3, i64 0, i32 2
  %4 = load i32, ptr %_size.i.i, align 4, !tbaa !41
  %_items.i.i.i = getelementptr inbounds %class.CBaseRecordVector, ptr %3, i64 0, i32 3
  %5 = load ptr, ptr %_items.i.i.i, align 8
  %6 = zext i32 %4 to i64
  br label %for.cond.i

for.cond.i:                                       ; preds = %for.body.i, %if.then
  %indvars.iv.i = phi i64 [ %8, %for.body.i ], [ %6, %if.then ]
  %7 = trunc i64 %indvars.iv.i to i32
  %cmp.i = icmp sgt i32 %7, 0
  br i1 %cmp.i, label %for.body.i, label %cleanup

for.body.i:                                       ; preds = %for.cond.i
  %8 = add nsw i64 %indvars.iv.i, -1
  %arrayidx.i.i.i = getelementptr inbounds ptr, ptr %5, i64 %8
  %9 = load ptr, ptr %arrayidx.i.i.i, align 8, !tbaa !50
  %10 = load i64, ptr %9, align 8, !tbaa !84
  %cmp4.i = icmp eq i64 %10, 116459265
  br i1 %cmp4.i, label %cleanup, label %for.cond.i, !llvm.loop !87

cleanup:                                          ; preds = %for.body.i, %for.cond.i, %entry
  %retval.0 = phi i1 [ false, %entry ], [ %cmp.i, %for.cond.i ], [ %cmp.i, %for.body.i ]
  ret i1 %retval.0
}

; Function Attrs: uwtable
define dso_local noundef i32 @_ZN8NArchive3N7z8CHandler11GetPropertyEjjP14tagPROPVARIANT(ptr nocapture noundef nonnull readonly align 8 dereferenceable(912) %this, i32 noundef %index, i32 noundef %propID, ptr noundef %value) unnamed_addr #0 align 2 personality ptr @__gxx_personality_v0 {
entry:
  %buffer.i1002 = alloca [32 x i32], align 16
  %buffer.i806 = alloca [32 x i32], align 16
  %buffer.i = alloca [32 x i32], align 16
  %ft.i540 = alloca %struct._FILETIME, align 4
  %ft.i522 = alloca %struct._FILETIME, align 4
  %ft.i = alloca %struct._FILETIME, align 4
  %prop = alloca %"class.NWindows::NCOM::CPropVariant", align 8
  %ref.tmp = alloca %class.CStringBase, align 8
  %methodsString = alloca %class.CStringBase, align 8
  %methodName = alloca %class.CStringBase, align 8
  %ref.tmp122 = alloca %class.CStringBase, align 8
  %ref.tmp164 = alloca %class.CStringBase, align 8
  %ref.tmp191 = alloca %class.CStringBase, align 8
  %ref.tmp233 = alloca %class.CStringBase, align 8
  call void @llvm.lifetime.start.p0(i64 16, ptr nonnull %prop) #21
  store i16 0, ptr %prop, align 8, !tbaa !43
  %wReserved1.i = getelementptr inbounds %struct.tagPROPVARIANT, ptr %prop, i64 0, i32 1
  store i16 0, ptr %wReserved1.i, align 2, !tbaa !46
  %_items.i.i = getelementptr inbounds %"class.NArchive::N7z::CHandler", ptr %this, i64 0, i32 6, i32 0, i32 5, i32 0, i32 0, i32 3
  %0 = load ptr, ptr %_items.i.i, align 8, !tbaa !49
  %idxprom.i.i = sext i32 %index to i64
  %arrayidx.i.i = getelementptr inbounds ptr, ptr %0, i64 %idxprom.i.i
  %1 = load ptr, ptr %arrayidx.i.i, align 8, !tbaa !50
  switch i32 %propID, label %sw.epilog [
    i32 3, label %sw.bb
    i32 6, label %sw.bb15
    i32 7, label %sw.bb18
    i32 8, label %sw.bb21
    i32 29, label %sw.bb42
    i32 10, label %sw.bb52
    i32 11, label %sw.bb55
    i32 12, label %sw.bb58
    i32 9, label %sw.bb61
    i32 19, label %sw.bb67
    i32 15, label %sw.bb73
    i32 21, label %sw.bb78
    i32 22, label %sw.bb84
    i32 27, label %sw.bb340
    i32 65536, label %sw.bb353
    i32 65537, label %sw.bb353
    i32 65538, label %sw.bb353
    i32 65539, label %sw.bb353
    i32 65540, label %sw.bb353
  ]

sw.bb:                                            ; preds = %entry
  %_length.i = getelementptr inbounds %"struct.NArchive::N7z::CFileItem", ptr %1, i64 0, i32 3, i32 1
  %2 = load i32, ptr %_length.i, align 8, !tbaa !58
  %cmp.i = icmp eq i32 %2, 0
  br i1 %cmp.i, label %sw.epilog, label %if.then

if.then:                                          ; preds = %sw.bb
  %Name = getelementptr inbounds %"struct.NArchive::N7z::CFileItem", ptr %1, i64 0, i32 3
  call void @llvm.lifetime.start.p0(i64 16, ptr nonnull %ref.tmp) #21
  invoke void @_ZN8NArchive9NItemName9GetOSNameERK11CStringBaseIwE(ptr nonnull sret(%class.CStringBase) align 8 %ref.tmp, ptr noundef nonnull align 8 dereferenceable(16) %Name)
          to label %invoke.cont9 unwind label %lpad8

invoke.cont9:                                     ; preds = %if.then
  %3 = load ptr, ptr %ref.tmp, align 8, !tbaa !55
  %call14 = invoke noundef nonnull align 8 dereferenceable(16) ptr @_ZN8NWindows4NCOM12CPropVariantaSEPKw(ptr noundef nonnull align 8 dereferenceable(16) %prop, ptr noundef %3)
          to label %invoke.cont13 unwind label %lpad10

invoke.cont13:                                    ; preds = %invoke.cont9
  %4 = load ptr, ptr %ref.tmp, align 8, !tbaa !55
  %isnull.i = icmp eq ptr %4, null
  br i1 %isnull.i, label %_ZN11CStringBaseIwED2Ev.exit, label %delete.notnull.i

delete.notnull.i:                                 ; preds = %invoke.cont13
  call void @_ZdaPv(ptr noundef nonnull %4) #24
  br label %_ZN11CStringBaseIwED2Ev.exit

_ZN11CStringBaseIwED2Ev.exit:                     ; preds = %invoke.cont13, %delete.notnull.i
  call void @llvm.lifetime.end.p0(i64 16, ptr nonnull %ref.tmp) #21
  br label %sw.epilog

lpad4:                                            ; preds = %if.then69.invoke, %_ZNK8NArchive3N7z16CArchiveDatabase10IsItemAntiEi.exit.invoke, %if.then.i548, %if.then.i530, %if.then.i520, %sw.epilog, %sw.bb18
  %5 = landingpad { ptr, i32 }
          catch ptr @_ZTIPKc
          catch ptr null
  br label %ehcleanup398

lpad8:                                            ; preds = %if.then
  %6 = landingpad { ptr, i32 }
          catch ptr @_ZTIPKc
          catch ptr null
  br label %ehcleanup

lpad10:                                           ; preds = %invoke.cont9
  %7 = landingpad { ptr, i32 }
          catch ptr @_ZTIPKc
          catch ptr null
  %8 = load ptr, ptr %ref.tmp, align 8, !tbaa !55
  %isnull.i504 = icmp eq ptr %8, null
  br i1 %isnull.i504, label %ehcleanup, label %delete.notnull.i505

delete.notnull.i505:                              ; preds = %lpad10
  call void @_ZdaPv(ptr noundef nonnull %8) #24
  br label %ehcleanup

ehcleanup:                                        ; preds = %delete.notnull.i505, %lpad10, %lpad8
  %.pn500 = phi { ptr, i32 } [ %6, %lpad8 ], [ %7, %lpad10 ], [ %7, %delete.notnull.i505 ]
  call void @llvm.lifetime.end.p0(i64 16, ptr nonnull %ref.tmp) #21
  br label %ehcleanup398

sw.bb15:                                          ; preds = %entry
  %IsDir = getelementptr inbounds %"struct.NArchive::N7z::CFileItem", ptr %1, i64 0, i32 5
  br label %_ZNK8NArchive3N7z16CArchiveDatabase10IsItemAntiEi.exit.invoke.sink.split

sw.bb18:                                          ; preds = %entry
  %9 = load i64, ptr %1, align 8, !tbaa !88
  %call20 = invoke noundef nonnull align 8 dereferenceable(16) ptr @_ZN8NWindows4NCOM12CPropVariantaSEy(ptr noundef nonnull align 8 dereferenceable(16) %prop, i64 noundef %9)
          to label %sw.epilog unwind label %lpad4

sw.bb21:                                          ; preds = %entry
  %_items.i = getelementptr inbounds %"class.NArchive::N7z::CHandler", ptr %this, i64 0, i32 6, i32 5, i32 0, i32 3
  %10 = load ptr, ptr %_items.i, align 8, !tbaa !49
  %arrayidx.i = getelementptr inbounds i32, ptr %10, i64 %idxprom.i.i
  %11 = load i32, ptr %arrayidx.i, align 4, !tbaa !42
  %cmp.not = icmp eq i32 %11, -1
  br i1 %cmp.not, label %if.else.invoke, label %if.then26

if.then26:                                        ; preds = %sw.bb21
  %_items.i507 = getelementptr inbounds %"class.NArchive::N7z::CHandler", ptr %this, i64 0, i32 6, i32 4, i32 0, i32 3
  %12 = load ptr, ptr %_items.i507, align 8, !tbaa !49
  %idxprom.i508 = sext i32 %11 to i64
  %arrayidx.i509 = getelementptr inbounds i32, ptr %12, i64 %idxprom.i508
  %13 = load i32, ptr %arrayidx.i509, align 4, !tbaa !42
  %cmp30 = icmp eq i32 %13, %index
  br i1 %cmp30, label %if.then31, label %sw.epilog

if.then31:                                        ; preds = %if.then26
  %_items.i.i510 = getelementptr inbounds %"class.NArchive::N7z::CHandler", ptr %this, i64 0, i32 6, i32 3, i32 0, i32 3
  %14 = load ptr, ptr %_items.i.i510, align 8, !tbaa !49
  %arrayidx.i.i512 = getelementptr inbounds i32, ptr %14, i64 %idxprom.i508
  %15 = load i32, ptr %arrayidx.i.i512, align 4, !tbaa !42
  %_items.i.i.i = getelementptr inbounds %"class.NArchive::N7z::CHandler", ptr %this, i64 0, i32 6, i32 0, i32 3, i32 0, i32 0, i32 3
  %16 = load ptr, ptr %_items.i.i.i, align 8, !tbaa !49
  %arrayidx.i.i.i = getelementptr inbounds ptr, ptr %16, i64 %idxprom.i508
  %17 = load ptr, ptr %arrayidx.i.i.i, align 8, !tbaa !50
  %_size.i.i = getelementptr inbounds %"struct.NArchive::N7z::CFolder", ptr %17, i64 0, i32 2, i32 0, i32 2
  %18 = load i32, ptr %_size.i.i, align 4, !tbaa !41
  %cmp13.i = icmp sgt i32 %18, 0
  br i1 %cmp13.i, label %for.body.lr.ph.i, label %if.else.invoke

for.body.lr.ph.i:                                 ; preds = %if.then31
  %_items.i10.i = getelementptr inbounds %"class.NArchive::N7z::CHandler", ptr %this, i64 0, i32 6, i32 0, i32 0, i32 0, i32 3
  %19 = load ptr, ptr %_items.i10.i, align 8, !tbaa !49
  %wide.trip.count.i = zext i32 %18 to i64
  %min.iters.check1912 = icmp ult i32 %18, 10
  br i1 %min.iters.check1912, label %for.body.i.preheader, label %vector.scevcheck

vector.scevcheck:                                 ; preds = %for.body.lr.ph.i
  %20 = add nsw i64 %wide.trip.count.i, -1
  %21 = trunc i64 %20 to i32
  %22 = add i32 %15, %21
  %23 = icmp slt i32 %22, %15
  %24 = icmp ugt i64 %20, 4294967295
  %25 = or i1 %23, %24
  br i1 %25, label %for.body.i.preheader, label %vector.ph1913

vector.ph1913:                                    ; preds = %vector.scevcheck
  %n.vec1915 = and i64 %wide.trip.count.i, 4294967292
  br label %vector.body1918

vector.body1918:                                  ; preds = %vector.body1918, %vector.ph1913
  %offset.idx = phi i64 [ 0, %vector.ph1913 ], [ %index.next1923, %vector.body1918 ]
  %vec.phi = phi <2 x i64> [ zeroinitializer, %vector.ph1913 ], [ %31, %vector.body1918 ]
  %vec.phi1920 = phi <2 x i64> [ zeroinitializer, %vector.ph1913 ], [ %32, %vector.body1918 ]
  %26 = trunc i64 %offset.idx to i32
  %27 = add i32 %15, %26
  %28 = sext i32 %27 to i64
  %29 = getelementptr inbounds i64, ptr %19, i64 %28
  %wide.load1921 = load <2 x i64>, ptr %29, align 8, !tbaa !53
  %30 = getelementptr inbounds i64, ptr %29, i64 2
  %wide.load1922 = load <2 x i64>, ptr %30, align 8, !tbaa !53
  %31 = add <2 x i64> %wide.load1921, %vec.phi
  %32 = add <2 x i64> %wide.load1922, %vec.phi1920
  %index.next1923 = add nuw i64 %offset.idx, 4
  %33 = icmp eq i64 %index.next1923, %n.vec1915
  br i1 %33, label %middle.block1910, label %vector.body1918, !llvm.loop !90

middle.block1910:                                 ; preds = %vector.body1918
  %bin.rdx = add <2 x i64> %32, %31
  %34 = tail call i64 @llvm.vector.reduce.add.v2i64(<2 x i64> %bin.rdx)
  %cmp.n1917 = icmp eq i64 %n.vec1915, %wide.trip.count.i
  br i1 %cmp.n1917, label %if.else.invoke, label %for.body.i.preheader

for.body.i.preheader:                             ; preds = %vector.scevcheck, %for.body.lr.ph.i, %middle.block1910
  %indvars.iv.i.ph = phi i64 [ 0, %vector.scevcheck ], [ 0, %for.body.lr.ph.i ], [ %n.vec1915, %middle.block1910 ]
  %size.014.i.ph = phi i64 [ 0, %vector.scevcheck ], [ 0, %for.body.lr.ph.i ], [ %34, %middle.block1910 ]
  %35 = xor i64 %indvars.iv.i.ph, -1
  %36 = add nsw i64 %35, %wide.trip.count.i
  %xtraiter2010 = and i64 %wide.trip.count.i, 3
  %lcmp.mod2011.not = icmp eq i64 %xtraiter2010, 0
  br i1 %lcmp.mod2011.not, label %for.body.i.prol.loopexit, label %for.body.i.prol

for.body.i.prol:                                  ; preds = %for.body.i.preheader, %for.body.i.prol
  %indvars.iv.i.prol = phi i64 [ %indvars.iv.next.i.prol, %for.body.i.prol ], [ %indvars.iv.i.ph, %for.body.i.preheader ]
  %size.014.i.prol = phi i64 [ %add5.i.prol, %for.body.i.prol ], [ %size.014.i.ph, %for.body.i.preheader ]
  %prol.iter2012 = phi i64 [ %prol.iter2012.next, %for.body.i.prol ], [ 0, %for.body.i.preheader ]
  %37 = trunc i64 %indvars.iv.i.prol to i32
  %add.i.prol = add i32 %15, %37
  %idxprom.i11.i.prol = sext i32 %add.i.prol to i64
  %arrayidx.i12.i.prol = getelementptr inbounds i64, ptr %19, i64 %idxprom.i11.i.prol
  %38 = load i64, ptr %arrayidx.i12.i.prol, align 8, !tbaa !53
  %add5.i.prol = add i64 %38, %size.014.i.prol
  %indvars.iv.next.i.prol = add nuw nsw i64 %indvars.iv.i.prol, 1
  %prol.iter2012.next = add i64 %prol.iter2012, 1
  %prol.iter2012.cmp.not = icmp eq i64 %prol.iter2012.next, %xtraiter2010
  br i1 %prol.iter2012.cmp.not, label %for.body.i.prol.loopexit, label %for.body.i.prol, !llvm.loop !91

for.body.i.prol.loopexit:                         ; preds = %for.body.i.prol, %for.body.i.preheader
  %add5.i.lcssa.unr = phi i64 [ undef, %for.body.i.preheader ], [ %add5.i.prol, %for.body.i.prol ]
  %indvars.iv.i.unr = phi i64 [ %indvars.iv.i.ph, %for.body.i.preheader ], [ %indvars.iv.next.i.prol, %for.body.i.prol ]
  %size.014.i.unr = phi i64 [ %size.014.i.ph, %for.body.i.preheader ], [ %add5.i.prol, %for.body.i.prol ]
  %39 = icmp ult i64 %36, 3
  br i1 %39, label %if.else.invoke, label %for.body.i

for.body.i:                                       ; preds = %for.body.i.prol.loopexit, %for.body.i
  %indvars.iv.i = phi i64 [ %indvars.iv.next.i.3, %for.body.i ], [ %indvars.iv.i.unr, %for.body.i.prol.loopexit ]
  %size.014.i = phi i64 [ %add5.i.3, %for.body.i ], [ %size.014.i.unr, %for.body.i.prol.loopexit ]
  %40 = trunc i64 %indvars.iv.i to i32
  %add.i = add i32 %15, %40
  %idxprom.i11.i = sext i32 %add.i to i64
  %arrayidx.i12.i = getelementptr inbounds i64, ptr %19, i64 %idxprom.i11.i
  %41 = load i64, ptr %arrayidx.i12.i, align 8, !tbaa !53
  %add5.i = add i64 %41, %size.014.i
  %42 = trunc i64 %indvars.iv.i to i32
  %43 = add i32 %42, 1
  %add.i.1 = add i32 %15, %43
  %idxprom.i11.i.1 = sext i32 %add.i.1 to i64
  %arrayidx.i12.i.1 = getelementptr inbounds i64, ptr %19, i64 %idxprom.i11.i.1
  %44 = load i64, ptr %arrayidx.i12.i.1, align 8, !tbaa !53
  %add5.i.1 = add i64 %44, %add5.i
  %45 = trunc i64 %indvars.iv.i to i32
  %46 = add i32 %45, 2
  %add.i.2 = add i32 %15, %46
  %idxprom.i11.i.2 = sext i32 %add.i.2 to i64
  %arrayidx.i12.i.2 = getelementptr inbounds i64, ptr %19, i64 %idxprom.i11.i.2
  %47 = load i64, ptr %arrayidx.i12.i.2, align 8, !tbaa !53
  %add5.i.2 = add i64 %47, %add5.i.1
  %48 = trunc i64 %indvars.iv.i to i32
  %49 = add i32 %48, 3
  %add.i.3 = add i32 %15, %49
  %idxprom.i11.i.3 = sext i32 %add.i.3 to i64
  %arrayidx.i12.i.3 = getelementptr inbounds i64, ptr %19, i64 %idxprom.i11.i.3
  %50 = load i64, ptr %arrayidx.i12.i.3, align 8, !tbaa !53
  %add5.i.3 = add i64 %50, %add5.i.2
  %indvars.iv.next.i.3 = add nuw nsw i64 %indvars.iv.i, 4
  %exitcond.not.i.3 = icmp eq i64 %indvars.iv.next.i.3, %wide.trip.count.i
  br i1 %exitcond.not.i.3, label %if.else.invoke, label %for.body.i, !llvm.loop !92

lpad23:                                           ; preds = %if.else.invoke
  %51 = landingpad { ptr, i32 }
          catch ptr @_ZTIPKc
          catch ptr null
  br label %ehcleanup398

if.else.invoke:                                   ; preds = %for.body.i.prol.loopexit, %for.body.i, %middle.block1910, %if.then31, %sw.bb21
  %52 = phi i64 [ 0, %sw.bb21 ], [ 0, %if.then31 ], [ %34, %middle.block1910 ], [ %add5.i.lcssa.unr, %for.body.i.prol.loopexit ], [ %add5.i.3, %for.body.i ]
  %53 = invoke noundef nonnull align 8 dereferenceable(16) ptr @_ZN8NWindows4NCOM12CPropVariantaSEy(ptr noundef nonnull align 8 dereferenceable(16) %prop, i64 noundef %52)
          to label %sw.epilog unwind label %lpad23

sw.bb42:                                          ; preds = %entry
  %_size.i.i513 = getelementptr inbounds %"class.NArchive::N7z::CHandler", ptr %this, i64 0, i32 6, i32 0, i32 9, i32 1, i32 0, i32 2
  %54 = load i32, ptr %_size.i.i513, align 4, !tbaa !41
  %cmp.i514 = icmp sgt i32 %54, %index
  br i1 %cmp.i514, label %land.lhs.true.i, label %sw.epilog

land.lhs.true.i:                                  ; preds = %sw.bb42
  %_items.i.i515 = getelementptr inbounds %"class.NArchive::N7z::CHandler", ptr %this, i64 0, i32 6, i32 0, i32 9, i32 1, i32 0, i32 3
  %55 = load ptr, ptr %_items.i.i515, align 8, !tbaa !49
  %arrayidx.i.i517 = getelementptr inbounds i8, ptr %55, i64 %idxprom.i.i
  %56 = load i8, ptr %arrayidx.i.i517, align 1, !tbaa !93, !range !94, !noundef !95
  %tobool.not.i = icmp eq i8 %56, 0
  br i1 %tobool.not.i, label %sw.epilog, label %if.then47

if.then47:                                        ; preds = %land.lhs.true.i
  %_items.i8.i = getelementptr inbounds %"class.NArchive::N7z::CHandler", ptr %this, i64 0, i32 6, i32 0, i32 9, i32 0, i32 0, i32 3
  %57 = load ptr, ptr %_items.i8.i, align 8, !tbaa !49
  %arrayidx.i10.i = getelementptr inbounds i64, ptr %57, i64 %idxprom.i.i
  %58 = load i64, ptr %arrayidx.i10.i, align 8, !tbaa !53
  %call49 = invoke noundef nonnull align 8 dereferenceable(16) ptr @_ZN8NWindows4NCOM12CPropVariantaSEy(ptr noundef nonnull align 8 dereferenceable(16) %prop, i64 noundef %58)
          to label %sw.epilog unwind label %lpad44

lpad44:                                           ; preds = %if.then47
  %59 = landingpad { ptr, i32 }
          catch ptr @_ZTIPKc
          catch ptr null
  br label %ehcleanup398

sw.bb52:                                          ; preds = %entry
  %_size.i.i.i = getelementptr inbounds %"class.NArchive::N7z::CHandler", ptr %this, i64 0, i32 6, i32 0, i32 6, i32 1, i32 0, i32 2
  %60 = load i32, ptr %_size.i.i.i, align 4, !tbaa !41
  %cmp.i.i = icmp sgt i32 %60, %index
  br i1 %cmp.i.i, label %land.lhs.true.i.i, label %sw.epilog

land.lhs.true.i.i:                                ; preds = %sw.bb52
  %_items.i.i.i518 = getelementptr inbounds %"class.NArchive::N7z::CHandler", ptr %this, i64 0, i32 6, i32 0, i32 6, i32 1, i32 0, i32 3
  %61 = load ptr, ptr %_items.i.i.i518, align 8, !tbaa !49
  %arrayidx.i.i.i519 = getelementptr inbounds i8, ptr %61, i64 %idxprom.i.i
  %62 = load i8, ptr %arrayidx.i.i.i519, align 1, !tbaa !93, !range !94, !noundef !95
  %tobool.not.i.i = icmp eq i8 %62, 0
  br i1 %tobool.not.i.i, label %sw.epilog, label %if.then.i520

if.then.i520:                                     ; preds = %land.lhs.true.i.i
  %_items.i8.i.i = getelementptr inbounds %"class.NArchive::N7z::CHandler", ptr %this, i64 0, i32 6, i32 0, i32 6, i32 0, i32 0, i32 3
  %63 = load ptr, ptr %_items.i8.i.i, align 8, !tbaa !49
  %arrayidx.i10.i.i = getelementptr inbounds i64, ptr %63, i64 %idxprom.i.i
  %64 = load i64, ptr %arrayidx.i10.i.i, align 8, !tbaa !53
  call void @llvm.lifetime.start.p0(i64 8, ptr nonnull %ft.i) #21
  %conv.i = trunc i64 %64 to i32
  store i32 %conv.i, ptr %ft.i, align 4, !tbaa !96
  %shr.i = lshr i64 %64, 32
  %conv1.i = trunc i64 %shr.i to i32
  %dwHighDateTime.i = getelementptr inbounds %struct._FILETIME, ptr %ft.i, i64 0, i32 1
  store i32 %conv1.i, ptr %dwHighDateTime.i, align 4, !tbaa !98
  %call2.i521 = invoke noundef nonnull align 8 dereferenceable(16) ptr @_ZN8NWindows4NCOM12CPropVariantaSERK9_FILETIME(ptr noundef nonnull align 8 dereferenceable(16) %prop, ptr noundef nonnull align 4 dereferenceable(8) %ft.i)
          to label %call2.i.noexc unwind label %lpad4

call2.i.noexc:                                    ; preds = %if.then.i520
  call void @llvm.lifetime.end.p0(i64 8, ptr nonnull %ft.i) #21
  br label %sw.epilog

sw.bb55:                                          ; preds = %entry
  %_size.i.i.i523 = getelementptr inbounds %"class.NArchive::N7z::CHandler", ptr %this, i64 0, i32 6, i32 0, i32 7, i32 1, i32 0, i32 2
  %65 = load i32, ptr %_size.i.i.i523, align 4, !tbaa !41
  %cmp.i.i524 = icmp sgt i32 %65, %index
  br i1 %cmp.i.i524, label %land.lhs.true.i.i525, label %sw.epilog

land.lhs.true.i.i525:                             ; preds = %sw.bb55
  %_items.i.i.i526 = getelementptr inbounds %"class.NArchive::N7z::CHandler", ptr %this, i64 0, i32 6, i32 0, i32 7, i32 1, i32 0, i32 3
  %66 = load ptr, ptr %_items.i.i.i526, align 8, !tbaa !49
  %arrayidx.i.i.i528 = getelementptr inbounds i8, ptr %66, i64 %idxprom.i.i
  %67 = load i8, ptr %arrayidx.i.i.i528, align 1, !tbaa !93, !range !94, !noundef !95
  %tobool.not.i.i529 = icmp eq i8 %67, 0
  br i1 %tobool.not.i.i529, label %sw.epilog, label %if.then.i530

if.then.i530:                                     ; preds = %land.lhs.true.i.i525
  %_items.i8.i.i531 = getelementptr inbounds %"class.NArchive::N7z::CHandler", ptr %this, i64 0, i32 6, i32 0, i32 7, i32 0, i32 0, i32 3
  %68 = load ptr, ptr %_items.i8.i.i531, align 8, !tbaa !49
  %arrayidx.i10.i.i532 = getelementptr inbounds i64, ptr %68, i64 %idxprom.i.i
  %69 = load i64, ptr %arrayidx.i10.i.i532, align 8, !tbaa !53
  call void @llvm.lifetime.start.p0(i64 8, ptr nonnull %ft.i522) #21
  %conv.i533 = trunc i64 %69 to i32
  store i32 %conv.i533, ptr %ft.i522, align 4, !tbaa !96
  %shr.i534 = lshr i64 %69, 32
  %conv1.i535 = trunc i64 %shr.i534 to i32
  %dwHighDateTime.i536 = getelementptr inbounds %struct._FILETIME, ptr %ft.i522, i64 0, i32 1
  store i32 %conv1.i535, ptr %dwHighDateTime.i536, align 4, !tbaa !98
  %call2.i538 = invoke noundef nonnull align 8 dereferenceable(16) ptr @_ZN8NWindows4NCOM12CPropVariantaSERK9_FILETIME(ptr noundef nonnull align 8 dereferenceable(16) %prop, ptr noundef nonnull align 4 dereferenceable(8) %ft.i522)
          to label %call2.i.noexc537 unwind label %lpad4

call2.i.noexc537:                                 ; preds = %if.then.i530
  call void @llvm.lifetime.end.p0(i64 8, ptr nonnull %ft.i522) #21
  br label %sw.epilog

sw.bb58:                                          ; preds = %entry
  %_size.i.i.i541 = getelementptr inbounds %"class.NArchive::N7z::CHandler", ptr %this, i64 0, i32 6, i32 0, i32 8, i32 1, i32 0, i32 2
  %70 = load i32, ptr %_size.i.i.i541, align 4, !tbaa !41
  %cmp.i.i542 = icmp sgt i32 %70, %index
  br i1 %cmp.i.i542, label %land.lhs.true.i.i543, label %sw.epilog

land.lhs.true.i.i543:                             ; preds = %sw.bb58
  %_items.i.i.i544 = getelementptr inbounds %"class.NArchive::N7z::CHandler", ptr %this, i64 0, i32 6, i32 0, i32 8, i32 1, i32 0, i32 3
  %71 = load ptr, ptr %_items.i.i.i544, align 8, !tbaa !49
  %arrayidx.i.i.i546 = getelementptr inbounds i8, ptr %71, i64 %idxprom.i.i
  %72 = load i8, ptr %arrayidx.i.i.i546, align 1, !tbaa !93, !range !94, !noundef !95
  %tobool.not.i.i547 = icmp eq i8 %72, 0
  br i1 %tobool.not.i.i547, label %sw.epilog, label %if.then.i548

if.then.i548:                                     ; preds = %land.lhs.true.i.i543
  %_items.i8.i.i549 = getelementptr inbounds %"class.NArchive::N7z::CHandler", ptr %this, i64 0, i32 6, i32 0, i32 8, i32 0, i32 0, i32 3
  %73 = load ptr, ptr %_items.i8.i.i549, align 8, !tbaa !49
  %arrayidx.i10.i.i550 = getelementptr inbounds i64, ptr %73, i64 %idxprom.i.i
  %74 = load i64, ptr %arrayidx.i10.i.i550, align 8, !tbaa !53
  call void @llvm.lifetime.start.p0(i64 8, ptr nonnull %ft.i540) #21
  %conv.i551 = trunc i64 %74 to i32
  store i32 %conv.i551, ptr %ft.i540, align 4, !tbaa !96
  %shr.i552 = lshr i64 %74, 32
  %conv1.i553 = trunc i64 %shr.i552 to i32
  %dwHighDateTime.i554 = getelementptr inbounds %struct._FILETIME, ptr %ft.i540, i64 0, i32 1
  store i32 %conv1.i553, ptr %dwHighDateTime.i554, align 4, !tbaa !98
  %call2.i556 = invoke noundef nonnull align 8 dereferenceable(16) ptr @_ZN8NWindows4NCOM12CPropVariantaSERK9_FILETIME(ptr noundef nonnull align 8 dereferenceable(16) %prop, ptr noundef nonnull align 4 dereferenceable(8) %ft.i540)
          to label %call2.i.noexc555 unwind label %lpad4

call2.i.noexc555:                                 ; preds = %if.then.i548
  call void @llvm.lifetime.end.p0(i64 8, ptr nonnull %ft.i540) #21
  br label %sw.epilog

sw.bb61:                                          ; preds = %entry
  %AttribDefined = getelementptr inbounds %"struct.NArchive::N7z::CFileItem", ptr %1, i64 0, i32 7
  %75 = load i8, ptr %AttribDefined, align 1, !tbaa !99, !range !94, !noundef !95
  %tobool62.not = icmp eq i8 %75, 0
  br i1 %tobool62.not, label %sw.epilog, label %if.then63

if.then63:                                        ; preds = %sw.bb61
  %Attrib = getelementptr inbounds %"struct.NArchive::N7z::CFileItem", ptr %1, i64 0, i32 1
  br label %if.then69.invoke

sw.bb67:                                          ; preds = %entry
  %CrcDefined = getelementptr inbounds %"struct.NArchive::N7z::CFileItem", ptr %1, i64 0, i32 6
  %76 = load i8, ptr %CrcDefined, align 2, !tbaa !100, !range !94, !noundef !95
  %tobool68.not = icmp eq i8 %76, 0
  br i1 %tobool68.not, label %sw.epilog, label %if.then69

if.then69:                                        ; preds = %sw.bb67
  %Crc = getelementptr inbounds %"struct.NArchive::N7z::CFileItem", ptr %1, i64 0, i32 2
  br label %if.then69.invoke

if.then69.invoke:                                 ; preds = %if.then63, %if.then69
  %.in = phi ptr [ %Crc, %if.then69 ], [ %Attrib, %if.then63 ]
  %77 = load i32, ptr %.in, align 4, !tbaa !42
  %78 = invoke noundef nonnull align 8 dereferenceable(16) ptr @_ZN8NWindows4NCOM12CPropVariantaSEj(ptr noundef nonnull align 8 dereferenceable(16) %prop, i32 noundef %77)
          to label %sw.epilog unwind label %lpad4

sw.bb73:                                          ; preds = %entry
  %_items.i.i558 = getelementptr inbounds %"class.NArchive::N7z::CHandler", ptr %this, i64 0, i32 6, i32 5, i32 0, i32 3
  %79 = load ptr, ptr %_items.i.i558, align 8, !tbaa !49
  %arrayidx.i.i560 = getelementptr inbounds i32, ptr %79, i64 %idxprom.i.i
  %80 = load i32, ptr %arrayidx.i.i560, align 4, !tbaa !42
  %cmp.not.i = icmp eq i32 %80, -1
  br i1 %cmp.not.i, label %_ZNK8NArchive3N7z16CArchiveDatabase10IsItemAntiEi.exit.invoke, label %if.then.i561

if.then.i561:                                     ; preds = %sw.bb73
  %_items.i.i.i562 = getelementptr inbounds %"class.NArchive::N7z::CHandler", ptr %this, i64 0, i32 6, i32 0, i32 3, i32 0, i32 0, i32 3
  %81 = load ptr, ptr %_items.i.i.i562, align 8, !tbaa !49
  %idxprom.i.i.i563 = sext i32 %80 to i64
  %arrayidx.i.i.i564 = getelementptr inbounds ptr, ptr %81, i64 %idxprom.i.i.i563
  %82 = load ptr, ptr %arrayidx.i.i.i564, align 8, !tbaa !50
  %_size.i.i.i565 = getelementptr inbounds %class.CBaseRecordVector, ptr %82, i64 0, i32 2
  %83 = load i32, ptr %_size.i.i.i565, align 4, !tbaa !41
  %_items.i.i.i.i = getelementptr inbounds %class.CBaseRecordVector, ptr %82, i64 0, i32 3
  %84 = load ptr, ptr %_items.i.i.i.i, align 8
  %85 = zext i32 %83 to i64
  br label %for.cond.i.i

for.cond.i.i:                                     ; preds = %for.body.i.i, %if.then.i561
  %indvars.iv.i.i = phi i64 [ %87, %for.body.i.i ], [ %85, %if.then.i561 ]
  %86 = trunc i64 %indvars.iv.i.i to i32
  %cmp.i.i566 = icmp sgt i32 %86, 0
  br i1 %cmp.i.i566, label %for.body.i.i, label %_ZNK8NArchive3N7z16CArchiveDatabase10IsItemAntiEi.exit.invoke

for.body.i.i:                                     ; preds = %for.cond.i.i
  %87 = add nsw i64 %indvars.iv.i.i, -1
  %arrayidx.i.i.i.i = getelementptr inbounds ptr, ptr %84, i64 %87
  %88 = load ptr, ptr %arrayidx.i.i.i.i, align 8, !tbaa !50
  %89 = load i64, ptr %88, align 8, !tbaa !84
  %cmp4.i.i = icmp eq i64 %89, 116459265
  br i1 %cmp4.i.i, label %_ZNK8NArchive3N7z16CArchiveDatabase10IsItemAntiEi.exit.invoke, label %for.cond.i.i, !llvm.loop !87

sw.bb78:                                          ; preds = %entry
  %_size.i.i568 = getelementptr inbounds %"class.NArchive::N7z::CHandler", ptr %this, i64 0, i32 6, i32 0, i32 10, i32 0, i32 2
  %90 = load i32, ptr %_size.i.i568, align 4, !tbaa !41
  %cmp.i569 = icmp sgt i32 %90, %index
  br i1 %cmp.i569, label %land.rhs.i, label %_ZNK8NArchive3N7z16CArchiveDatabase10IsItemAntiEi.exit.invoke

land.rhs.i:                                       ; preds = %sw.bb78
  %_items.i.i570 = getelementptr inbounds %"class.NArchive::N7z::CHandler", ptr %this, i64 0, i32 6, i32 0, i32 10, i32 0, i32 3
  %91 = load ptr, ptr %_items.i.i570, align 8, !tbaa !49
  %arrayidx.i.i572 = getelementptr inbounds i8, ptr %91, i64 %idxprom.i.i
  br label %_ZNK8NArchive3N7z16CArchiveDatabase10IsItemAntiEi.exit.invoke.sink.split

_ZNK8NArchive3N7z16CArchiveDatabase10IsItemAntiEi.exit.invoke.sink.split: ; preds = %sw.bb15, %land.rhs.i
  %arrayidx.i.i572.sink = phi ptr [ %arrayidx.i.i572, %land.rhs.i ], [ %IsDir, %sw.bb15 ]
  %92 = load i8, ptr %arrayidx.i.i572.sink, align 1, !tbaa !93, !range !94, !noundef !95
  %tobool.i = icmp ne i8 %92, 0
  br label %_ZNK8NArchive3N7z16CArchiveDatabase10IsItemAntiEi.exit.invoke

_ZNK8NArchive3N7z16CArchiveDatabase10IsItemAntiEi.exit.invoke: ; preds = %for.cond.i.i, %for.body.i.i, %_ZNK8NArchive3N7z16CArchiveDatabase10IsItemAntiEi.exit.invoke.sink.split, %sw.bb78, %sw.bb73
  %93 = phi i1 [ false, %sw.bb73 ], [ false, %sw.bb78 ], [ %tobool.i, %_ZNK8NArchive3N7z16CArchiveDatabase10IsItemAntiEi.exit.invoke.sink.split ], [ %cmp.i.i566, %for.body.i.i ], [ %cmp.i.i566, %for.cond.i.i ]
  %94 = invoke noundef nonnull align 8 dereferenceable(16) ptr @_ZN8NWindows4NCOM12CPropVariantaSEb(ptr noundef nonnull align 8 dereferenceable(16) %prop, i1 noundef zeroext %93)
          to label %sw.epilog unwind label %lpad4

sw.bb84:                                          ; preds = %entry
  %_items.i573 = getelementptr inbounds %"class.NArchive::N7z::CHandler", ptr %this, i64 0, i32 6, i32 5, i32 0, i32 3
  %95 = load ptr, ptr %_items.i573, align 8, !tbaa !49
  %arrayidx.i575 = getelementptr inbounds i32, ptr %95, i64 %idxprom.i.i
  %96 = load i32, ptr %arrayidx.i575, align 4, !tbaa !42
  %cmp91.not = icmp eq i32 %96, -1
  br i1 %cmp91.not, label %sw.epilog, label %invoke.cont95

invoke.cont95:                                    ; preds = %sw.bb84
  %_items.i.i576 = getelementptr inbounds %"class.NArchive::N7z::CHandler", ptr %this, i64 0, i32 6, i32 0, i32 3, i32 0, i32 0, i32 3
  %97 = load ptr, ptr %_items.i.i576, align 8, !tbaa !49
  %idxprom.i.i577 = sext i32 %96 to i64
  %arrayidx.i.i578 = getelementptr inbounds ptr, ptr %97, i64 %idxprom.i.i577
  %98 = load ptr, ptr %arrayidx.i.i578, align 8, !tbaa !50
  call void @llvm.lifetime.start.p0(i64 16, ptr nonnull %methodsString) #21
  %_capacity.i = getelementptr inbounds %class.CStringBase, ptr %methodsString, i64 0, i32 2
  %99 = getelementptr inbounds i8, ptr %methodsString, i64 8
  store i64 0, ptr %99, align 8
  %call.i.i579 = invoke noalias noundef nonnull dereferenceable(16) ptr @_Znam(i64 noundef 16) #23
          to label %invoke.cont98 unwind label %lpad97

invoke.cont98:                                    ; preds = %invoke.cont95
  store ptr %call.i.i579, ptr %methodsString, align 8, !tbaa !55
  store i32 0, ptr %call.i.i579, align 4, !tbaa !47
  store i32 4, ptr %_capacity.i, align 4, !tbaa !57
  %_size.i = getelementptr inbounds %class.CBaseRecordVector, ptr %98, i64 0, i32 2
  %100 = load i32, ptr %_size.i, align 4, !tbaa !41
  %cmp1021591 = icmp sgt i32 %100, 0
  br i1 %cmp1021591, label %invoke.cont105.lr.ph, label %for.cond.cleanup

invoke.cont105.lr.ph:                             ; preds = %invoke.cont98
  %_items.i.i580 = getelementptr inbounds %class.CBaseRecordVector, ptr %98, i64 0, i32 3
  %_length.i583 = getelementptr inbounds %class.CStringBase, ptr %methodsString, i64 0, i32 1
  %_capacity.i590 = getelementptr inbounds %class.CStringBase, ptr %methodName, i64 0, i32 2
  %_length.i596 = getelementptr inbounds %class.CStringBase, ptr %ref.tmp122, i64 0, i32 1
  %_length.i644 = getelementptr inbounds %class.CStringBase, ptr %methodName, i64 0, i32 1
  %_length.i939 = getelementptr inbounds %class.CStringBase, ptr %ref.tmp233, i64 0, i32 1
  %_length.i763 = getelementptr inbounds %class.CStringBase, ptr %ref.tmp191, i64 0, i32 1
  %_length.i732 = getelementptr inbounds %class.CStringBase, ptr %ref.tmp164, i64 0, i32 1
  %101 = zext i32 %100 to i64
  %102 = getelementptr inbounds i8, ptr %methodName, i64 8
  br label %invoke.cont105

for.cond.cleanup.loopexit:                        ; preds = %_ZN11CStringBaseIwED2Ev.exit1333
  %.pre1653 = load ptr, ptr %methodsString, align 8, !tbaa !55
  br label %for.cond.cleanup

for.cond.cleanup:                                 ; preds = %for.cond.cleanup.loopexit, %invoke.cont98
  %103 = phi ptr [ %.pre1653, %for.cond.cleanup.loopexit ], [ %call.i.i579, %invoke.cont98 ]
  %call334 = invoke noundef nonnull align 8 dereferenceable(16) ptr @_ZN8NWindows4NCOM12CPropVariantaSEPKw(ptr noundef nonnull align 8 dereferenceable(16) %prop, ptr noundef %103)
          to label %invoke.cont333 unwind label %lpad330

lpad97:                                           ; preds = %invoke.cont95
  %104 = landingpad { ptr, i32 }
          catch ptr @_ZTIPKc
          catch ptr null
  br label %ehcleanup336

invoke.cont105:                                   ; preds = %invoke.cont105.lr.ph, %_ZN11CStringBaseIwED2Ev.exit1333
  %indvars.iv = phi i64 [ %101, %invoke.cont105.lr.ph ], [ %indvars.iv.next, %_ZN11CStringBaseIwED2Ev.exit1333 ]
  %indvars.iv.next = add nsw i64 %indvars.iv, -1
  %105 = load ptr, ptr %_items.i.i580, align 8, !tbaa !49
  %idxprom.i.i581 = and i64 %indvars.iv.next, 4294967295
  %arrayidx.i.i582 = getelementptr inbounds ptr, ptr %105, i64 %idxprom.i.i581
  %106 = load ptr, ptr %arrayidx.i.i582, align 8, !tbaa !50
  %107 = load i32, ptr %_length.i583, align 8, !tbaa !58
  %cmp.i584 = icmp eq i32 %107, 0
  br i1 %cmp.i584, label %if.end112, label %if.then109

if.then109:                                       ; preds = %invoke.cont105
  %108 = load i32, ptr %_capacity.i, align 4, !tbaa !57
  %109 = xor i32 %107, -1
  %sub2.i.i = add i32 %108, %109
  %cmp.not.i.i = icmp slt i32 %sub2.i.i, 1
  br i1 %cmp.not.i.i, label %if.end.i.i, label %_ZN11CStringBaseIwEpLEw.exit

if.end.i.i:                                       ; preds = %if.then109
  %cmp4.i.i587 = icmp sgt i32 %108, 64
  %div24.i.i = lshr i32 %108, 1
  %cmp8.i.i = icmp sgt i32 %108, 8
  %..i.i = select i1 %cmp8.i.i, i32 16, i32 4
  %delta.0.i.i = select i1 %cmp4.i.i587, i32 %div24.i.i, i32 %..i.i
  %add.i.i = add nsw i32 %delta.0.i.i, %sub2.i.i
  %cmp13.i.i = icmp slt i32 %add.i.i, 1
  %sub15.i.i = sub nsw i32 1, %sub2.i.i
  %delta.1.i.i = select i1 %cmp13.i.i, i32 %sub15.i.i, i32 %delta.0.i.i
  %add18.i.i = add nsw i32 %delta.1.i.i, %108
  %add.i.i.i = add nsw i32 %add18.i.i, 1
  %cmp.i.i.i = icmp eq i32 %add.i.i.i, %108
  br i1 %cmp.i.i.i, label %_ZN11CStringBaseIwEpLEw.exit, label %if.end.i.i.i

if.end.i.i.i:                                     ; preds = %if.end.i.i
  %conv.i.i.i = zext i32 %add.i.i.i to i64
  %110 = icmp slt i32 %add18.i.i, -1
  %111 = shl nuw nsw i64 %conv.i.i.i, 2
  %112 = select i1 %110, i64 -1, i64 %111
  %call.i.i.i589 = invoke noalias noundef nonnull ptr @_Znam(i64 noundef %112) #23
          to label %call.i.i.i.noexc unwind label %lpad104

call.i.i.i.noexc:                                 ; preds = %if.end.i.i.i
  %call.i.i.i5891894 = ptrtoint ptr %call.i.i.i589 to i64
  %cmp3.i.i.i = icmp sgt i32 %108, 0
  br i1 %cmp3.i.i.i, label %for.cond.preheader.i.i.i, label %if.end9.i.i.i

for.cond.preheader.i.i.i:                         ; preds = %call.i.i.i.noexc
  %cmp522.i.i.i = icmp sgt i32 %107, 0
  %.pre.i.i.i = load ptr, ptr %methodsString, align 8, !tbaa !55
  br i1 %cmp522.i.i.i, label %for.body.lr.ph.i.i.i, label %for.cond.cleanup.i.i.i

for.body.lr.ph.i.i.i:                             ; preds = %for.cond.preheader.i.i.i
  %.pre.i.i.i1895 = ptrtoint ptr %.pre.i.i.i to i64
  %wide.trip.count.i.i.i = zext i32 %107 to i64
  %min.iters.check1899 = icmp ult i32 %107, 8
  %113 = sub i64 %call.i.i.i5891894, %.pre.i.i.i1895
  %diff.check1896 = icmp ult i64 %113, 32
  %or.cond1924 = select i1 %min.iters.check1899, i1 true, i1 %diff.check1896
  br i1 %or.cond1924, label %for.body.i.i.i.preheader, label %vector.ph1900

vector.ph1900:                                    ; preds = %for.body.lr.ph.i.i.i
  %n.vec1902 = and i64 %wide.trip.count.i.i.i, 4294967288
  br label %vector.body1905

vector.body1905:                                  ; preds = %vector.body1905, %vector.ph1900
  %index1906 = phi i64 [ 0, %vector.ph1900 ], [ %index.next1909, %vector.body1905 ]
  %114 = getelementptr inbounds i32, ptr %.pre.i.i.i, i64 %index1906
  %wide.load1907 = load <4 x i32>, ptr %114, align 4, !tbaa !47
  %115 = getelementptr inbounds i32, ptr %114, i64 4
  %wide.load1908 = load <4 x i32>, ptr %115, align 4, !tbaa !47
  %116 = getelementptr inbounds i32, ptr %call.i.i.i589, i64 %index1906
  store <4 x i32> %wide.load1907, ptr %116, align 4, !tbaa !47
  %117 = getelementptr inbounds i32, ptr %116, i64 4
  store <4 x i32> %wide.load1908, ptr %117, align 4, !tbaa !47
  %index.next1909 = add nuw i64 %index1906, 8
  %118 = icmp eq i64 %index.next1909, %n.vec1902
  br i1 %118, label %middle.block1897, label %vector.body1905, !llvm.loop !101

middle.block1897:                                 ; preds = %vector.body1905
  %cmp.n1904 = icmp eq i64 %n.vec1902, %wide.trip.count.i.i.i
  br i1 %cmp.n1904, label %delete.notnull.i.i.i, label %for.body.i.i.i.preheader

for.body.i.i.i.preheader:                         ; preds = %for.body.lr.ph.i.i.i, %middle.block1897
  %indvars.iv.i.i.i.ph = phi i64 [ 0, %for.body.lr.ph.i.i.i ], [ %n.vec1902, %middle.block1897 ]
  %119 = xor i64 %indvars.iv.i.i.i.ph, -1
  %120 = add nsw i64 %119, %wide.trip.count.i.i.i
  %xtraiter = and i64 %wide.trip.count.i.i.i, 3
  %lcmp.mod.not = icmp eq i64 %xtraiter, 0
  br i1 %lcmp.mod.not, label %for.body.i.i.i.prol.loopexit, label %for.body.i.i.i.prol

for.body.i.i.i.prol:                              ; preds = %for.body.i.i.i.preheader, %for.body.i.i.i.prol
  %indvars.iv.i.i.i.prol = phi i64 [ %indvars.iv.next.i.i.i.prol, %for.body.i.i.i.prol ], [ %indvars.iv.i.i.i.ph, %for.body.i.i.i.preheader ]
  %prol.iter = phi i64 [ %prol.iter.next, %for.body.i.i.i.prol ], [ 0, %for.body.i.i.i.preheader ]
  %arrayidx.i.i.i588.prol = getelementptr inbounds i32, ptr %.pre.i.i.i, i64 %indvars.iv.i.i.i.prol
  %121 = load i32, ptr %arrayidx.i.i.i588.prol, align 4, !tbaa !47
  %arrayidx7.i.i.i.prol = getelementptr inbounds i32, ptr %call.i.i.i589, i64 %indvars.iv.i.i.i.prol
  store i32 %121, ptr %arrayidx7.i.i.i.prol, align 4, !tbaa !47
  %indvars.iv.next.i.i.i.prol = add nuw nsw i64 %indvars.iv.i.i.i.prol, 1
  %prol.iter.next = add i64 %prol.iter, 1
  %prol.iter.cmp.not = icmp eq i64 %prol.iter.next, %xtraiter
  br i1 %prol.iter.cmp.not, label %for.body.i.i.i.prol.loopexit, label %for.body.i.i.i.prol, !llvm.loop !102

for.body.i.i.i.prol.loopexit:                     ; preds = %for.body.i.i.i.prol, %for.body.i.i.i.preheader
  %indvars.iv.i.i.i.unr = phi i64 [ %indvars.iv.i.i.i.ph, %for.body.i.i.i.preheader ], [ %indvars.iv.next.i.i.i.prol, %for.body.i.i.i.prol ]
  %122 = icmp ult i64 %120, 3
  br i1 %122, label %delete.notnull.i.i.i, label %for.body.i.i.i

for.cond.cleanup.i.i.i:                           ; preds = %for.cond.preheader.i.i.i
  %isnull.i.i.i = icmp eq ptr %.pre.i.i.i, null
  br i1 %isnull.i.i.i, label %if.end9.i.i.i, label %delete.notnull.i.i.i

for.body.i.i.i:                                   ; preds = %for.body.i.i.i.prol.loopexit, %for.body.i.i.i
  %indvars.iv.i.i.i = phi i64 [ %indvars.iv.next.i.i.i.3, %for.body.i.i.i ], [ %indvars.iv.i.i.i.unr, %for.body.i.i.i.prol.loopexit ]
  %arrayidx.i.i.i588 = getelementptr inbounds i32, ptr %.pre.i.i.i, i64 %indvars.iv.i.i.i
  %123 = load i32, ptr %arrayidx.i.i.i588, align 4, !tbaa !47
  %arrayidx7.i.i.i = getelementptr inbounds i32, ptr %call.i.i.i589, i64 %indvars.iv.i.i.i
  store i32 %123, ptr %arrayidx7.i.i.i, align 4, !tbaa !47
  %indvars.iv.next.i.i.i = add nuw nsw i64 %indvars.iv.i.i.i, 1
  %arrayidx.i.i.i588.1 = getelementptr inbounds i32, ptr %.pre.i.i.i, i64 %indvars.iv.next.i.i.i
  %124 = load i32, ptr %arrayidx.i.i.i588.1, align 4, !tbaa !47
  %arrayidx7.i.i.i.1 = getelementptr inbounds i32, ptr %call.i.i.i589, i64 %indvars.iv.next.i.i.i
  store i32 %124, ptr %arrayidx7.i.i.i.1, align 4, !tbaa !47
  %indvars.iv.next.i.i.i.1 = add nuw nsw i64 %indvars.iv.i.i.i, 2
  %arrayidx.i.i.i588.2 = getelementptr inbounds i32, ptr %.pre.i.i.i, i64 %indvars.iv.next.i.i.i.1
  %125 = load i32, ptr %arrayidx.i.i.i588.2, align 4, !tbaa !47
  %arrayidx7.i.i.i.2 = getelementptr inbounds i32, ptr %call.i.i.i589, i64 %indvars.iv.next.i.i.i.1
  store i32 %125, ptr %arrayidx7.i.i.i.2, align 4, !tbaa !47
  %indvars.iv.next.i.i.i.2 = add nuw nsw i64 %indvars.iv.i.i.i, 3
  %arrayidx.i.i.i588.3 = getelementptr inbounds i32, ptr %.pre.i.i.i, i64 %indvars.iv.next.i.i.i.2
  %126 = load i32, ptr %arrayidx.i.i.i588.3, align 4, !tbaa !47
  %arrayidx7.i.i.i.3 = getelementptr inbounds i32, ptr %call.i.i.i589, i64 %indvars.iv.next.i.i.i.2
  store i32 %126, ptr %arrayidx7.i.i.i.3, align 4, !tbaa !47
  %indvars.iv.next.i.i.i.3 = add nuw nsw i64 %indvars.iv.i.i.i, 4
  %exitcond.not.i.i.i.3 = icmp eq i64 %indvars.iv.next.i.i.i.3, %wide.trip.count.i.i.i
  br i1 %exitcond.not.i.i.i.3, label %delete.notnull.i.i.i, label %for.body.i.i.i, !llvm.loop !103

delete.notnull.i.i.i:                             ; preds = %for.body.i.i.i.prol.loopexit, %for.body.i.i.i, %middle.block1897, %for.cond.cleanup.i.i.i
  call void @_ZdaPv(ptr noundef nonnull %.pre.i.i.i) #24
  %.pre.i.i = load i32, ptr %_length.i583, align 8, !tbaa !58
  br label %if.end9.i.i.i

if.end9.i.i.i:                                    ; preds = %delete.notnull.i.i.i, %for.cond.cleanup.i.i.i, %call.i.i.i.noexc
  %127 = phi i32 [ %.pre.i.i, %delete.notnull.i.i.i ], [ %107, %for.cond.cleanup.i.i.i ], [ %107, %call.i.i.i.noexc ]
  store ptr %call.i.i.i589, ptr %methodsString, align 8, !tbaa !55
  %idxprom13.i.i.i = sext i32 %127 to i64
  %arrayidx14.i.i.i = getelementptr inbounds i32, ptr %call.i.i.i589, i64 %idxprom13.i.i.i
  store i32 0, ptr %arrayidx14.i.i.i, align 4, !tbaa !47
  store i32 %add.i.i.i, ptr %_capacity.i, align 4, !tbaa !57
  br label %_ZN11CStringBaseIwEpLEw.exit

_ZN11CStringBaseIwEpLEw.exit:                     ; preds = %if.then109, %if.end.i.i, %if.end9.i.i.i
  %128 = phi i32 [ %107, %if.then109 ], [ %107, %if.end.i.i ], [ %127, %if.end9.i.i.i ]
  %129 = load ptr, ptr %methodsString, align 8, !tbaa !55
  %idxprom.i585 = sext i32 %128 to i64
  %arrayidx.i586 = getelementptr inbounds i32, ptr %129, i64 %idxprom.i585
  store i32 32, ptr %arrayidx.i586, align 4, !tbaa !47
  %inc.i = add nsw i32 %128, 1
  store i32 %inc.i, ptr %_length.i583, align 8, !tbaa !58
  %idxprom4.i = sext i32 %inc.i to i64
  %arrayidx5.i = getelementptr inbounds i32, ptr %129, i64 %idxprom4.i
  store i32 0, ptr %arrayidx5.i, align 4, !tbaa !47
  br label %if.end112

lpad104:                                          ; preds = %if.end.i.i.i
  %130 = landingpad { ptr, i32 }
          catch ptr @_ZTIPKc
          catch ptr null
  br label %ehcleanup335

if.end112:                                        ; preds = %_ZN11CStringBaseIwEpLEw.exit, %invoke.cont105
  call void @llvm.lifetime.start.p0(i64 16, ptr nonnull %methodName) #21
  store i64 0, ptr %102, align 8
  %call.i.i591 = invoke noalias noundef nonnull dereferenceable(16) ptr @_Znam(i64 noundef 16) #23
          to label %invoke.cont114 unwind label %lpad113

invoke.cont114:                                   ; preds = %if.end112
  store ptr %call.i.i591, ptr %methodName, align 8, !tbaa !55
  store i32 0, ptr %call.i.i591, align 4, !tbaa !47
  store i32 4, ptr %_capacity.i590, align 4, !tbaa !57
  %call.i.i594 = invoke noalias noundef nonnull dereferenceable(16) ptr @_Znam(i64 noundef 16) #23
          to label %invoke.cont116 unwind label %ehcleanup322.thread

invoke.cont116:                                   ; preds = %invoke.cont114
  store i32 0, ptr %call.i.i594, align 4, !tbaa !47
  %131 = load i64, ptr %106, align 8, !tbaa !84
  %call119 = invoke noundef zeroext i1 @_Z10FindMethodyR11CStringBaseIwE(i64 noundef %131, ptr noundef nonnull align 8 dereferenceable(16) %methodName)
          to label %invoke.cont118 unwind label %lpad117

invoke.cont118:                                   ; preds = %invoke.cont116
  br i1 %call119, label %if.else131, label %if.then121

if.then121:                                       ; preds = %invoke.cont118
  call void @llvm.lifetime.start.p0(i64 16, ptr nonnull %ref.tmp122) #21
  %132 = load i64, ptr %106, align 8, !tbaa !84
  invoke void @_Z23ConvertMethodIdToStringy(ptr nonnull sret(%class.CStringBase) align 8 %ref.tmp122, i64 noundef %132)
          to label %invoke.cont125 unwind label %lpad124

invoke.cont125:                                   ; preds = %if.then121
  %133 = load i32, ptr %_length.i596, align 8, !tbaa !58
  %134 = load i32, ptr %_capacity.i, align 4, !tbaa !57
  %135 = load i32, ptr %_length.i583, align 8, !tbaa !58
  %136 = xor i32 %135, -1
  %sub2.i.i599 = add i32 %134, %136
  %cmp.not.i.i600 = icmp slt i32 %sub2.i.i599, %133
  br i1 %cmp.not.i.i600, label %if.end.i.i602, label %_ZN11CStringBaseIwE10GrowLengthEi.exit.i

if.end.i.i602:                                    ; preds = %invoke.cont125
  %cmp4.i.i603 = icmp sgt i32 %134, 64
  %div24.i.i604 = lshr i32 %134, 1
  %cmp8.i.i605 = icmp sgt i32 %134, 8
  %..i.i606 = select i1 %cmp8.i.i605, i32 16, i32 4
  %delta.0.i.i607 = select i1 %cmp4.i.i603, i32 %div24.i.i604, i32 %..i.i606
  %add.i.i608 = add nsw i32 %delta.0.i.i607, %sub2.i.i599
  %cmp13.i.i609 = icmp slt i32 %add.i.i608, %133
  %sub15.i.i610 = sub nsw i32 %133, %sub2.i.i599
  %delta.1.i.i611 = select i1 %cmp13.i.i609, i32 %sub15.i.i610, i32 %delta.0.i.i607
  %add18.i.i612 = add nsw i32 %delta.1.i.i611, %134
  %add.i.i.i613 = add nsw i32 %add18.i.i612, 1
  %cmp.i.i.i614 = icmp eq i32 %add.i.i.i613, %134
  br i1 %cmp.i.i.i614, label %_ZN11CStringBaseIwE10GrowLengthEi.exit.i, label %if.end.i.i.i615

if.end.i.i.i615:                                  ; preds = %if.end.i.i602
  %conv.i.i.i616 = zext i32 %add.i.i.i613 to i64
  %137 = icmp slt i32 %add18.i.i612, -1
  %138 = shl nuw nsw i64 %conv.i.i.i616, 2
  %139 = select i1 %137, i64 -1, i64 %138
  %call.i.i.i637 = invoke noalias noundef nonnull ptr @_Znam(i64 noundef %139) #23
          to label %call.i.i.i.noexc636 unwind label %lpad126

call.i.i.i.noexc636:                              ; preds = %if.end.i.i.i615
  %call.i.i.i6371877 = ptrtoint ptr %call.i.i.i637 to i64
  %cmp3.i.i.i617 = icmp sgt i32 %134, 0
  br i1 %cmp3.i.i.i617, label %for.cond.preheader.i.i.i621, label %if.end9.i.i.i618

for.cond.preheader.i.i.i621:                      ; preds = %call.i.i.i.noexc636
  %cmp522.i.i.i622 = icmp sgt i32 %135, 0
  %.pre.i.i.i623 = load ptr, ptr %methodsString, align 8, !tbaa !55
  br i1 %cmp522.i.i.i622, label %for.body.lr.ph.i.i.i628, label %for.cond.cleanup.i.i.i624

for.body.lr.ph.i.i.i628:                          ; preds = %for.cond.preheader.i.i.i621
  %.pre.i.i.i6231878 = ptrtoint ptr %.pre.i.i.i623 to i64
  %wide.trip.count.i.i.i629 = zext i32 %135 to i64
  %min.iters.check1882 = icmp ult i32 %135, 8
  %140 = sub i64 %call.i.i.i6371877, %.pre.i.i.i6231878
  %diff.check1879 = icmp ult i64 %140, 32
  %or.cond1925 = select i1 %min.iters.check1882, i1 true, i1 %diff.check1879
  br i1 %or.cond1925, label %for.body.i.i.i630.preheader, label %vector.ph1883

vector.ph1883:                                    ; preds = %for.body.lr.ph.i.i.i628
  %n.vec1885 = and i64 %wide.trip.count.i.i.i629, 4294967288
  br label %vector.body1888

vector.body1888:                                  ; preds = %vector.body1888, %vector.ph1883
  %index1889 = phi i64 [ 0, %vector.ph1883 ], [ %index.next1892, %vector.body1888 ]
  %141 = getelementptr inbounds i32, ptr %.pre.i.i.i623, i64 %index1889
  %wide.load1890 = load <4 x i32>, ptr %141, align 4, !tbaa !47
  %142 = getelementptr inbounds i32, ptr %141, i64 4
  %wide.load1891 = load <4 x i32>, ptr %142, align 4, !tbaa !47
  %143 = getelementptr inbounds i32, ptr %call.i.i.i637, i64 %index1889
  store <4 x i32> %wide.load1890, ptr %143, align 4, !tbaa !47
  %144 = getelementptr inbounds i32, ptr %143, i64 4
  store <4 x i32> %wide.load1891, ptr %144, align 4, !tbaa !47
  %index.next1892 = add nuw i64 %index1889, 8
  %145 = icmp eq i64 %index.next1892, %n.vec1885
  br i1 %145, label %middle.block1880, label %vector.body1888, !llvm.loop !104

middle.block1880:                                 ; preds = %vector.body1888
  %cmp.n1887 = icmp eq i64 %n.vec1885, %wide.trip.count.i.i.i629
  br i1 %cmp.n1887, label %delete.notnull.i.i.i626, label %for.body.i.i.i630.preheader

for.body.i.i.i630.preheader:                      ; preds = %for.body.lr.ph.i.i.i628, %middle.block1880
  %indvars.iv.i.i.i631.ph = phi i64 [ 0, %for.body.lr.ph.i.i.i628 ], [ %n.vec1885, %middle.block1880 ]
  %146 = xor i64 %indvars.iv.i.i.i631.ph, -1
  %147 = add nsw i64 %146, %wide.trip.count.i.i.i629
  %xtraiter1983 = and i64 %wide.trip.count.i.i.i629, 3
  %lcmp.mod1984.not = icmp eq i64 %xtraiter1983, 0
  br i1 %lcmp.mod1984.not, label %for.body.i.i.i630.prol.loopexit, label %for.body.i.i.i630.prol

for.body.i.i.i630.prol:                           ; preds = %for.body.i.i.i630.preheader, %for.body.i.i.i630.prol
  %indvars.iv.i.i.i631.prol = phi i64 [ %indvars.iv.next.i.i.i634.prol, %for.body.i.i.i630.prol ], [ %indvars.iv.i.i.i631.ph, %for.body.i.i.i630.preheader ]
  %prol.iter1985 = phi i64 [ %prol.iter1985.next, %for.body.i.i.i630.prol ], [ 0, %for.body.i.i.i630.preheader ]
  %arrayidx.i.i.i632.prol = getelementptr inbounds i32, ptr %.pre.i.i.i623, i64 %indvars.iv.i.i.i631.prol
  %148 = load i32, ptr %arrayidx.i.i.i632.prol, align 4, !tbaa !47
  %arrayidx7.i.i.i633.prol = getelementptr inbounds i32, ptr %call.i.i.i637, i64 %indvars.iv.i.i.i631.prol
  store i32 %148, ptr %arrayidx7.i.i.i633.prol, align 4, !tbaa !47
  %indvars.iv.next.i.i.i634.prol = add nuw nsw i64 %indvars.iv.i.i.i631.prol, 1
  %prol.iter1985.next = add i64 %prol.iter1985, 1
  %prol.iter1985.cmp.not = icmp eq i64 %prol.iter1985.next, %xtraiter1983
  br i1 %prol.iter1985.cmp.not, label %for.body.i.i.i630.prol.loopexit, label %for.body.i.i.i630.prol, !llvm.loop !105

for.body.i.i.i630.prol.loopexit:                  ; preds = %for.body.i.i.i630.prol, %for.body.i.i.i630.preheader
  %indvars.iv.i.i.i631.unr = phi i64 [ %indvars.iv.i.i.i631.ph, %for.body.i.i.i630.preheader ], [ %indvars.iv.next.i.i.i634.prol, %for.body.i.i.i630.prol ]
  %149 = icmp ult i64 %147, 3
  br i1 %149, label %delete.notnull.i.i.i626, label %for.body.i.i.i630

for.cond.cleanup.i.i.i624:                        ; preds = %for.cond.preheader.i.i.i621
  %isnull.i.i.i625 = icmp eq ptr %.pre.i.i.i623, null
  br i1 %isnull.i.i.i625, label %if.end9.i.i.i618, label %delete.notnull.i.i.i626

for.body.i.i.i630:                                ; preds = %for.body.i.i.i630.prol.loopexit, %for.body.i.i.i630
  %indvars.iv.i.i.i631 = phi i64 [ %indvars.iv.next.i.i.i634.3, %for.body.i.i.i630 ], [ %indvars.iv.i.i.i631.unr, %for.body.i.i.i630.prol.loopexit ]
  %arrayidx.i.i.i632 = getelementptr inbounds i32, ptr %.pre.i.i.i623, i64 %indvars.iv.i.i.i631
  %150 = load i32, ptr %arrayidx.i.i.i632, align 4, !tbaa !47
  %arrayidx7.i.i.i633 = getelementptr inbounds i32, ptr %call.i.i.i637, i64 %indvars.iv.i.i.i631
  store i32 %150, ptr %arrayidx7.i.i.i633, align 4, !tbaa !47
  %indvars.iv.next.i.i.i634 = add nuw nsw i64 %indvars.iv.i.i.i631, 1
  %arrayidx.i.i.i632.1 = getelementptr inbounds i32, ptr %.pre.i.i.i623, i64 %indvars.iv.next.i.i.i634
  %151 = load i32, ptr %arrayidx.i.i.i632.1, align 4, !tbaa !47
  %arrayidx7.i.i.i633.1 = getelementptr inbounds i32, ptr %call.i.i.i637, i64 %indvars.iv.next.i.i.i634
  store i32 %151, ptr %arrayidx7.i.i.i633.1, align 4, !tbaa !47
  %indvars.iv.next.i.i.i634.1 = add nuw nsw i64 %indvars.iv.i.i.i631, 2
  %arrayidx.i.i.i632.2 = getelementptr inbounds i32, ptr %.pre.i.i.i623, i64 %indvars.iv.next.i.i.i634.1
  %152 = load i32, ptr %arrayidx.i.i.i632.2, align 4, !tbaa !47
  %arrayidx7.i.i.i633.2 = getelementptr inbounds i32, ptr %call.i.i.i637, i64 %indvars.iv.next.i.i.i634.1
  store i32 %152, ptr %arrayidx7.i.i.i633.2, align 4, !tbaa !47
  %indvars.iv.next.i.i.i634.2 = add nuw nsw i64 %indvars.iv.i.i.i631, 3
  %arrayidx.i.i.i632.3 = getelementptr inbounds i32, ptr %.pre.i.i.i623, i64 %indvars.iv.next.i.i.i634.2
  %153 = load i32, ptr %arrayidx.i.i.i632.3, align 4, !tbaa !47
  %arrayidx7.i.i.i633.3 = getelementptr inbounds i32, ptr %call.i.i.i637, i64 %indvars.iv.next.i.i.i634.2
  store i32 %153, ptr %arrayidx7.i.i.i633.3, align 4, !tbaa !47
  %indvars.iv.next.i.i.i634.3 = add nuw nsw i64 %indvars.iv.i.i.i631, 4
  %exitcond.not.i.i.i635.3 = icmp eq i64 %indvars.iv.next.i.i.i634.3, %wide.trip.count.i.i.i629
  br i1 %exitcond.not.i.i.i635.3, label %delete.notnull.i.i.i626, label %for.body.i.i.i630, !llvm.loop !106

delete.notnull.i.i.i626:                          ; preds = %for.body.i.i.i630.prol.loopexit, %for.body.i.i.i630, %middle.block1880, %for.cond.cleanup.i.i.i624
  call void @_ZdaPv(ptr noundef nonnull %.pre.i.i.i623) #24
  %.pre.i.i627 = load i32, ptr %_length.i583, align 8, !tbaa !58
  br label %if.end9.i.i.i618

if.end9.i.i.i618:                                 ; preds = %delete.notnull.i.i.i626, %for.cond.cleanup.i.i.i624, %call.i.i.i.noexc636
  %154 = phi i32 [ %.pre.i.i627, %delete.notnull.i.i.i626 ], [ %135, %for.cond.cleanup.i.i.i624 ], [ %135, %call.i.i.i.noexc636 ]
  store ptr %call.i.i.i637, ptr %methodsString, align 8, !tbaa !55
  %idxprom13.i.i.i619 = sext i32 %154 to i64
  %arrayidx14.i.i.i620 = getelementptr inbounds i32, ptr %call.i.i.i637, i64 %idxprom13.i.i.i619
  store i32 0, ptr %arrayidx14.i.i.i620, align 4, !tbaa !47
  store i32 %add.i.i.i613, ptr %_capacity.i, align 4, !tbaa !57
  br label %_ZN11CStringBaseIwE10GrowLengthEi.exit.i

_ZN11CStringBaseIwE10GrowLengthEi.exit.i:         ; preds = %if.end9.i.i.i618, %if.end.i.i602, %invoke.cont125
  %155 = phi i32 [ %135, %invoke.cont125 ], [ %135, %if.end.i.i602 ], [ %154, %if.end9.i.i.i618 ]
  %156 = load ptr, ptr %methodsString, align 8, !tbaa !55
  %idx.ext.i = sext i32 %155 to i64
  %add.ptr.i = getelementptr inbounds i32, ptr %156, i64 %idx.ext.i
  %157 = load ptr, ptr %ref.tmp122, align 8, !tbaa !55
  br label %while.cond.i.i

while.cond.i.i:                                   ; preds = %while.cond.i.i, %_ZN11CStringBaseIwE10GrowLengthEi.exit.i
  %src.addr.0.i.i = phi ptr [ %157, %_ZN11CStringBaseIwE10GrowLengthEi.exit.i ], [ %incdec.ptr.i.i, %while.cond.i.i ]
  %dest.addr.0.i.i = phi ptr [ %add.ptr.i, %_ZN11CStringBaseIwE10GrowLengthEi.exit.i ], [ %incdec.ptr1.i.i, %while.cond.i.i ]
  %incdec.ptr.i.i = getelementptr inbounds i32, ptr %src.addr.0.i.i, i64 1
  %158 = load i32, ptr %src.addr.0.i.i, align 4, !tbaa !47
  %incdec.ptr1.i.i = getelementptr inbounds i32, ptr %dest.addr.0.i.i, i64 1
  store i32 %158, ptr %dest.addr.0.i.i, align 4, !tbaa !47
  %cmp.not.i8.i = icmp eq i32 %158, 0
  br i1 %cmp.not.i8.i, label %invoke.cont127, label %while.cond.i.i, !llvm.loop !59

invoke.cont127:                                   ; preds = %while.cond.i.i
  %159 = load i32, ptr %_length.i596, align 8, !tbaa !58
  %add.i601 = add nsw i32 %159, %155
  store i32 %add.i601, ptr %_length.i583, align 8, !tbaa !58
  %isnull.i638 = icmp eq ptr %157, null
  br i1 %isnull.i638, label %_ZN11CStringBaseIwED2Ev.exit640, label %delete.notnull.i639

delete.notnull.i639:                              ; preds = %invoke.cont127
  call void @_ZdaPv(ptr noundef nonnull %157) #24
  br label %_ZN11CStringBaseIwED2Ev.exit640

_ZN11CStringBaseIwED2Ev.exit640:                  ; preds = %invoke.cont127, %delete.notnull.i639
  call void @llvm.lifetime.end.p0(i64 16, ptr nonnull %ref.tmp122) #21
  br label %if.else282

lpad113:                                          ; preds = %if.end112
  %160 = landingpad { ptr, i32 }
          catch ptr @_ZTIPKc
          catch ptr null
  br label %ehcleanup324

ehcleanup322.thread:                              ; preds = %invoke.cont114
  %161 = landingpad { ptr, i32 }
          catch ptr @_ZTIPKc
          catch ptr null
  br label %delete.notnull.i1338

lpad117:                                          ; preds = %if.end.i.i.i1304, %if.end.i.i.i1191, %if.end.i.i.i1133, %if.end.i.i.i1081, %if.end.i.i.i672, %invoke.cont116
  %propsString.sroa.0.1 = phi ptr [ %propsString.sroa.0.111479, %if.end.i.i.i1304 ], [ %propsString.sroa.0.111479, %if.end.i.i.i1191 ], [ %propsString.sroa.0.11, %if.end.i.i.i1133 ], [ %propsString.sroa.0.11, %if.end.i.i.i1081 ], [ %call.i.i594, %if.end.i.i.i672 ], [ %call.i.i594, %invoke.cont116 ]
  %162 = landingpad { ptr, i32 }
          catch ptr @_ZTIPKc
          catch ptr null
  br label %ehcleanup320

lpad124:                                          ; preds = %if.then121
  %163 = landingpad { ptr, i32 }
          catch ptr @_ZTIPKc
          catch ptr null
  br label %ehcleanup130

lpad126:                                          ; preds = %if.end.i.i.i615
  %164 = landingpad { ptr, i32 }
          catch ptr @_ZTIPKc
          catch ptr null
  %165 = load ptr, ptr %ref.tmp122, align 8, !tbaa !55
  %isnull.i641 = icmp eq ptr %165, null
  br i1 %isnull.i641, label %ehcleanup130, label %delete.notnull.i642

delete.notnull.i642:                              ; preds = %lpad126
  call void @_ZdaPv(ptr noundef nonnull %165) #24
  br label %ehcleanup130

ehcleanup130:                                     ; preds = %delete.notnull.i642, %lpad126, %lpad124
  %.pn476 = phi { ptr, i32 } [ %163, %lpad124 ], [ %164, %lpad126 ], [ %164, %delete.notnull.i642 ]
  call void @llvm.lifetime.end.p0(i64 16, ptr nonnull %ref.tmp122) #21
  br label %delete.notnull.i1335

if.else131:                                       ; preds = %invoke.cont118
  %166 = load i32, ptr %_length.i644, align 8, !tbaa !58
  %167 = load i32, ptr %_capacity.i, align 4, !tbaa !57
  %168 = load i32, ptr %_length.i583, align 8, !tbaa !58
  %169 = xor i32 %168, -1
  %sub2.i.i647 = add i32 %167, %169
  %cmp.not.i.i648 = icmp slt i32 %sub2.i.i647, %166
  br i1 %cmp.not.i.i648, label %if.end.i.i659, label %_ZN11CStringBaseIwE10GrowLengthEi.exit.i649

if.end.i.i659:                                    ; preds = %if.else131
  %cmp4.i.i660 = icmp sgt i32 %167, 64
  %div24.i.i661 = lshr i32 %167, 1
  %cmp8.i.i662 = icmp sgt i32 %167, 8
  %..i.i663 = select i1 %cmp8.i.i662, i32 16, i32 4
  %delta.0.i.i664 = select i1 %cmp4.i.i660, i32 %div24.i.i661, i32 %..i.i663
  %add.i.i665 = add nsw i32 %delta.0.i.i664, %sub2.i.i647
  %cmp13.i.i666 = icmp slt i32 %add.i.i665, %166
  %sub15.i.i667 = sub nsw i32 %166, %sub2.i.i647
  %delta.1.i.i668 = select i1 %cmp13.i.i666, i32 %sub15.i.i667, i32 %delta.0.i.i664
  %add18.i.i669 = add nsw i32 %delta.1.i.i668, %167
  %add.i.i.i670 = add nsw i32 %add18.i.i669, 1
  %cmp.i.i.i671 = icmp eq i32 %add.i.i.i670, %167
  br i1 %cmp.i.i.i671, label %_ZN11CStringBaseIwE10GrowLengthEi.exit.i649, label %if.end.i.i.i672

if.end.i.i.i672:                                  ; preds = %if.end.i.i659
  %conv.i.i.i673 = zext i32 %add.i.i.i670 to i64
  %170 = icmp slt i32 %add18.i.i669, -1
  %171 = shl nuw nsw i64 %conv.i.i.i673, 2
  %172 = select i1 %170, i64 -1, i64 %171
  %call.i.i.i694 = invoke noalias noundef nonnull ptr @_Znam(i64 noundef %172) #23
          to label %call.i.i.i.noexc693 unwind label %lpad117

call.i.i.i.noexc693:                              ; preds = %if.end.i.i.i672
  %call.i.i.i6941860 = ptrtoint ptr %call.i.i.i694 to i64
  %cmp3.i.i.i674 = icmp sgt i32 %167, 0
  br i1 %cmp3.i.i.i674, label %for.cond.preheader.i.i.i678, label %if.end9.i.i.i675

for.cond.preheader.i.i.i678:                      ; preds = %call.i.i.i.noexc693
  %cmp522.i.i.i679 = icmp sgt i32 %168, 0
  %.pre.i.i.i680 = load ptr, ptr %methodsString, align 8, !tbaa !55
  br i1 %cmp522.i.i.i679, label %for.body.lr.ph.i.i.i685, label %for.cond.cleanup.i.i.i681

for.body.lr.ph.i.i.i685:                          ; preds = %for.cond.preheader.i.i.i678
  %.pre.i.i.i6801861 = ptrtoint ptr %.pre.i.i.i680 to i64
  %wide.trip.count.i.i.i686 = zext i32 %168 to i64
  %min.iters.check1865 = icmp ult i32 %168, 8
  %173 = sub i64 %call.i.i.i6941860, %.pre.i.i.i6801861
  %diff.check1862 = icmp ult i64 %173, 32
  %or.cond1926 = select i1 %min.iters.check1865, i1 true, i1 %diff.check1862
  br i1 %or.cond1926, label %for.body.i.i.i687.preheader, label %vector.ph1866

vector.ph1866:                                    ; preds = %for.body.lr.ph.i.i.i685
  %n.vec1868 = and i64 %wide.trip.count.i.i.i686, 4294967288
  br label %vector.body1871

vector.body1871:                                  ; preds = %vector.body1871, %vector.ph1866
  %index1872 = phi i64 [ 0, %vector.ph1866 ], [ %index.next1875, %vector.body1871 ]
  %174 = getelementptr inbounds i32, ptr %.pre.i.i.i680, i64 %index1872
  %wide.load1873 = load <4 x i32>, ptr %174, align 4, !tbaa !47
  %175 = getelementptr inbounds i32, ptr %174, i64 4
  %wide.load1874 = load <4 x i32>, ptr %175, align 4, !tbaa !47
  %176 = getelementptr inbounds i32, ptr %call.i.i.i694, i64 %index1872
  store <4 x i32> %wide.load1873, ptr %176, align 4, !tbaa !47
  %177 = getelementptr inbounds i32, ptr %176, i64 4
  store <4 x i32> %wide.load1874, ptr %177, align 4, !tbaa !47
  %index.next1875 = add nuw i64 %index1872, 8
  %178 = icmp eq i64 %index.next1875, %n.vec1868
  br i1 %178, label %middle.block1863, label %vector.body1871, !llvm.loop !107

middle.block1863:                                 ; preds = %vector.body1871
  %cmp.n1870 = icmp eq i64 %n.vec1868, %wide.trip.count.i.i.i686
  br i1 %cmp.n1870, label %delete.notnull.i.i.i683, label %for.body.i.i.i687.preheader

for.body.i.i.i687.preheader:                      ; preds = %for.body.lr.ph.i.i.i685, %middle.block1863
  %indvars.iv.i.i.i688.ph = phi i64 [ 0, %for.body.lr.ph.i.i.i685 ], [ %n.vec1868, %middle.block1863 ]
  %179 = xor i64 %indvars.iv.i.i.i688.ph, -1
  %180 = add nsw i64 %179, %wide.trip.count.i.i.i686
  %xtraiter1986 = and i64 %wide.trip.count.i.i.i686, 3
  %lcmp.mod1987.not = icmp eq i64 %xtraiter1986, 0
  br i1 %lcmp.mod1987.not, label %for.body.i.i.i687.prol.loopexit, label %for.body.i.i.i687.prol

for.body.i.i.i687.prol:                           ; preds = %for.body.i.i.i687.preheader, %for.body.i.i.i687.prol
  %indvars.iv.i.i.i688.prol = phi i64 [ %indvars.iv.next.i.i.i691.prol, %for.body.i.i.i687.prol ], [ %indvars.iv.i.i.i688.ph, %for.body.i.i.i687.preheader ]
  %prol.iter1988 = phi i64 [ %prol.iter1988.next, %for.body.i.i.i687.prol ], [ 0, %for.body.i.i.i687.preheader ]
  %arrayidx.i.i.i689.prol = getelementptr inbounds i32, ptr %.pre.i.i.i680, i64 %indvars.iv.i.i.i688.prol
  %181 = load i32, ptr %arrayidx.i.i.i689.prol, align 4, !tbaa !47
  %arrayidx7.i.i.i690.prol = getelementptr inbounds i32, ptr %call.i.i.i694, i64 %indvars.iv.i.i.i688.prol
  store i32 %181, ptr %arrayidx7.i.i.i690.prol, align 4, !tbaa !47
  %indvars.iv.next.i.i.i691.prol = add nuw nsw i64 %indvars.iv.i.i.i688.prol, 1
  %prol.iter1988.next = add i64 %prol.iter1988, 1
  %prol.iter1988.cmp.not = icmp eq i64 %prol.iter1988.next, %xtraiter1986
  br i1 %prol.iter1988.cmp.not, label %for.body.i.i.i687.prol.loopexit, label %for.body.i.i.i687.prol, !llvm.loop !108

for.body.i.i.i687.prol.loopexit:                  ; preds = %for.body.i.i.i687.prol, %for.body.i.i.i687.preheader
  %indvars.iv.i.i.i688.unr = phi i64 [ %indvars.iv.i.i.i688.ph, %for.body.i.i.i687.preheader ], [ %indvars.iv.next.i.i.i691.prol, %for.body.i.i.i687.prol ]
  %182 = icmp ult i64 %180, 3
  br i1 %182, label %delete.notnull.i.i.i683, label %for.body.i.i.i687

for.cond.cleanup.i.i.i681:                        ; preds = %for.cond.preheader.i.i.i678
  %isnull.i.i.i682 = icmp eq ptr %.pre.i.i.i680, null
  br i1 %isnull.i.i.i682, label %if.end9.i.i.i675, label %delete.notnull.i.i.i683

for.body.i.i.i687:                                ; preds = %for.body.i.i.i687.prol.loopexit, %for.body.i.i.i687
  %indvars.iv.i.i.i688 = phi i64 [ %indvars.iv.next.i.i.i691.3, %for.body.i.i.i687 ], [ %indvars.iv.i.i.i688.unr, %for.body.i.i.i687.prol.loopexit ]
  %arrayidx.i.i.i689 = getelementptr inbounds i32, ptr %.pre.i.i.i680, i64 %indvars.iv.i.i.i688
  %183 = load i32, ptr %arrayidx.i.i.i689, align 4, !tbaa !47
  %arrayidx7.i.i.i690 = getelementptr inbounds i32, ptr %call.i.i.i694, i64 %indvars.iv.i.i.i688
  store i32 %183, ptr %arrayidx7.i.i.i690, align 4, !tbaa !47
  %indvars.iv.next.i.i.i691 = add nuw nsw i64 %indvars.iv.i.i.i688, 1
  %arrayidx.i.i.i689.1 = getelementptr inbounds i32, ptr %.pre.i.i.i680, i64 %indvars.iv.next.i.i.i691
  %184 = load i32, ptr %arrayidx.i.i.i689.1, align 4, !tbaa !47
  %arrayidx7.i.i.i690.1 = getelementptr inbounds i32, ptr %call.i.i.i694, i64 %indvars.iv.next.i.i.i691
  store i32 %184, ptr %arrayidx7.i.i.i690.1, align 4, !tbaa !47
  %indvars.iv.next.i.i.i691.1 = add nuw nsw i64 %indvars.iv.i.i.i688, 2
  %arrayidx.i.i.i689.2 = getelementptr inbounds i32, ptr %.pre.i.i.i680, i64 %indvars.iv.next.i.i.i691.1
  %185 = load i32, ptr %arrayidx.i.i.i689.2, align 4, !tbaa !47
  %arrayidx7.i.i.i690.2 = getelementptr inbounds i32, ptr %call.i.i.i694, i64 %indvars.iv.next.i.i.i691.1
  store i32 %185, ptr %arrayidx7.i.i.i690.2, align 4, !tbaa !47
  %indvars.iv.next.i.i.i691.2 = add nuw nsw i64 %indvars.iv.i.i.i688, 3
  %arrayidx.i.i.i689.3 = getelementptr inbounds i32, ptr %.pre.i.i.i680, i64 %indvars.iv.next.i.i.i691.2
  %186 = load i32, ptr %arrayidx.i.i.i689.3, align 4, !tbaa !47
  %arrayidx7.i.i.i690.3 = getelementptr inbounds i32, ptr %call.i.i.i694, i64 %indvars.iv.next.i.i.i691.2
  store i32 %186, ptr %arrayidx7.i.i.i690.3, align 4, !tbaa !47
  %indvars.iv.next.i.i.i691.3 = add nuw nsw i64 %indvars.iv.i.i.i688, 4
  %exitcond.not.i.i.i692.3 = icmp eq i64 %indvars.iv.next.i.i.i691.3, %wide.trip.count.i.i.i686
  br i1 %exitcond.not.i.i.i692.3, label %delete.notnull.i.i.i683, label %for.body.i.i.i687, !llvm.loop !109

delete.notnull.i.i.i683:                          ; preds = %for.body.i.i.i687.prol.loopexit, %for.body.i.i.i687, %middle.block1863, %for.cond.cleanup.i.i.i681
  call void @_ZdaPv(ptr noundef nonnull %.pre.i.i.i680) #24
  %.pre.i.i684 = load i32, ptr %_length.i583, align 8, !tbaa !58
  br label %if.end9.i.i.i675

if.end9.i.i.i675:                                 ; preds = %delete.notnull.i.i.i683, %for.cond.cleanup.i.i.i681, %call.i.i.i.noexc693
  %187 = phi i32 [ %.pre.i.i684, %delete.notnull.i.i.i683 ], [ %168, %for.cond.cleanup.i.i.i681 ], [ %168, %call.i.i.i.noexc693 ]
  store ptr %call.i.i.i694, ptr %methodsString, align 8, !tbaa !55
  %idxprom13.i.i.i676 = sext i32 %187 to i64
  %arrayidx14.i.i.i677 = getelementptr inbounds i32, ptr %call.i.i.i694, i64 %idxprom13.i.i.i676
  store i32 0, ptr %arrayidx14.i.i.i677, align 4, !tbaa !47
  store i32 %add.i.i.i670, ptr %_capacity.i, align 4, !tbaa !57
  br label %_ZN11CStringBaseIwE10GrowLengthEi.exit.i649

_ZN11CStringBaseIwE10GrowLengthEi.exit.i649:      ; preds = %if.end9.i.i.i675, %if.end.i.i659, %if.else131
  %188 = phi i32 [ %168, %if.else131 ], [ %168, %if.end.i.i659 ], [ %187, %if.end9.i.i.i675 ]
  %189 = load ptr, ptr %methodsString, align 8, !tbaa !55
  %idx.ext.i650 = sext i32 %188 to i64
  %add.ptr.i651 = getelementptr inbounds i32, ptr %189, i64 %idx.ext.i650
  %190 = load ptr, ptr %methodName, align 8, !tbaa !55
  br label %while.cond.i.i652

while.cond.i.i652:                                ; preds = %while.cond.i.i652, %_ZN11CStringBaseIwE10GrowLengthEi.exit.i649
  %src.addr.0.i.i653 = phi ptr [ %190, %_ZN11CStringBaseIwE10GrowLengthEi.exit.i649 ], [ %incdec.ptr.i.i655, %while.cond.i.i652 ]
  %dest.addr.0.i.i654 = phi ptr [ %add.ptr.i651, %_ZN11CStringBaseIwE10GrowLengthEi.exit.i649 ], [ %incdec.ptr1.i.i656, %while.cond.i.i652 ]
  %incdec.ptr.i.i655 = getelementptr inbounds i32, ptr %src.addr.0.i.i653, i64 1
  %191 = load i32, ptr %src.addr.0.i.i653, align 4, !tbaa !47
  %incdec.ptr1.i.i656 = getelementptr inbounds i32, ptr %dest.addr.0.i.i654, i64 1
  store i32 %191, ptr %dest.addr.0.i.i654, align 4, !tbaa !47
  %cmp.not.i8.i657 = icmp eq i32 %191, 0
  br i1 %cmp.not.i8.i657, label %invoke.cont132, label %while.cond.i.i652, !llvm.loop !59

invoke.cont132:                                   ; preds = %while.cond.i.i652
  %192 = load i32, ptr %_length.i644, align 8, !tbaa !58
  %add.i658 = add nsw i32 %192, %188
  store i32 %add.i658, ptr %_length.i583, align 8, !tbaa !58
  %193 = load i64, ptr %106, align 8, !tbaa !84
  switch i64 %193, label %if.else282 [
    i64 3, label %land.lhs.true
    i64 196865, label %land.lhs.true154
    i64 33, label %land.lhs.true176
    i64 197633, label %land.lhs.true204
    i64 116459265, label %land.lhs.true246
  ]

land.lhs.true:                                    ; preds = %invoke.cont132
  %_capacity.i696 = getelementptr inbounds %"struct.NArchive::N7z::CCoderInfo", ptr %106, i64 0, i32 1, i32 1
  %194 = load i64, ptr %_capacity.i696, align 8, !tbaa !110
  %cmp138 = icmp eq i64 %194, 1
  br i1 %cmp138, label %if.then139, label %if.else282

if.then139:                                       ; preds = %land.lhs.true
  %_items.i697 = getelementptr inbounds %"struct.NArchive::N7z::CCoderInfo", ptr %106, i64 0, i32 1, i32 2
  %195 = load ptr, ptr %_items.i697, align 8, !tbaa !111
  %196 = load i8, ptr %195, align 1, !tbaa !112
  %conv = zext i8 %196 to i64
  %add = add nuw nsw i64 %conv, 1
  call void @llvm.lifetime.start.p0(i64 128, ptr nonnull %buffer.i) #21, !noalias !113
  invoke void @_Z21ConvertUInt64ToStringyPw(i64 noundef %add, ptr noundef nonnull %buffer.i)
          to label %for.cond.i.i.i unwind label %lpad142

for.cond.i.i.i:                                   ; preds = %if.then139, %for.cond.i.i.i
  %indvars.iv.i.i.i699 = phi i64 [ %indvars.iv.next.i.i.i701, %for.cond.i.i.i ], [ 0, %if.then139 ]
  %arrayidx.i.i.i700 = getelementptr inbounds i32, ptr %buffer.i, i64 %indvars.iv.i.i.i699
  %197 = load i32, ptr %arrayidx.i.i.i700, align 4, !tbaa !47, !noalias !113
  %cmp.not.i.i.i = icmp eq i32 %197, 0
  %indvars.iv.next.i.i.i701 = add nuw i64 %indvars.iv.i.i.i699, 1
  br i1 %cmp.not.i.i.i, label %_Z11MyStringLenIwEiPKT_.exit.i.i, label %for.cond.i.i.i, !llvm.loop !116

_Z11MyStringLenIwEiPKT_.exit.i.i:                 ; preds = %for.cond.i.i.i
  %198 = trunc i64 %indvars.iv.i.i.i699 to i32
  %add.i.i.i702 = add nsw i32 %198, 1
  %cmp.i.i.i703 = icmp eq i32 %add.i.i.i702, 0
  br i1 %cmp.i.i.i703, label %_ZN11CStringBaseIwE11SetCapacityEi.exit.i.i, label %if.end9.i.i.i704

if.end9.i.i.i704:                                 ; preds = %_Z11MyStringLenIwEiPKT_.exit.i.i
  %conv.i.i.i706 = zext i32 %add.i.i.i702 to i64
  %199 = icmp slt i32 %198, -1
  %200 = shl nuw nsw i64 %conv.i.i.i706, 2
  %201 = select i1 %199, i64 -1, i64 %200
  %call.i.i.i709 = invoke noalias noundef nonnull ptr @_Znam(i64 noundef %201) #23
          to label %call.i.i.i.noexc708 unwind label %lpad142

call.i.i.i.noexc708:                              ; preds = %if.end9.i.i.i704
  store i32 0, ptr %call.i.i.i709, align 4, !tbaa !47, !noalias !113
  br label %_ZN11CStringBaseIwE11SetCapacityEi.exit.i.i

_ZN11CStringBaseIwE11SetCapacityEi.exit.i.i:      ; preds = %call.i.i.i.noexc708, %_Z11MyStringLenIwEiPKT_.exit.i.i
  %ref.tmp140.sroa.0.1 = phi ptr [ null, %_Z11MyStringLenIwEiPKT_.exit.i.i ], [ %call.i.i.i709, %call.i.i.i.noexc708 ]
  br label %while.cond.i.i.i

while.cond.i.i.i:                                 ; preds = %while.cond.i.i.i, %_ZN11CStringBaseIwE11SetCapacityEi.exit.i.i
  %src.addr.0.i.i.i = phi ptr [ %buffer.i, %_ZN11CStringBaseIwE11SetCapacityEi.exit.i.i ], [ %incdec.ptr.i.i.i, %while.cond.i.i.i ]
  %dest.addr.0.i.i.i = phi ptr [ %ref.tmp140.sroa.0.1, %_ZN11CStringBaseIwE11SetCapacityEi.exit.i.i ], [ %incdec.ptr1.i.i.i, %while.cond.i.i.i ]
  %incdec.ptr.i.i.i = getelementptr inbounds i32, ptr %src.addr.0.i.i.i, i64 1
  %202 = load i32, ptr %src.addr.0.i.i.i, align 4, !tbaa !47, !noalias !113
  %incdec.ptr1.i.i.i = getelementptr inbounds i32, ptr %dest.addr.0.i.i.i, i64 1
  store i32 %202, ptr %dest.addr.0.i.i.i, align 4, !tbaa !47, !noalias !113
  %cmp.not.i10.i.i = icmp eq i32 %202, 0
  br i1 %cmp.not.i10.i.i, label %invoke.cont145, label %while.cond.i.i.i, !llvm.loop !59

invoke.cont145:                                   ; preds = %while.cond.i.i.i
  call void @llvm.lifetime.end.p0(i64 128, ptr nonnull %buffer.i) #21, !noalias !113
  store i32 0, ptr %call.i.i594, align 4, !tbaa !47
  %cmp.i.i714 = icmp eq i32 %add.i.i.i702, 4
  br i1 %cmp.i.i714, label %_ZN11CStringBaseIwE11SetCapacityEi.exit.i, label %if.end.i.i715

if.end.i.i715:                                    ; preds = %invoke.cont145
  %conv.i.i = zext i32 %add.i.i.i702 to i64
  %203 = icmp slt i32 %198, -1
  %204 = shl nuw nsw i64 %conv.i.i, 2
  %205 = select i1 %203, i64 -1, i64 %204
  %call.i.i722 = invoke noalias noundef nonnull ptr @_Znam(i64 noundef %205) #23
          to label %if.end9.i.i unwind label %lpad146

if.end9.i.i:                                      ; preds = %if.end.i.i715
  call void @_ZdaPv(ptr noundef nonnull %call.i.i594) #24
  store i32 0, ptr %call.i.i722, align 4, !tbaa !47
  br label %_ZN11CStringBaseIwE11SetCapacityEi.exit.i

_ZN11CStringBaseIwE11SetCapacityEi.exit.i:        ; preds = %if.end9.i.i, %invoke.cont145
  %propsString.sroa.0.2 = phi ptr [ %call.i.i594, %invoke.cont145 ], [ %call.i.i722, %if.end9.i.i ]
  br label %while.cond.i.i716

while.cond.i.i716:                                ; preds = %while.cond.i.i716, %_ZN11CStringBaseIwE11SetCapacityEi.exit.i
  %src.addr.0.i.i717 = phi ptr [ %ref.tmp140.sroa.0.1, %_ZN11CStringBaseIwE11SetCapacityEi.exit.i ], [ %incdec.ptr.i.i719, %while.cond.i.i716 ]
  %dest.addr.0.i.i718 = phi ptr [ %propsString.sroa.0.2, %_ZN11CStringBaseIwE11SetCapacityEi.exit.i ], [ %incdec.ptr1.i.i720, %while.cond.i.i716 ]
  %incdec.ptr.i.i719 = getelementptr inbounds i32, ptr %src.addr.0.i.i717, i64 1
  %206 = load i32, ptr %src.addr.0.i.i717, align 4, !tbaa !47
  %incdec.ptr1.i.i720 = getelementptr inbounds i32, ptr %dest.addr.0.i.i718, i64 1
  store i32 %206, ptr %dest.addr.0.i.i718, align 4, !tbaa !47
  %cmp.not.i.i721 = icmp eq i32 %206, 0
  br i1 %cmp.not.i.i721, label %invoke.cont147, label %while.cond.i.i716, !llvm.loop !59

invoke.cont147:                                   ; preds = %while.cond.i.i716
  %isnull.i723 = icmp eq ptr %ref.tmp140.sroa.0.1, null
  br i1 %isnull.i723, label %if.end274, label %delete.notnull.i724

delete.notnull.i724:                              ; preds = %invoke.cont147
  call void @_ZdaPv(ptr noundef nonnull %ref.tmp140.sroa.0.1) #24
  br label %if.end274

lpad142:                                          ; preds = %if.end9.i.i.i704, %if.then139
  %207 = landingpad { ptr, i32 }
          catch ptr @_ZTIPKc
          catch ptr null
  br label %delete.notnull.i1335

lpad146:                                          ; preds = %if.end.i.i715
  %208 = landingpad { ptr, i32 }
          catch ptr @_ZTIPKc
          catch ptr null
  %isnull.i726 = icmp eq ptr %ref.tmp140.sroa.0.1, null
  br i1 %isnull.i726, label %delete.notnull.i1335, label %delete.notnull.i727

delete.notnull.i727:                              ; preds = %lpad146
  call void @_ZdaPv(ptr noundef nonnull %ref.tmp140.sroa.0.1) #24
  br label %delete.notnull.i1335

land.lhs.true154:                                 ; preds = %invoke.cont132
  %_capacity.i729 = getelementptr inbounds %"struct.NArchive::N7z::CCoderInfo", ptr %106, i64 0, i32 1, i32 1
  %209 = load i64, ptr %_capacity.i729, align 8, !tbaa !110
  %cmp158 = icmp eq i64 %209, 5
  br i1 %cmp158, label %if.then159, label %if.else282

if.then159:                                       ; preds = %land.lhs.true154
  %_items.i730 = getelementptr inbounds %"struct.NArchive::N7z::CCoderInfo", ptr %106, i64 0, i32 1, i32 2
  %210 = load ptr, ptr %_items.i730, align 8, !tbaa !111
  %add.ptr = getelementptr inbounds i8, ptr %210, i64 1
  %211 = load i32, ptr %add.ptr, align 4, !tbaa !42
  call void @llvm.lifetime.start.p0(i64 16, ptr nonnull %ref.tmp164) #21
  invoke fastcc void @_ZN8NArchive3N7zL21GetStringForSizeValueEj(ptr noalias nonnull align 8 %ref.tmp164, i32 noundef %211)
          to label %invoke.cont166 unwind label %lpad165

invoke.cont166:                                   ; preds = %if.then159
  store i32 0, ptr %call.i.i594, align 4, !tbaa !47
  %212 = load i32, ptr %_length.i732, align 8, !tbaa !58
  %add.i.i733 = add nsw i32 %212, 1
  %cmp.i.i735 = icmp eq i32 %add.i.i733, 4
  br i1 %cmp.i.i735, label %_ZN11CStringBaseIwE11SetCapacityEi.exit.i742, label %if.end.i.i736

if.end.i.i736:                                    ; preds = %invoke.cont166
  %conv.i.i737 = zext i32 %add.i.i733 to i64
  %213 = icmp slt i32 %212, -1
  %214 = shl nuw nsw i64 %conv.i.i737, 2
  %215 = select i1 %213, i64 -1, i64 %214
  %call.i.i752 = invoke noalias noundef nonnull ptr @_Znam(i64 noundef %215) #23
          to label %if.end9.i.i739 unwind label %lpad167

if.end9.i.i739:                                   ; preds = %if.end.i.i736
  call void @_ZdaPv(ptr noundef nonnull %call.i.i594) #24
  store i32 0, ptr %call.i.i752, align 4, !tbaa !47
  br label %_ZN11CStringBaseIwE11SetCapacityEi.exit.i742

_ZN11CStringBaseIwE11SetCapacityEi.exit.i742:     ; preds = %if.end9.i.i739, %invoke.cont166
  %propsString.sroa.0.3 = phi ptr [ %call.i.i594, %invoke.cont166 ], [ %call.i.i752, %if.end9.i.i739 ]
  %216 = load ptr, ptr %ref.tmp164, align 8, !tbaa !55
  br label %while.cond.i.i743

while.cond.i.i743:                                ; preds = %while.cond.i.i743, %_ZN11CStringBaseIwE11SetCapacityEi.exit.i742
  %src.addr.0.i.i744 = phi ptr [ %216, %_ZN11CStringBaseIwE11SetCapacityEi.exit.i742 ], [ %incdec.ptr.i.i746, %while.cond.i.i743 ]
  %dest.addr.0.i.i745 = phi ptr [ %propsString.sroa.0.3, %_ZN11CStringBaseIwE11SetCapacityEi.exit.i742 ], [ %incdec.ptr1.i.i747, %while.cond.i.i743 ]
  %incdec.ptr.i.i746 = getelementptr inbounds i32, ptr %src.addr.0.i.i744, i64 1
  %217 = load i32, ptr %src.addr.0.i.i744, align 4, !tbaa !47
  %incdec.ptr1.i.i747 = getelementptr inbounds i32, ptr %dest.addr.0.i.i745, i64 1
  store i32 %217, ptr %dest.addr.0.i.i745, align 4, !tbaa !47
  %cmp.not.i.i748 = icmp eq i32 %217, 0
  br i1 %cmp.not.i.i748, label %invoke.cont168, label %while.cond.i.i743, !llvm.loop !59

invoke.cont168:                                   ; preds = %while.cond.i.i743
  %218 = load i32, ptr %_length.i732, align 8, !tbaa !58
  %isnull.i754 = icmp eq ptr %216, null
  br i1 %isnull.i754, label %_ZN11CStringBaseIwED2Ev.exit756, label %delete.notnull.i755

delete.notnull.i755:                              ; preds = %invoke.cont168
  call void @_ZdaPv(ptr noundef nonnull %216) #24
  br label %_ZN11CStringBaseIwED2Ev.exit756

_ZN11CStringBaseIwED2Ev.exit756:                  ; preds = %invoke.cont168, %delete.notnull.i755
  call void @llvm.lifetime.end.p0(i64 16, ptr nonnull %ref.tmp164) #21
  br label %if.end274

lpad165:                                          ; preds = %if.then159
  %219 = landingpad { ptr, i32 }
          catch ptr @_ZTIPKc
          catch ptr null
  br label %ehcleanup171

lpad167:                                          ; preds = %if.end.i.i736
  %220 = landingpad { ptr, i32 }
          catch ptr @_ZTIPKc
          catch ptr null
  %221 = load ptr, ptr %ref.tmp164, align 8, !tbaa !55
  %isnull.i757 = icmp eq ptr %221, null
  br i1 %isnull.i757, label %ehcleanup171, label %delete.notnull.i758

delete.notnull.i758:                              ; preds = %lpad167
  call void @_ZdaPv(ptr noundef nonnull %221) #24
  br label %ehcleanup171

ehcleanup171:                                     ; preds = %delete.notnull.i758, %lpad167, %lpad165
  %.pn488 = phi { ptr, i32 } [ %219, %lpad165 ], [ %220, %lpad167 ], [ %220, %delete.notnull.i758 ]
  call void @llvm.lifetime.end.p0(i64 16, ptr nonnull %ref.tmp164) #21
  br label %delete.notnull.i1335

land.lhs.true176:                                 ; preds = %invoke.cont132
  %_capacity.i760 = getelementptr inbounds %"struct.NArchive::N7z::CCoderInfo", ptr %106, i64 0, i32 1, i32 1
  %222 = load i64, ptr %_capacity.i760, align 8, !tbaa !110
  %cmp180 = icmp eq i64 %222, 1
  br i1 %cmp180, label %if.then181, label %if.else282

if.then181:                                       ; preds = %land.lhs.true176
  %_items.i761 = getelementptr inbounds %"struct.NArchive::N7z::CCoderInfo", ptr %106, i64 0, i32 1, i32 2
  %223 = load ptr, ptr %_items.i761, align 8, !tbaa !111
  %224 = load i8, ptr %223, align 1, !tbaa !112
  %conv188 = zext i8 %224 to i32
  %and = and i32 %conv188, 1
  %or = or i32 %and, 2
  %div485 = lshr i32 %conv188, 1
  %add190 = add nuw nsw i32 %div485, 11
  %shl = shl i32 %or, %add190
  call void @llvm.lifetime.start.p0(i64 16, ptr nonnull %ref.tmp191) #21
  invoke fastcc void @_ZN8NArchive3N7zL21GetStringForSizeValueEj(ptr noalias nonnull align 8 %ref.tmp191, i32 noundef %shl)
          to label %invoke.cont193 unwind label %lpad192

invoke.cont193:                                   ; preds = %if.then181
  store i32 0, ptr %call.i.i594, align 4, !tbaa !47
  %225 = load i32, ptr %_length.i763, align 8, !tbaa !58
  %add.i.i764 = add nsw i32 %225, 1
  %cmp.i.i766 = icmp eq i32 %add.i.i764, 4
  br i1 %cmp.i.i766, label %_ZN11CStringBaseIwE11SetCapacityEi.exit.i773, label %if.end.i.i767

if.end.i.i767:                                    ; preds = %invoke.cont193
  %conv.i.i768 = zext i32 %add.i.i764 to i64
  %226 = icmp slt i32 %225, -1
  %227 = shl nuw nsw i64 %conv.i.i768, 2
  %228 = select i1 %226, i64 -1, i64 %227
  %call.i.i783 = invoke noalias noundef nonnull ptr @_Znam(i64 noundef %228) #23
          to label %if.end9.i.i770 unwind label %lpad194

if.end9.i.i770:                                   ; preds = %if.end.i.i767
  call void @_ZdaPv(ptr noundef nonnull %call.i.i594) #24
  store i32 0, ptr %call.i.i783, align 4, !tbaa !47
  br label %_ZN11CStringBaseIwE11SetCapacityEi.exit.i773

_ZN11CStringBaseIwE11SetCapacityEi.exit.i773:     ; preds = %if.end9.i.i770, %invoke.cont193
  %propsString.sroa.0.4 = phi ptr [ %call.i.i594, %invoke.cont193 ], [ %call.i.i783, %if.end9.i.i770 ]
  %229 = load ptr, ptr %ref.tmp191, align 8, !tbaa !55
  br label %while.cond.i.i774

while.cond.i.i774:                                ; preds = %while.cond.i.i774, %_ZN11CStringBaseIwE11SetCapacityEi.exit.i773
  %src.addr.0.i.i775 = phi ptr [ %229, %_ZN11CStringBaseIwE11SetCapacityEi.exit.i773 ], [ %incdec.ptr.i.i777, %while.cond.i.i774 ]
  %dest.addr.0.i.i776 = phi ptr [ %propsString.sroa.0.4, %_ZN11CStringBaseIwE11SetCapacityEi.exit.i773 ], [ %incdec.ptr1.i.i778, %while.cond.i.i774 ]
  %incdec.ptr.i.i777 = getelementptr inbounds i32, ptr %src.addr.0.i.i775, i64 1
  %230 = load i32, ptr %src.addr.0.i.i775, align 4, !tbaa !47
  %incdec.ptr1.i.i778 = getelementptr inbounds i32, ptr %dest.addr.0.i.i776, i64 1
  store i32 %230, ptr %dest.addr.0.i.i776, align 4, !tbaa !47
  %cmp.not.i.i779 = icmp eq i32 %230, 0
  br i1 %cmp.not.i.i779, label %invoke.cont195, label %while.cond.i.i774, !llvm.loop !59

invoke.cont195:                                   ; preds = %while.cond.i.i774
  %231 = load i32, ptr %_length.i763, align 8, !tbaa !58
  %isnull.i785 = icmp eq ptr %229, null
  br i1 %isnull.i785, label %_ZN11CStringBaseIwED2Ev.exit787, label %delete.notnull.i786

delete.notnull.i786:                              ; preds = %invoke.cont195
  call void @_ZdaPv(ptr noundef nonnull %229) #24
  br label %_ZN11CStringBaseIwED2Ev.exit787

_ZN11CStringBaseIwED2Ev.exit787:                  ; preds = %invoke.cont195, %delete.notnull.i786
  call void @llvm.lifetime.end.p0(i64 16, ptr nonnull %ref.tmp191) #21
  br label %if.end274

lpad192:                                          ; preds = %if.then181
  %232 = landingpad { ptr, i32 }
          catch ptr @_ZTIPKc
          catch ptr null
  br label %ehcleanup198

lpad194:                                          ; preds = %if.end.i.i767
  %233 = landingpad { ptr, i32 }
          catch ptr @_ZTIPKc
          catch ptr null
  %234 = load ptr, ptr %ref.tmp191, align 8, !tbaa !55
  %isnull.i788 = icmp eq ptr %234, null
  br i1 %isnull.i788, label %ehcleanup198, label %delete.notnull.i789

delete.notnull.i789:                              ; preds = %lpad194
  call void @_ZdaPv(ptr noundef nonnull %234) #24
  br label %ehcleanup198

ehcleanup198:                                     ; preds = %delete.notnull.i789, %lpad194, %lpad192
  %.pn486 = phi { ptr, i32 } [ %232, %lpad192 ], [ %233, %lpad194 ], [ %233, %delete.notnull.i789 ]
  call void @llvm.lifetime.end.p0(i64 16, ptr nonnull %ref.tmp191) #21
  br label %delete.notnull.i1335

land.lhs.true204:                                 ; preds = %invoke.cont132
  %_capacity.i791 = getelementptr inbounds %"struct.NArchive::N7z::CCoderInfo", ptr %106, i64 0, i32 1, i32 1
  %235 = load i64, ptr %_capacity.i791, align 8, !tbaa !110
  %cmp208 = icmp eq i64 %235, 5
  br i1 %cmp208, label %if.end.i.i796, label %if.else282

if.end.i.i796:                                    ; preds = %land.lhs.true204
  %_items.i792 = getelementptr inbounds %"struct.NArchive::N7z::CCoderInfo", ptr %106, i64 0, i32 1, i32 2
  %236 = load ptr, ptr %_items.i792, align 8, !tbaa !111
  %237 = load i8, ptr %236, align 1, !tbaa !112
  store i32 0, ptr %call.i.i594, align 4, !tbaa !47
  %call.i.i805 = invoke noalias noundef nonnull dereferenceable(8) ptr @_Znam(i64 noundef 8) #23
          to label %invoke.cont214 unwind label %lpad211

invoke.cont214:                                   ; preds = %if.end.i.i796
  call void @_ZdaPv(ptr noundef nonnull %call.i.i594) #24
  store i32 111, ptr %call.i.i805, align 4, !tbaa !47
  %arrayidx3.i = getelementptr inbounds i32, ptr %call.i.i805, i64 1
  store i32 0, ptr %arrayidx3.i, align 4, !tbaa !47
  call void @llvm.lifetime.start.p0(i64 128, ptr nonnull %buffer.i806) #21, !noalias !117
  %conv.i807 = zext i8 %237 to i64
  invoke void @_Z21ConvertUInt64ToStringyPw(i64 noundef %conv.i807, ptr noundef nonnull %buffer.i806)
          to label %for.cond.i.i.i808 unwind label %lpad218

for.cond.i.i.i808:                                ; preds = %invoke.cont214, %for.cond.i.i.i808
  %indvars.iv.i.i.i809 = phi i64 [ %indvars.iv.next.i.i.i812, %for.cond.i.i.i808 ], [ 0, %invoke.cont214 ]
  %arrayidx.i.i.i810 = getelementptr inbounds i32, ptr %buffer.i806, i64 %indvars.iv.i.i.i809
  %238 = load i32, ptr %arrayidx.i.i.i810, align 4, !tbaa !47, !noalias !117
  %cmp.not.i.i.i811 = icmp eq i32 %238, 0
  %indvars.iv.next.i.i.i812 = add nuw i64 %indvars.iv.i.i.i809, 1
  br i1 %cmp.not.i.i.i811, label %_Z11MyStringLenIwEiPKT_.exit.i.i813, label %for.cond.i.i.i808, !llvm.loop !116

_Z11MyStringLenIwEiPKT_.exit.i.i813:              ; preds = %for.cond.i.i.i808
  %239 = trunc i64 %indvars.iv.i.i.i809 to i32
  %add.i.i.i814 = add nsw i32 %239, 1
  %cmp.i.i.i815 = icmp eq i32 %add.i.i.i814, 0
  br i1 %cmp.i.i.i815, label %_ZN11CStringBaseIwE11SetCapacityEi.exit.i.i819, label %if.end9.i.i.i816

if.end9.i.i.i816:                                 ; preds = %_Z11MyStringLenIwEiPKT_.exit.i.i813
  %conv.i.i.i818 = zext i32 %add.i.i.i814 to i64
  %240 = icmp slt i32 %239, -1
  %241 = shl nuw nsw i64 %conv.i.i.i818, 2
  %242 = select i1 %240, i64 -1, i64 %241
  %call.i.i.i829 = invoke noalias noundef nonnull ptr @_Znam(i64 noundef %242) #23
          to label %call.i.i.i.noexc828 unwind label %lpad218

call.i.i.i.noexc828:                              ; preds = %if.end9.i.i.i816
  store i32 0, ptr %call.i.i.i829, align 4, !tbaa !47, !noalias !117
  br label %_ZN11CStringBaseIwE11SetCapacityEi.exit.i.i819

_ZN11CStringBaseIwE11SetCapacityEi.exit.i.i819:   ; preds = %call.i.i.i.noexc828, %_Z11MyStringLenIwEiPKT_.exit.i.i813
  %ref.tmp216.sroa.0.1 = phi ptr [ null, %_Z11MyStringLenIwEiPKT_.exit.i.i813 ], [ %call.i.i.i829, %call.i.i.i.noexc828 ]
  br label %while.cond.i.i.i820

while.cond.i.i.i820:                              ; preds = %while.cond.i.i.i820, %_ZN11CStringBaseIwE11SetCapacityEi.exit.i.i819
  %src.addr.0.i.i.i821 = phi ptr [ %buffer.i806, %_ZN11CStringBaseIwE11SetCapacityEi.exit.i.i819 ], [ %incdec.ptr.i.i.i823, %while.cond.i.i.i820 ]
  %dest.addr.0.i.i.i822 = phi ptr [ %ref.tmp216.sroa.0.1, %_ZN11CStringBaseIwE11SetCapacityEi.exit.i.i819 ], [ %incdec.ptr1.i.i.i824, %while.cond.i.i.i820 ]
  %incdec.ptr.i.i.i823 = getelementptr inbounds i32, ptr %src.addr.0.i.i.i821, i64 1
  %243 = load i32, ptr %src.addr.0.i.i.i821, align 4, !tbaa !47, !noalias !117
  %incdec.ptr1.i.i.i824 = getelementptr inbounds i32, ptr %dest.addr.0.i.i.i822, i64 1
  store i32 %243, ptr %dest.addr.0.i.i.i822, align 4, !tbaa !47, !noalias !117
  %cmp.not.i10.i.i825 = icmp eq i32 %243, 0
  br i1 %cmp.not.i10.i.i825, label %invoke.cont219, label %while.cond.i.i.i820, !llvm.loop !59

invoke.cont219:                                   ; preds = %while.cond.i.i.i820
  call void @llvm.lifetime.end.p0(i64 128, ptr nonnull %buffer.i806) #21, !noalias !117
  %cmp.not.i.i835 = icmp sgt i32 %239, 0
  br i1 %cmp.not.i.i835, label %if.end.i.i846, label %_ZN11CStringBaseIwE10GrowLengthEi.exit.i836

if.end.i.i846:                                    ; preds = %invoke.cont219
  %delta.1.i.i855 = call i32 @llvm.smax.i32(i32 %239, i32 4)
  %add.i.i.i857 = add nuw nsw i32 %delta.1.i.i855, 3
  %conv.i.i.i860 = zext i32 %add.i.i.i857 to i64
  %244 = shl nuw nsw i64 %conv.i.i.i860, 2
  %call.i.i.i881 = invoke noalias noundef nonnull ptr @_Znam(i64 noundef %244) #23
          to label %for.body.i.i.i874.preheader unwind label %lpad220

for.body.i.i.i874.preheader:                      ; preds = %if.end.i.i846
  %245 = load i32, ptr %call.i.i805, align 4, !tbaa !47
  store i32 %245, ptr %call.i.i.i881, align 4, !tbaa !47
  call void @_ZdaPv(ptr noundef nonnull %call.i.i805) #24
  %arrayidx14.i.i.i864 = getelementptr inbounds i32, ptr %call.i.i.i881, i64 1
  store i32 0, ptr %arrayidx14.i.i.i864, align 4, !tbaa !47
  br label %_ZN11CStringBaseIwE10GrowLengthEi.exit.i836

_ZN11CStringBaseIwE10GrowLengthEi.exit.i836:      ; preds = %for.body.i.i.i874.preheader, %invoke.cont219
  %propsString.sroa.0.6 = phi ptr [ %call.i.i.i881, %for.body.i.i.i874.preheader ], [ %call.i.i805, %invoke.cont219 ]
  %propsString.sroa.54.5 = phi i32 [ %add.i.i.i857, %for.body.i.i.i874.preheader ], [ 2, %invoke.cont219 ]
  br label %while.cond.i.i839

while.cond.i.i839:                                ; preds = %while.cond.i.i839, %_ZN11CStringBaseIwE10GrowLengthEi.exit.i836
  %src.addr.0.i.i840 = phi ptr [ %ref.tmp216.sroa.0.1, %_ZN11CStringBaseIwE10GrowLengthEi.exit.i836 ], [ %incdec.ptr.i.i842, %while.cond.i.i839 ]
  %propsString.sroa.0.6.pn = phi ptr [ %propsString.sroa.0.6, %_ZN11CStringBaseIwE10GrowLengthEi.exit.i836 ], [ %dest.addr.0.i.i841, %while.cond.i.i839 ]
  %dest.addr.0.i.i841 = getelementptr inbounds i32, ptr %propsString.sroa.0.6.pn, i64 1
  %incdec.ptr.i.i842 = getelementptr inbounds i32, ptr %src.addr.0.i.i840, i64 1
  %246 = load i32, ptr %src.addr.0.i.i840, align 4, !tbaa !47
  store i32 %246, ptr %dest.addr.0.i.i841, align 4, !tbaa !47
  %cmp.not.i8.i844 = icmp eq i32 %246, 0
  br i1 %cmp.not.i8.i844, label %invoke.cont221, label %while.cond.i.i839, !llvm.loop !59

invoke.cont221:                                   ; preds = %while.cond.i.i839
  %isnull.i883 = icmp eq ptr %ref.tmp216.sroa.0.1, null
  br i1 %isnull.i883, label %_ZN11CStringBaseIwED2Ev.exit885, label %delete.notnull.i884

delete.notnull.i884:                              ; preds = %invoke.cont221
  call void @_ZdaPv(ptr noundef nonnull %ref.tmp216.sroa.0.1) #24
  br label %_ZN11CStringBaseIwED2Ev.exit885

_ZN11CStringBaseIwED2Ev.exit885:                  ; preds = %invoke.cont221, %delete.notnull.i884
  %reass.sub = sub i32 %propsString.sroa.54.5, %239
  %sub2.i.i892 = add i32 %reass.sub, -2
  %cmp.not.i6.i = icmp slt i32 %sub2.i.i892, 4
  br i1 %cmp.not.i6.i, label %if.end.i.i902, label %_ZN11CStringBaseIwE10GrowLengthEi.exit.i893

if.end.i.i902:                                    ; preds = %_ZN11CStringBaseIwED2Ev.exit885
  %cmp4.i.i903 = icmp sgt i32 %propsString.sroa.54.5, 64
  %div24.i.i904 = lshr i32 %propsString.sroa.54.5, 1
  %cmp8.i.i905 = icmp sgt i32 %propsString.sroa.54.5, 8
  %..i.i906 = select i1 %cmp8.i.i905, i32 16, i32 4
  %delta.0.i.i907 = select i1 %cmp4.i.i903, i32 %div24.i.i904, i32 %..i.i906
  %add.i.i908 = add nsw i32 %delta.0.i.i907, %sub2.i.i892
  %cmp13.i.i909 = icmp slt i32 %add.i.i908, 4
  %sub15.i.i910 = sub i32 6, %reass.sub
  %delta.1.i.i911 = select i1 %cmp13.i.i909, i32 %sub15.i.i910, i32 %delta.0.i.i907
  %add18.i.i912 = add nsw i32 %delta.1.i.i911, %propsString.sroa.54.5
  %add.i.i.i913 = add nsw i32 %add18.i.i912, 1
  %cmp.i.i.i914 = icmp eq i32 %add.i.i.i913, %propsString.sroa.54.5
  br i1 %cmp.i.i.i914, label %_ZN11CStringBaseIwE10GrowLengthEi.exit.i893, label %if.end.i.i.i915

if.end.i.i.i915:                                  ; preds = %if.end.i.i902
  %conv.i.i.i916 = zext i32 %add.i.i.i913 to i64
  %247 = icmp slt i32 %add18.i.i912, -1
  %248 = shl nuw nsw i64 %conv.i.i.i916, 2
  %249 = select i1 %247, i64 -1, i64 %248
  %call.i.i.i937 = invoke noalias noundef nonnull ptr @_Znam(i64 noundef %249) #23
          to label %call.i.i.i.noexc936 unwind label %lpad211

call.i.i.i.noexc936:                              ; preds = %if.end.i.i.i915
  %cmp522.i.i.i922 = icmp sgt i32 %239, -1
  br i1 %cmp522.i.i.i922, label %for.body.lr.ph.i.i.i928, label %delete.notnull.i.i.i926

for.body.lr.ph.i.i.i928:                          ; preds = %call.i.i.i.noexc936
  %wide.trip.count.i.i.i929 = zext i32 %add.i.i.i814 to i64
  %250 = shl nuw nsw i64 %wide.trip.count.i.i.i929, 2
  call void @llvm.memcpy.p0.p0.i64(ptr nonnull align 4 %call.i.i.i937, ptr nonnull align 4 %propsString.sroa.0.6, i64 %250, i1 false), !tbaa !47
  br label %delete.notnull.i.i.i926

delete.notnull.i.i.i926:                          ; preds = %for.body.lr.ph.i.i.i928, %call.i.i.i.noexc936
  call void @_ZdaPv(ptr noundef nonnull %propsString.sroa.0.6) #24
  %idxprom13.i.i.i919 = sext i32 %add.i.i.i814 to i64
  %arrayidx14.i.i.i920 = getelementptr inbounds i32, ptr %call.i.i.i937, i64 %idxprom13.i.i.i919
  store i32 0, ptr %arrayidx14.i.i.i920, align 4, !tbaa !47
  br label %_ZN11CStringBaseIwE10GrowLengthEi.exit.i893

_ZN11CStringBaseIwE10GrowLengthEi.exit.i893:      ; preds = %delete.notnull.i.i.i926, %if.end.i.i902, %_ZN11CStringBaseIwED2Ev.exit885
  %propsString.sroa.0.7 = phi ptr [ %propsString.sroa.0.6, %if.end.i.i902 ], [ %call.i.i.i937, %delete.notnull.i.i.i926 ], [ %propsString.sroa.0.6, %_ZN11CStringBaseIwED2Ev.exit885 ]
  %propsString.sroa.54.6 = phi i32 [ %propsString.sroa.54.5, %if.end.i.i902 ], [ %add.i.i.i913, %delete.notnull.i.i.i926 ], [ %propsString.sroa.54.5, %_ZN11CStringBaseIwED2Ev.exit885 ]
  %propsString.sroa.0.71844 = ptrtoint ptr %propsString.sroa.0.7 to i64
  %idx.ext.i894 = sext i32 %add.i.i.i814 to i64
  %add.ptr.i895 = getelementptr i32, ptr %propsString.sroa.0.7, i64 %idx.ext.i894
  %incdec.ptr1.i.i900.3 = getelementptr inbounds i32, ptr %add.ptr.i895, i64 4
  store <4 x i32> <i32 58, i32 109, i32 101, i32 109>, ptr %add.ptr.i895, align 4, !tbaa !47
  store i32 0, ptr %incdec.ptr1.i.i900.3, align 4, !tbaa !47
  %add.i901 = add i32 %239, 5
  %251 = load ptr, ptr %_items.i792, align 8, !tbaa !111
  %add.ptr232 = getelementptr inbounds i8, ptr %251, i64 1
  %252 = load i32, ptr %add.ptr232, align 4, !tbaa !42
  call void @llvm.lifetime.start.p0(i64 16, ptr nonnull %ref.tmp233) #21
  invoke fastcc void @_ZN8NArchive3N7zL21GetStringForSizeValueEj(ptr noalias nonnull align 8 %ref.tmp233, i32 noundef %252)
          to label %invoke.cont235 unwind label %lpad234

invoke.cont235:                                   ; preds = %_ZN11CStringBaseIwE10GrowLengthEi.exit.i893
  %253 = load i32, ptr %_length.i939, align 8, !tbaa !58
  %reass.sub1657 = sub i32 %propsString.sroa.54.6, %239
  %sub2.i.i942 = add i32 %reass.sub1657, -6
  %cmp.not.i.i943 = icmp slt i32 %sub2.i.i942, %253
  br i1 %cmp.not.i.i943, label %if.end.i.i954, label %_ZN11CStringBaseIwE10GrowLengthEi.exit.i944

if.end.i.i954:                                    ; preds = %invoke.cont235
  %cmp4.i.i955 = icmp sgt i32 %propsString.sroa.54.6, 64
  %div24.i.i956 = lshr i32 %propsString.sroa.54.6, 1
  %cmp8.i.i957 = icmp sgt i32 %propsString.sroa.54.6, 8
  %..i.i958 = select i1 %cmp8.i.i957, i32 16, i32 4
  %delta.0.i.i959 = select i1 %cmp4.i.i955, i32 %div24.i.i956, i32 %..i.i958
  %add.i.i960 = add nsw i32 %delta.0.i.i959, %sub2.i.i942
  %cmp13.i.i961 = icmp slt i32 %add.i.i960, %253
  %sub15.i.i962 = sub nsw i32 %253, %sub2.i.i942
  %delta.1.i.i963 = select i1 %cmp13.i.i961, i32 %sub15.i.i962, i32 %delta.0.i.i959
  %add18.i.i964 = add nsw i32 %delta.1.i.i963, %propsString.sroa.54.6
  %add.i.i.i965 = add nsw i32 %add18.i.i964, 1
  %cmp.i.i.i966 = icmp eq i32 %add.i.i.i965, %propsString.sroa.54.6
  br i1 %cmp.i.i.i966, label %_ZN11CStringBaseIwE10GrowLengthEi.exit.i944, label %if.end.i.i.i967

if.end.i.i.i967:                                  ; preds = %if.end.i.i954
  %conv.i.i.i968 = zext i32 %add.i.i.i965 to i64
  %254 = icmp slt i32 %add18.i.i964, -1
  %255 = shl nuw nsw i64 %conv.i.i.i968, 2
  %256 = select i1 %254, i64 -1, i64 %255
  %call.i.i.i989 = invoke noalias noundef nonnull ptr @_Znam(i64 noundef %256) #23
          to label %call.i.i.i.noexc988 unwind label %lpad236

call.i.i.i.noexc988:                              ; preds = %if.end.i.i.i967
  %call.i.i.i9891843 = ptrtoint ptr %call.i.i.i989 to i64
  %cmp3.i.i.i969 = icmp sgt i32 %propsString.sroa.54.6, 0
  br i1 %cmp3.i.i.i969, label %for.cond.preheader.i.i.i973, label %if.end9.i.i.i970

for.cond.preheader.i.i.i973:                      ; preds = %call.i.i.i.noexc988
  %cmp522.i.i.i974 = icmp sgt i32 %239, -5
  br i1 %cmp522.i.i.i974, label %for.body.lr.ph.i.i.i980, label %delete.notnull.i.i.i978

for.body.lr.ph.i.i.i980:                          ; preds = %for.cond.preheader.i.i.i973
  %wide.trip.count.i.i.i981 = zext i32 %add.i901 to i64
  %min.iters.check1848 = icmp ult i32 %add.i901, 8
  %257 = sub i64 %call.i.i.i9891843, %propsString.sroa.0.71844
  %diff.check1845 = icmp ult i64 %257, 32
  %or.cond1927 = or i1 %min.iters.check1848, %diff.check1845
  br i1 %or.cond1927, label %for.body.i.i.i982.preheader, label %vector.ph1849

vector.ph1849:                                    ; preds = %for.body.lr.ph.i.i.i980
  %n.vec1851 = and i64 %wide.trip.count.i.i.i981, 4294967288
  br label %vector.body1854

vector.body1854:                                  ; preds = %vector.body1854, %vector.ph1849
  %index1855 = phi i64 [ 0, %vector.ph1849 ], [ %index.next1858, %vector.body1854 ]
  %258 = getelementptr inbounds i32, ptr %propsString.sroa.0.7, i64 %index1855
  %wide.load1856 = load <4 x i32>, ptr %258, align 4, !tbaa !47
  %259 = getelementptr inbounds i32, ptr %258, i64 4
  %wide.load1857 = load <4 x i32>, ptr %259, align 4, !tbaa !47
  %260 = getelementptr inbounds i32, ptr %call.i.i.i989, i64 %index1855
  store <4 x i32> %wide.load1856, ptr %260, align 4, !tbaa !47
  %261 = getelementptr inbounds i32, ptr %260, i64 4
  store <4 x i32> %wide.load1857, ptr %261, align 4, !tbaa !47
  %index.next1858 = add nuw i64 %index1855, 8
  %262 = icmp eq i64 %index.next1858, %n.vec1851
  br i1 %262, label %middle.block1846, label %vector.body1854, !llvm.loop !120

middle.block1846:                                 ; preds = %vector.body1854
  %cmp.n1853 = icmp eq i64 %n.vec1851, %wide.trip.count.i.i.i981
  br i1 %cmp.n1853, label %delete.notnull.i.i.i978, label %for.body.i.i.i982.preheader

for.body.i.i.i982.preheader:                      ; preds = %for.body.lr.ph.i.i.i980, %middle.block1846
  %indvars.iv.i.i.i983.ph = phi i64 [ 0, %for.body.lr.ph.i.i.i980 ], [ %n.vec1851, %middle.block1846 ]
  %263 = xor i64 %indvars.iv.i.i.i983.ph, -1
  %264 = add nsw i64 %263, %wide.trip.count.i.i.i981
  %xtraiter1989 = and i64 %wide.trip.count.i.i.i981, 3
  %lcmp.mod1990.not = icmp eq i64 %xtraiter1989, 0
  br i1 %lcmp.mod1990.not, label %for.body.i.i.i982.prol.loopexit, label %for.body.i.i.i982.prol

for.body.i.i.i982.prol:                           ; preds = %for.body.i.i.i982.preheader, %for.body.i.i.i982.prol
  %indvars.iv.i.i.i983.prol = phi i64 [ %indvars.iv.next.i.i.i986.prol, %for.body.i.i.i982.prol ], [ %indvars.iv.i.i.i983.ph, %for.body.i.i.i982.preheader ]
  %prol.iter1991 = phi i64 [ %prol.iter1991.next, %for.body.i.i.i982.prol ], [ 0, %for.body.i.i.i982.preheader ]
  %arrayidx.i.i.i984.prol = getelementptr inbounds i32, ptr %propsString.sroa.0.7, i64 %indvars.iv.i.i.i983.prol
  %265 = load i32, ptr %arrayidx.i.i.i984.prol, align 4, !tbaa !47
  %arrayidx7.i.i.i985.prol = getelementptr inbounds i32, ptr %call.i.i.i989, i64 %indvars.iv.i.i.i983.prol
  store i32 %265, ptr %arrayidx7.i.i.i985.prol, align 4, !tbaa !47
  %indvars.iv.next.i.i.i986.prol = add nuw nsw i64 %indvars.iv.i.i.i983.prol, 1
  %prol.iter1991.next = add i64 %prol.iter1991, 1
  %prol.iter1991.cmp.not = icmp eq i64 %prol.iter1991.next, %xtraiter1989
  br i1 %prol.iter1991.cmp.not, label %for.body.i.i.i982.prol.loopexit, label %for.body.i.i.i982.prol, !llvm.loop !121

for.body.i.i.i982.prol.loopexit:                  ; preds = %for.body.i.i.i982.prol, %for.body.i.i.i982.preheader
  %indvars.iv.i.i.i983.unr = phi i64 [ %indvars.iv.i.i.i983.ph, %for.body.i.i.i982.preheader ], [ %indvars.iv.next.i.i.i986.prol, %for.body.i.i.i982.prol ]
  %266 = icmp ult i64 %264, 3
  br i1 %266, label %delete.notnull.i.i.i978, label %for.body.i.i.i982

for.body.i.i.i982:                                ; preds = %for.body.i.i.i982.prol.loopexit, %for.body.i.i.i982
  %indvars.iv.i.i.i983 = phi i64 [ %indvars.iv.next.i.i.i986.3, %for.body.i.i.i982 ], [ %indvars.iv.i.i.i983.unr, %for.body.i.i.i982.prol.loopexit ]
  %arrayidx.i.i.i984 = getelementptr inbounds i32, ptr %propsString.sroa.0.7, i64 %indvars.iv.i.i.i983
  %267 = load i32, ptr %arrayidx.i.i.i984, align 4, !tbaa !47
  %arrayidx7.i.i.i985 = getelementptr inbounds i32, ptr %call.i.i.i989, i64 %indvars.iv.i.i.i983
  store i32 %267, ptr %arrayidx7.i.i.i985, align 4, !tbaa !47
  %indvars.iv.next.i.i.i986 = add nuw nsw i64 %indvars.iv.i.i.i983, 1
  %arrayidx.i.i.i984.1 = getelementptr inbounds i32, ptr %propsString.sroa.0.7, i64 %indvars.iv.next.i.i.i986
  %268 = load i32, ptr %arrayidx.i.i.i984.1, align 4, !tbaa !47
  %arrayidx7.i.i.i985.1 = getelementptr inbounds i32, ptr %call.i.i.i989, i64 %indvars.iv.next.i.i.i986
  store i32 %268, ptr %arrayidx7.i.i.i985.1, align 4, !tbaa !47
  %indvars.iv.next.i.i.i986.1 = add nuw nsw i64 %indvars.iv.i.i.i983, 2
  %arrayidx.i.i.i984.2 = getelementptr inbounds i32, ptr %propsString.sroa.0.7, i64 %indvars.iv.next.i.i.i986.1
  %269 = load i32, ptr %arrayidx.i.i.i984.2, align 4, !tbaa !47
  %arrayidx7.i.i.i985.2 = getelementptr inbounds i32, ptr %call.i.i.i989, i64 %indvars.iv.next.i.i.i986.1
  store i32 %269, ptr %arrayidx7.i.i.i985.2, align 4, !tbaa !47
  %indvars.iv.next.i.i.i986.2 = add nuw nsw i64 %indvars.iv.i.i.i983, 3
  %arrayidx.i.i.i984.3 = getelementptr inbounds i32, ptr %propsString.sroa.0.7, i64 %indvars.iv.next.i.i.i986.2
  %270 = load i32, ptr %arrayidx.i.i.i984.3, align 4, !tbaa !47
  %arrayidx7.i.i.i985.3 = getelementptr inbounds i32, ptr %call.i.i.i989, i64 %indvars.iv.next.i.i.i986.2
  store i32 %270, ptr %arrayidx7.i.i.i985.3, align 4, !tbaa !47
  %indvars.iv.next.i.i.i986.3 = add nuw nsw i64 %indvars.iv.i.i.i983, 4
  %exitcond.not.i.i.i987.3 = icmp eq i64 %indvars.iv.next.i.i.i986.3, %wide.trip.count.i.i.i981
  br i1 %exitcond.not.i.i.i987.3, label %delete.notnull.i.i.i978, label %for.body.i.i.i982, !llvm.loop !122

delete.notnull.i.i.i978:                          ; preds = %for.body.i.i.i982.prol.loopexit, %for.body.i.i.i982, %middle.block1846, %for.cond.preheader.i.i.i973
  call void @_ZdaPv(ptr noundef nonnull %propsString.sroa.0.7) #24
  br label %if.end9.i.i.i970

if.end9.i.i.i970:                                 ; preds = %delete.notnull.i.i.i978, %call.i.i.i.noexc988
  %idxprom13.i.i.i971 = sext i32 %add.i901 to i64
  %arrayidx14.i.i.i972 = getelementptr inbounds i32, ptr %call.i.i.i989, i64 %idxprom13.i.i.i971
  store i32 0, ptr %arrayidx14.i.i.i972, align 4, !tbaa !47
  br label %_ZN11CStringBaseIwE10GrowLengthEi.exit.i944

_ZN11CStringBaseIwE10GrowLengthEi.exit.i944:      ; preds = %if.end9.i.i.i970, %if.end.i.i954, %invoke.cont235
  %propsString.sroa.0.8 = phi ptr [ %propsString.sroa.0.7, %if.end.i.i954 ], [ %call.i.i.i989, %if.end9.i.i.i970 ], [ %propsString.sroa.0.7, %invoke.cont235 ]
  %idx.ext.i945 = sext i32 %add.i901 to i64
  %add.ptr.i946 = getelementptr inbounds i32, ptr %propsString.sroa.0.8, i64 %idx.ext.i945
  %271 = load ptr, ptr %ref.tmp233, align 8, !tbaa !55
  br label %while.cond.i.i947

while.cond.i.i947:                                ; preds = %while.cond.i.i947, %_ZN11CStringBaseIwE10GrowLengthEi.exit.i944
  %src.addr.0.i.i948 = phi ptr [ %271, %_ZN11CStringBaseIwE10GrowLengthEi.exit.i944 ], [ %incdec.ptr.i.i950, %while.cond.i.i947 ]
  %dest.addr.0.i.i949 = phi ptr [ %add.ptr.i946, %_ZN11CStringBaseIwE10GrowLengthEi.exit.i944 ], [ %incdec.ptr1.i.i951, %while.cond.i.i947 ]
  %incdec.ptr.i.i950 = getelementptr inbounds i32, ptr %src.addr.0.i.i948, i64 1
  %272 = load i32, ptr %src.addr.0.i.i948, align 4, !tbaa !47
  %incdec.ptr1.i.i951 = getelementptr inbounds i32, ptr %dest.addr.0.i.i949, i64 1
  store i32 %272, ptr %dest.addr.0.i.i949, align 4, !tbaa !47
  %cmp.not.i8.i952 = icmp eq i32 %272, 0
  br i1 %cmp.not.i8.i952, label %invoke.cont237, label %while.cond.i.i947, !llvm.loop !59

invoke.cont237:                                   ; preds = %while.cond.i.i947
  %273 = load i32, ptr %_length.i939, align 8, !tbaa !58
  %add.i953 = add nsw i32 %273, %add.i901
  %isnull.i991 = icmp eq ptr %271, null
  br i1 %isnull.i991, label %_ZN11CStringBaseIwED2Ev.exit993, label %delete.notnull.i992

delete.notnull.i992:                              ; preds = %invoke.cont237
  call void @_ZdaPv(ptr noundef nonnull %271) #24
  br label %_ZN11CStringBaseIwED2Ev.exit993

_ZN11CStringBaseIwED2Ev.exit993:                  ; preds = %invoke.cont237, %delete.notnull.i992
  call void @llvm.lifetime.end.p0(i64 16, ptr nonnull %ref.tmp233) #21
  br label %if.end274

lpad211:                                          ; preds = %if.end.i.i.i915, %if.end.i.i796
  %propsString.sroa.0.9 = phi ptr [ %propsString.sroa.0.6, %if.end.i.i.i915 ], [ %call.i.i594, %if.end.i.i796 ]
  %274 = landingpad { ptr, i32 }
          catch ptr @_ZTIPKc
          catch ptr null
  br label %delete.notnull.i1335

lpad218:                                          ; preds = %if.end9.i.i.i816, %invoke.cont214
  %275 = landingpad { ptr, i32 }
          catch ptr @_ZTIPKc
          catch ptr null
  br label %delete.notnull.i1335

lpad220:                                          ; preds = %if.end.i.i846
  %276 = landingpad { ptr, i32 }
          catch ptr @_ZTIPKc
          catch ptr null
  %isnull.i994 = icmp eq ptr %ref.tmp216.sroa.0.1, null
  br i1 %isnull.i994, label %delete.notnull.i1335, label %delete.notnull.i995

delete.notnull.i995:                              ; preds = %lpad220
  call void @_ZdaPv(ptr noundef nonnull %ref.tmp216.sroa.0.1) #24
  br label %delete.notnull.i1335

lpad234:                                          ; preds = %_ZN11CStringBaseIwE10GrowLengthEi.exit.i893
  %277 = landingpad { ptr, i32 }
          catch ptr @_ZTIPKc
          catch ptr null
  br label %ehcleanup240

lpad236:                                          ; preds = %if.end.i.i.i967
  %278 = landingpad { ptr, i32 }
          catch ptr @_ZTIPKc
          catch ptr null
  %279 = load ptr, ptr %ref.tmp233, align 8, !tbaa !55
  %isnull.i997 = icmp eq ptr %279, null
  br i1 %isnull.i997, label %ehcleanup240, label %delete.notnull.i998

delete.notnull.i998:                              ; preds = %lpad236
  call void @_ZdaPv(ptr noundef nonnull %279) #24
  br label %ehcleanup240

ehcleanup240:                                     ; preds = %delete.notnull.i998, %lpad236, %lpad234
  %.pn482 = phi { ptr, i32 } [ %277, %lpad234 ], [ %278, %lpad236 ], [ %278, %delete.notnull.i998 ]
  call void @llvm.lifetime.end.p0(i64 16, ptr nonnull %ref.tmp233) #21
  br label %delete.notnull.i1335

land.lhs.true246:                                 ; preds = %invoke.cont132
  %_capacity.i1000 = getelementptr inbounds %"struct.NArchive::N7z::CCoderInfo", ptr %106, i64 0, i32 1, i32 1
  %280 = load i64, ptr %_capacity.i1000, align 8, !tbaa !110
  %cmp250.not = icmp eq i64 %280, 0
  br i1 %cmp250.not, label %if.else282, label %if.then251

if.then251:                                       ; preds = %land.lhs.true246
  %_items.i1001 = getelementptr inbounds %"struct.NArchive::N7z::CCoderInfo", ptr %106, i64 0, i32 1, i32 2
  %281 = load ptr, ptr %_items.i1001, align 8, !tbaa !111
  %282 = load i8, ptr %281, align 1, !tbaa !112
  %283 = and i8 %282, 63
  call void @llvm.lifetime.start.p0(i64 128, ptr nonnull %buffer.i1002) #21, !noalias !123
  %conv.i1003 = zext i8 %283 to i64
  invoke void @_Z21ConvertUInt64ToStringyPw(i64 noundef %conv.i1003, ptr noundef nonnull %buffer.i1002)
          to label %for.cond.i.i.i1004 unwind label %lpad259

for.cond.i.i.i1004:                               ; preds = %if.then251, %for.cond.i.i.i1004
  %indvars.iv.i.i.i1005 = phi i64 [ %indvars.iv.next.i.i.i1008, %for.cond.i.i.i1004 ], [ 0, %if.then251 ]
  %arrayidx.i.i.i1006 = getelementptr inbounds i32, ptr %buffer.i1002, i64 %indvars.iv.i.i.i1005
  %284 = load i32, ptr %arrayidx.i.i.i1006, align 4, !tbaa !47, !noalias !123
  %cmp.not.i.i.i1007 = icmp eq i32 %284, 0
  %indvars.iv.next.i.i.i1008 = add nuw i64 %indvars.iv.i.i.i1005, 1
  br i1 %cmp.not.i.i.i1007, label %_Z11MyStringLenIwEiPKT_.exit.i.i1009, label %for.cond.i.i.i1004, !llvm.loop !116

_Z11MyStringLenIwEiPKT_.exit.i.i1009:             ; preds = %for.cond.i.i.i1004
  %285 = trunc i64 %indvars.iv.i.i.i1005 to i32
  %add.i.i.i1010 = add nsw i32 %285, 1
  %cmp.i.i.i1011 = icmp eq i32 %add.i.i.i1010, 0
  br i1 %cmp.i.i.i1011, label %_ZN11CStringBaseIwE11SetCapacityEi.exit.i.i1015, label %if.end9.i.i.i1012

if.end9.i.i.i1012:                                ; preds = %_Z11MyStringLenIwEiPKT_.exit.i.i1009
  %conv.i.i.i1014 = zext i32 %add.i.i.i1010 to i64
  %286 = icmp slt i32 %285, -1
  %287 = shl nuw nsw i64 %conv.i.i.i1014, 2
  %288 = select i1 %286, i64 -1, i64 %287
  %call.i.i.i1025 = invoke noalias noundef nonnull ptr @_Znam(i64 noundef %288) #23
          to label %call.i.i.i.noexc1024 unwind label %lpad259

call.i.i.i.noexc1024:                             ; preds = %if.end9.i.i.i1012
  store i32 0, ptr %call.i.i.i1025, align 4, !tbaa !47, !noalias !123
  br label %_ZN11CStringBaseIwE11SetCapacityEi.exit.i.i1015

_ZN11CStringBaseIwE11SetCapacityEi.exit.i.i1015:  ; preds = %call.i.i.i.noexc1024, %_Z11MyStringLenIwEiPKT_.exit.i.i1009
  %ref.tmp258.sroa.0.1 = phi ptr [ null, %_Z11MyStringLenIwEiPKT_.exit.i.i1009 ], [ %call.i.i.i1025, %call.i.i.i.noexc1024 ]
  br label %while.cond.i.i.i1016

while.cond.i.i.i1016:                             ; preds = %while.cond.i.i.i1016, %_ZN11CStringBaseIwE11SetCapacityEi.exit.i.i1015
  %src.addr.0.i.i.i1017 = phi ptr [ %buffer.i1002, %_ZN11CStringBaseIwE11SetCapacityEi.exit.i.i1015 ], [ %incdec.ptr.i.i.i1019, %while.cond.i.i.i1016 ]
  %dest.addr.0.i.i.i1018 = phi ptr [ %ref.tmp258.sroa.0.1, %_ZN11CStringBaseIwE11SetCapacityEi.exit.i.i1015 ], [ %incdec.ptr1.i.i.i1020, %while.cond.i.i.i1016 ]
  %incdec.ptr.i.i.i1019 = getelementptr inbounds i32, ptr %src.addr.0.i.i.i1017, i64 1
  %289 = load i32, ptr %src.addr.0.i.i.i1017, align 4, !tbaa !47, !noalias !123
  %incdec.ptr1.i.i.i1020 = getelementptr inbounds i32, ptr %dest.addr.0.i.i.i1018, i64 1
  store i32 %289, ptr %dest.addr.0.i.i.i1018, align 4, !tbaa !47, !noalias !123
  %cmp.not.i10.i.i1021 = icmp eq i32 %289, 0
  br i1 %cmp.not.i10.i.i1021, label %invoke.cont260, label %while.cond.i.i.i1016, !llvm.loop !59

invoke.cont260:                                   ; preds = %while.cond.i.i.i1016
  call void @llvm.lifetime.end.p0(i64 128, ptr nonnull %buffer.i1002) #21, !noalias !123
  store i32 0, ptr %call.i.i594, align 4, !tbaa !47
  %cmp.i.i1031 = icmp eq i32 %add.i.i.i1010, 4
  br i1 %cmp.i.i1031, label %_ZN11CStringBaseIwE11SetCapacityEi.exit.i1038, label %if.end.i.i1032

if.end.i.i1032:                                   ; preds = %invoke.cont260
  %conv.i.i1033 = zext i32 %add.i.i.i1010 to i64
  %290 = icmp slt i32 %285, -1
  %291 = shl nuw nsw i64 %conv.i.i1033, 2
  %292 = select i1 %290, i64 -1, i64 %291
  %call.i.i1048 = invoke noalias noundef nonnull ptr @_Znam(i64 noundef %292) #23
          to label %if.end9.i.i1035 unwind label %lpad261

if.end9.i.i1035:                                  ; preds = %if.end.i.i1032
  call void @_ZdaPv(ptr noundef nonnull %call.i.i594) #24
  store i32 0, ptr %call.i.i1048, align 4, !tbaa !47
  br label %_ZN11CStringBaseIwE11SetCapacityEi.exit.i1038

_ZN11CStringBaseIwE11SetCapacityEi.exit.i1038:    ; preds = %if.end9.i.i1035, %invoke.cont260
  %propsString.sroa.0.10 = phi ptr [ %call.i.i594, %invoke.cont260 ], [ %call.i.i1048, %if.end9.i.i1035 ]
  br label %while.cond.i.i1039

while.cond.i.i1039:                               ; preds = %while.cond.i.i1039, %_ZN11CStringBaseIwE11SetCapacityEi.exit.i1038
  %src.addr.0.i.i1040 = phi ptr [ %ref.tmp258.sroa.0.1, %_ZN11CStringBaseIwE11SetCapacityEi.exit.i1038 ], [ %incdec.ptr.i.i1042, %while.cond.i.i1039 ]
  %dest.addr.0.i.i1041 = phi ptr [ %propsString.sroa.0.10, %_ZN11CStringBaseIwE11SetCapacityEi.exit.i1038 ], [ %incdec.ptr1.i.i1043, %while.cond.i.i1039 ]
  %incdec.ptr.i.i1042 = getelementptr inbounds i32, ptr %src.addr.0.i.i1040, i64 1
  %293 = load i32, ptr %src.addr.0.i.i1040, align 4, !tbaa !47
  %incdec.ptr1.i.i1043 = getelementptr inbounds i32, ptr %dest.addr.0.i.i1041, i64 1
  store i32 %293, ptr %dest.addr.0.i.i1041, align 4, !tbaa !47
  %cmp.not.i.i1044 = icmp eq i32 %293, 0
  br i1 %cmp.not.i.i1044, label %invoke.cont262, label %while.cond.i.i1039, !llvm.loop !59

invoke.cont262:                                   ; preds = %while.cond.i.i1039
  %isnull.i1050 = icmp eq ptr %ref.tmp258.sroa.0.1, null
  br i1 %isnull.i1050, label %if.end274, label %delete.notnull.i1051

delete.notnull.i1051:                             ; preds = %invoke.cont262
  call void @_ZdaPv(ptr noundef nonnull %ref.tmp258.sroa.0.1) #24
  br label %if.end274

lpad259:                                          ; preds = %if.end9.i.i.i1012, %if.then251
  %294 = landingpad { ptr, i32 }
          catch ptr @_ZTIPKc
          catch ptr null
  br label %delete.notnull.i1335

lpad261:                                          ; preds = %if.end.i.i1032
  %295 = landingpad { ptr, i32 }
          catch ptr @_ZTIPKc
          catch ptr null
  %isnull.i1053 = icmp eq ptr %ref.tmp258.sroa.0.1, null
  br i1 %isnull.i1053, label %delete.notnull.i1335, label %delete.notnull.i1054

delete.notnull.i1054:                             ; preds = %lpad261
  call void @_ZdaPv(ptr noundef nonnull %ref.tmp258.sroa.0.1) #24
  br label %delete.notnull.i1335

if.end274:                                        ; preds = %delete.notnull.i1051, %invoke.cont262, %delete.notnull.i724, %invoke.cont147, %_ZN11CStringBaseIwED2Ev.exit787, %_ZN11CStringBaseIwED2Ev.exit993, %_ZN11CStringBaseIwED2Ev.exit756
  %propsString.sroa.0.11 = phi ptr [ %propsString.sroa.0.3, %_ZN11CStringBaseIwED2Ev.exit756 ], [ %propsString.sroa.0.4, %_ZN11CStringBaseIwED2Ev.exit787 ], [ %propsString.sroa.0.8, %_ZN11CStringBaseIwED2Ev.exit993 ], [ %propsString.sroa.0.2, %invoke.cont147 ], [ %propsString.sroa.0.2, %delete.notnull.i724 ], [ %propsString.sroa.0.10, %invoke.cont262 ], [ %propsString.sroa.0.10, %delete.notnull.i1051 ]
  %propsString.sroa.27.1 = phi i32 [ %218, %_ZN11CStringBaseIwED2Ev.exit756 ], [ %231, %_ZN11CStringBaseIwED2Ev.exit787 ], [ %add.i953, %_ZN11CStringBaseIwED2Ev.exit993 ], [ %198, %invoke.cont147 ], [ %198, %delete.notnull.i724 ], [ %285, %invoke.cont262 ], [ %285, %delete.notnull.i1051 ]
  %cmp.i1057 = icmp eq i32 %propsString.sroa.27.1, 0
  br i1 %cmp.i1057, label %if.else282, label %if.then277

if.then277:                                       ; preds = %if.end274
  %296 = load i32, ptr %_capacity.i, align 4, !tbaa !57
  %297 = load i32, ptr %_length.i583, align 8, !tbaa !58
  %298 = xor i32 %297, -1
  %sub2.i.i1060 = add i32 %296, %298
  %cmp.not.i.i1061 = icmp slt i32 %sub2.i.i1060, 1
  br i1 %cmp.not.i.i1061, label %if.end.i.i1068, label %invoke.cont278

if.end.i.i1068:                                   ; preds = %if.then277
  %cmp4.i.i1069 = icmp sgt i32 %296, 64
  %div24.i.i1070 = lshr i32 %296, 1
  %cmp8.i.i1071 = icmp sgt i32 %296, 8
  %..i.i1072 = select i1 %cmp8.i.i1071, i32 16, i32 4
  %delta.0.i.i1073 = select i1 %cmp4.i.i1069, i32 %div24.i.i1070, i32 %..i.i1072
  %add.i.i1074 = add nsw i32 %delta.0.i.i1073, %sub2.i.i1060
  %cmp13.i.i1075 = icmp slt i32 %add.i.i1074, 1
  %sub15.i.i1076 = sub nsw i32 1, %sub2.i.i1060
  %delta.1.i.i1077 = select i1 %cmp13.i.i1075, i32 %sub15.i.i1076, i32 %delta.0.i.i1073
  %add18.i.i1078 = add nsw i32 %delta.1.i.i1077, %296
  %add.i.i.i1079 = add nsw i32 %add18.i.i1078, 1
  %cmp.i.i.i1080 = icmp eq i32 %add.i.i.i1079, %296
  br i1 %cmp.i.i.i1080, label %invoke.cont278, label %if.end.i.i.i1081

if.end.i.i.i1081:                                 ; preds = %if.end.i.i1068
  %conv.i.i.i1082 = zext i32 %add.i.i.i1079 to i64
  %299 = icmp slt i32 %add18.i.i1078, -1
  %300 = shl nuw nsw i64 %conv.i.i.i1082, 2
  %301 = select i1 %299, i64 -1, i64 %300
  %call.i.i.i1103 = invoke noalias noundef nonnull ptr @_Znam(i64 noundef %301) #23
          to label %call.i.i.i.noexc1102 unwind label %lpad117

call.i.i.i.noexc1102:                             ; preds = %if.end.i.i.i1081
  %call.i.i.i11031826 = ptrtoint ptr %call.i.i.i1103 to i64
  %cmp3.i.i.i1083 = icmp sgt i32 %296, 0
  br i1 %cmp3.i.i.i1083, label %for.cond.preheader.i.i.i1087, label %if.end9.i.i.i1084

for.cond.preheader.i.i.i1087:                     ; preds = %call.i.i.i.noexc1102
  %cmp522.i.i.i1088 = icmp sgt i32 %297, 0
  %.pre.i.i.i1089 = load ptr, ptr %methodsString, align 8, !tbaa !55
  br i1 %cmp522.i.i.i1088, label %for.body.lr.ph.i.i.i1094, label %for.cond.cleanup.i.i.i1090

for.body.lr.ph.i.i.i1094:                         ; preds = %for.cond.preheader.i.i.i1087
  %.pre.i.i.i10891827 = ptrtoint ptr %.pre.i.i.i1089 to i64
  %wide.trip.count.i.i.i1095 = zext i32 %297 to i64
  %min.iters.check1831 = icmp ult i32 %297, 8
  %302 = sub i64 %call.i.i.i11031826, %.pre.i.i.i10891827
  %diff.check1828 = icmp ult i64 %302, 32
  %or.cond1928 = select i1 %min.iters.check1831, i1 true, i1 %diff.check1828
  br i1 %or.cond1928, label %for.body.i.i.i1096.preheader, label %vector.ph1832

vector.ph1832:                                    ; preds = %for.body.lr.ph.i.i.i1094
  %n.vec1834 = and i64 %wide.trip.count.i.i.i1095, 4294967288
  br label %vector.body1837

vector.body1837:                                  ; preds = %vector.body1837, %vector.ph1832
  %index1838 = phi i64 [ 0, %vector.ph1832 ], [ %index.next1841, %vector.body1837 ]
  %303 = getelementptr inbounds i32, ptr %.pre.i.i.i1089, i64 %index1838
  %wide.load1839 = load <4 x i32>, ptr %303, align 4, !tbaa !47
  %304 = getelementptr inbounds i32, ptr %303, i64 4
  %wide.load1840 = load <4 x i32>, ptr %304, align 4, !tbaa !47
  %305 = getelementptr inbounds i32, ptr %call.i.i.i1103, i64 %index1838
  store <4 x i32> %wide.load1839, ptr %305, align 4, !tbaa !47
  %306 = getelementptr inbounds i32, ptr %305, i64 4
  store <4 x i32> %wide.load1840, ptr %306, align 4, !tbaa !47
  %index.next1841 = add nuw i64 %index1838, 8
  %307 = icmp eq i64 %index.next1841, %n.vec1834
  br i1 %307, label %middle.block1829, label %vector.body1837, !llvm.loop !126

middle.block1829:                                 ; preds = %vector.body1837
  %cmp.n1836 = icmp eq i64 %n.vec1834, %wide.trip.count.i.i.i1095
  br i1 %cmp.n1836, label %delete.notnull.i.i.i1092, label %for.body.i.i.i1096.preheader

for.body.i.i.i1096.preheader:                     ; preds = %for.body.lr.ph.i.i.i1094, %middle.block1829
  %indvars.iv.i.i.i1097.ph = phi i64 [ 0, %for.body.lr.ph.i.i.i1094 ], [ %n.vec1834, %middle.block1829 ]
  %308 = xor i64 %indvars.iv.i.i.i1097.ph, -1
  %309 = add nsw i64 %308, %wide.trip.count.i.i.i1095
  %xtraiter1992 = and i64 %wide.trip.count.i.i.i1095, 3
  %lcmp.mod1993.not = icmp eq i64 %xtraiter1992, 0
  br i1 %lcmp.mod1993.not, label %for.body.i.i.i1096.prol.loopexit, label %for.body.i.i.i1096.prol

for.body.i.i.i1096.prol:                          ; preds = %for.body.i.i.i1096.preheader, %for.body.i.i.i1096.prol
  %indvars.iv.i.i.i1097.prol = phi i64 [ %indvars.iv.next.i.i.i1100.prol, %for.body.i.i.i1096.prol ], [ %indvars.iv.i.i.i1097.ph, %for.body.i.i.i1096.preheader ]
  %prol.iter1994 = phi i64 [ %prol.iter1994.next, %for.body.i.i.i1096.prol ], [ 0, %for.body.i.i.i1096.preheader ]
  %arrayidx.i.i.i1098.prol = getelementptr inbounds i32, ptr %.pre.i.i.i1089, i64 %indvars.iv.i.i.i1097.prol
  %310 = load i32, ptr %arrayidx.i.i.i1098.prol, align 4, !tbaa !47
  %arrayidx7.i.i.i1099.prol = getelementptr inbounds i32, ptr %call.i.i.i1103, i64 %indvars.iv.i.i.i1097.prol
  store i32 %310, ptr %arrayidx7.i.i.i1099.prol, align 4, !tbaa !47
  %indvars.iv.next.i.i.i1100.prol = add nuw nsw i64 %indvars.iv.i.i.i1097.prol, 1
  %prol.iter1994.next = add i64 %prol.iter1994, 1
  %prol.iter1994.cmp.not = icmp eq i64 %prol.iter1994.next, %xtraiter1992
  br i1 %prol.iter1994.cmp.not, label %for.body.i.i.i1096.prol.loopexit, label %for.body.i.i.i1096.prol, !llvm.loop !127

for.body.i.i.i1096.prol.loopexit:                 ; preds = %for.body.i.i.i1096.prol, %for.body.i.i.i1096.preheader
  %indvars.iv.i.i.i1097.unr = phi i64 [ %indvars.iv.i.i.i1097.ph, %for.body.i.i.i1096.preheader ], [ %indvars.iv.next.i.i.i1100.prol, %for.body.i.i.i1096.prol ]
  %311 = icmp ult i64 %309, 3
  br i1 %311, label %delete.notnull.i.i.i1092, label %for.body.i.i.i1096

for.cond.cleanup.i.i.i1090:                       ; preds = %for.cond.preheader.i.i.i1087
  %isnull.i.i.i1091 = icmp eq ptr %.pre.i.i.i1089, null
  br i1 %isnull.i.i.i1091, label %if.end9.i.i.i1084, label %delete.notnull.i.i.i1092

for.body.i.i.i1096:                               ; preds = %for.body.i.i.i1096.prol.loopexit, %for.body.i.i.i1096
  %indvars.iv.i.i.i1097 = phi i64 [ %indvars.iv.next.i.i.i1100.3, %for.body.i.i.i1096 ], [ %indvars.iv.i.i.i1097.unr, %for.body.i.i.i1096.prol.loopexit ]
  %arrayidx.i.i.i1098 = getelementptr inbounds i32, ptr %.pre.i.i.i1089, i64 %indvars.iv.i.i.i1097
  %312 = load i32, ptr %arrayidx.i.i.i1098, align 4, !tbaa !47
  %arrayidx7.i.i.i1099 = getelementptr inbounds i32, ptr %call.i.i.i1103, i64 %indvars.iv.i.i.i1097
  store i32 %312, ptr %arrayidx7.i.i.i1099, align 4, !tbaa !47
  %indvars.iv.next.i.i.i1100 = add nuw nsw i64 %indvars.iv.i.i.i1097, 1
  %arrayidx.i.i.i1098.1 = getelementptr inbounds i32, ptr %.pre.i.i.i1089, i64 %indvars.iv.next.i.i.i1100
  %313 = load i32, ptr %arrayidx.i.i.i1098.1, align 4, !tbaa !47
  %arrayidx7.i.i.i1099.1 = getelementptr inbounds i32, ptr %call.i.i.i1103, i64 %indvars.iv.next.i.i.i1100
  store i32 %313, ptr %arrayidx7.i.i.i1099.1, align 4, !tbaa !47
  %indvars.iv.next.i.i.i1100.1 = add nuw nsw i64 %indvars.iv.i.i.i1097, 2
  %arrayidx.i.i.i1098.2 = getelementptr inbounds i32, ptr %.pre.i.i.i1089, i64 %indvars.iv.next.i.i.i1100.1
  %314 = load i32, ptr %arrayidx.i.i.i1098.2, align 4, !tbaa !47
  %arrayidx7.i.i.i1099.2 = getelementptr inbounds i32, ptr %call.i.i.i1103, i64 %indvars.iv.next.i.i.i1100.1
  store i32 %314, ptr %arrayidx7.i.i.i1099.2, align 4, !tbaa !47
  %indvars.iv.next.i.i.i1100.2 = add nuw nsw i64 %indvars.iv.i.i.i1097, 3
  %arrayidx.i.i.i1098.3 = getelementptr inbounds i32, ptr %.pre.i.i.i1089, i64 %indvars.iv.next.i.i.i1100.2
  %315 = load i32, ptr %arrayidx.i.i.i1098.3, align 4, !tbaa !47
  %arrayidx7.i.i.i1099.3 = getelementptr inbounds i32, ptr %call.i.i.i1103, i64 %indvars.iv.next.i.i.i1100.2
  store i32 %315, ptr %arrayidx7.i.i.i1099.3, align 4, !tbaa !47
  %indvars.iv.next.i.i.i1100.3 = add nuw nsw i64 %indvars.iv.i.i.i1097, 4
  %exitcond.not.i.i.i1101.3 = icmp eq i64 %indvars.iv.next.i.i.i1100.3, %wide.trip.count.i.i.i1095
  br i1 %exitcond.not.i.i.i1101.3, label %delete.notnull.i.i.i1092, label %for.body.i.i.i1096, !llvm.loop !128

delete.notnull.i.i.i1092:                         ; preds = %for.body.i.i.i1096.prol.loopexit, %for.body.i.i.i1096, %middle.block1829, %for.cond.cleanup.i.i.i1090
  call void @_ZdaPv(ptr noundef nonnull %.pre.i.i.i1089) #24
  %.pre.i.i1093 = load i32, ptr %_length.i583, align 8, !tbaa !58
  br label %if.end9.i.i.i1084

if.end9.i.i.i1084:                                ; preds = %delete.notnull.i.i.i1092, %for.cond.cleanup.i.i.i1090, %call.i.i.i.noexc1102
  %316 = phi i32 [ %.pre.i.i1093, %delete.notnull.i.i.i1092 ], [ %297, %for.cond.cleanup.i.i.i1090 ], [ %297, %call.i.i.i.noexc1102 ]
  store ptr %call.i.i.i1103, ptr %methodsString, align 8, !tbaa !55
  %idxprom13.i.i.i1085 = sext i32 %316 to i64
  %arrayidx14.i.i.i1086 = getelementptr inbounds i32, ptr %call.i.i.i1103, i64 %idxprom13.i.i.i1085
  store i32 0, ptr %arrayidx14.i.i.i1086, align 4, !tbaa !47
  store i32 %add.i.i.i1079, ptr %_capacity.i, align 4, !tbaa !57
  br label %invoke.cont278

invoke.cont278:                                   ; preds = %if.end9.i.i.i1084, %if.end.i.i1068, %if.then277
  %317 = phi i32 [ %296, %if.then277 ], [ %296, %if.end.i.i1068 ], [ %add.i.i.i1079, %if.end9.i.i.i1084 ]
  %318 = phi i32 [ %297, %if.then277 ], [ %297, %if.end.i.i1068 ], [ %316, %if.end9.i.i.i1084 ]
  %319 = load ptr, ptr %methodsString, align 8, !tbaa !55
  %320 = ptrtoint ptr %319 to i64
  %idxprom.i1063 = sext i32 %318 to i64
  %arrayidx.i1064 = getelementptr inbounds i32, ptr %319, i64 %idxprom.i1063
  store i32 58, ptr %arrayidx.i1064, align 4, !tbaa !47
  %inc.i1065 = add nsw i32 %318, 1
  store i32 %inc.i1065, ptr %_length.i583, align 8, !tbaa !58
  %idxprom4.i1066 = sext i32 %inc.i1065 to i64
  %arrayidx5.i1067 = getelementptr inbounds i32, ptr %319, i64 %idxprom4.i1066
  store i32 0, ptr %arrayidx5.i1067, align 4, !tbaa !47
  %reass.sub1540 = sub i32 %317, %318
  %sub2.i.i1108 = add i32 %reass.sub1540, -2
  %cmp.not.i.i1109 = icmp slt i32 %sub2.i.i1108, %propsString.sroa.27.1
  br i1 %cmp.not.i.i1109, label %if.end.i.i1120, label %_ZN11CStringBaseIwE10GrowLengthEi.exit.i1110

if.end.i.i1120:                                   ; preds = %invoke.cont278
  %cmp4.i.i1121 = icmp sgt i32 %317, 64
  %div24.i.i1122 = lshr i32 %317, 1
  %cmp8.i.i1123 = icmp sgt i32 %317, 8
  %..i.i1124 = select i1 %cmp8.i.i1123, i32 16, i32 4
  %delta.0.i.i1125 = select i1 %cmp4.i.i1121, i32 %div24.i.i1122, i32 %..i.i1124
  %add.i.i1126 = add nsw i32 %delta.0.i.i1125, %sub2.i.i1108
  %cmp13.i.i1127 = icmp slt i32 %add.i.i1126, %propsString.sroa.27.1
  %sub15.i.i1128 = sub nsw i32 %propsString.sroa.27.1, %sub2.i.i1108
  %delta.1.i.i1129 = select i1 %cmp13.i.i1127, i32 %sub15.i.i1128, i32 %delta.0.i.i1125
  %add18.i.i1130 = add nsw i32 %delta.1.i.i1129, %317
  %add.i.i.i1131 = add nsw i32 %add18.i.i1130, 1
  %cmp.i.i.i1132 = icmp eq i32 %add.i.i.i1131, %317
  br i1 %cmp.i.i.i1132, label %_ZN11CStringBaseIwE10GrowLengthEi.exit.i1110, label %if.end.i.i.i1133

if.end.i.i.i1133:                                 ; preds = %if.end.i.i1120
  %conv.i.i.i1134 = zext i32 %add.i.i.i1131 to i64
  %321 = icmp slt i32 %add18.i.i1130, -1
  %322 = shl nuw nsw i64 %conv.i.i.i1134, 2
  %323 = select i1 %321, i64 -1, i64 %322
  %call.i.i.i1155 = invoke noalias noundef nonnull ptr @_Znam(i64 noundef %323) #23
          to label %call.i.i.i.noexc1154 unwind label %lpad117

call.i.i.i.noexc1154:                             ; preds = %if.end.i.i.i1133
  %call.i.i.i11551810 = ptrtoint ptr %call.i.i.i1155 to i64
  %cmp3.i.i.i1135 = icmp sgt i32 %317, 0
  br i1 %cmp3.i.i.i1135, label %for.cond.preheader.i.i.i1139, label %if.end9.i.i.i1136

for.cond.preheader.i.i.i1139:                     ; preds = %call.i.i.i.noexc1154
  %cmp522.i.i.i1140 = icmp sgt i32 %318, -1
  br i1 %cmp522.i.i.i1140, label %for.body.lr.ph.i.i.i1146, label %delete.notnull.i.i.i1144

for.body.lr.ph.i.i.i1146:                         ; preds = %for.cond.preheader.i.i.i1139
  %wide.trip.count.i.i.i1147 = zext i32 %inc.i1065 to i64
  %min.iters.check1814 = icmp ult i32 %inc.i1065, 8
  %324 = sub i64 %call.i.i.i11551810, %320
  %diff.check1811 = icmp ult i64 %324, 32
  %or.cond1929 = or i1 %min.iters.check1814, %diff.check1811
  br i1 %or.cond1929, label %for.body.i.i.i1148.preheader, label %vector.ph1815

vector.ph1815:                                    ; preds = %for.body.lr.ph.i.i.i1146
  %n.vec1817 = and i64 %wide.trip.count.i.i.i1147, 4294967288
  br label %vector.body1820

vector.body1820:                                  ; preds = %vector.body1820, %vector.ph1815
  %index1821 = phi i64 [ 0, %vector.ph1815 ], [ %index.next1824, %vector.body1820 ]
  %325 = getelementptr inbounds i32, ptr %319, i64 %index1821
  %wide.load1822 = load <4 x i32>, ptr %325, align 4, !tbaa !47
  %326 = getelementptr inbounds i32, ptr %325, i64 4
  %wide.load1823 = load <4 x i32>, ptr %326, align 4, !tbaa !47
  %327 = getelementptr inbounds i32, ptr %call.i.i.i1155, i64 %index1821
  store <4 x i32> %wide.load1822, ptr %327, align 4, !tbaa !47
  %328 = getelementptr inbounds i32, ptr %327, i64 4
  store <4 x i32> %wide.load1823, ptr %328, align 4, !tbaa !47
  %index.next1824 = add nuw i64 %index1821, 8
  %329 = icmp eq i64 %index.next1824, %n.vec1817
  br i1 %329, label %middle.block1812, label %vector.body1820, !llvm.loop !129

middle.block1812:                                 ; preds = %vector.body1820
  %cmp.n1819 = icmp eq i64 %n.vec1817, %wide.trip.count.i.i.i1147
  br i1 %cmp.n1819, label %delete.notnull.i.i.i1144, label %for.body.i.i.i1148.preheader

for.body.i.i.i1148.preheader:                     ; preds = %for.body.lr.ph.i.i.i1146, %middle.block1812
  %indvars.iv.i.i.i1149.ph = phi i64 [ 0, %for.body.lr.ph.i.i.i1146 ], [ %n.vec1817, %middle.block1812 ]
  %330 = xor i64 %indvars.iv.i.i.i1149.ph, -1
  %331 = add nsw i64 %330, %wide.trip.count.i.i.i1147
  %xtraiter1995 = and i64 %wide.trip.count.i.i.i1147, 3
  %lcmp.mod1996.not = icmp eq i64 %xtraiter1995, 0
  br i1 %lcmp.mod1996.not, label %for.body.i.i.i1148.prol.loopexit, label %for.body.i.i.i1148.prol

for.body.i.i.i1148.prol:                          ; preds = %for.body.i.i.i1148.preheader, %for.body.i.i.i1148.prol
  %indvars.iv.i.i.i1149.prol = phi i64 [ %indvars.iv.next.i.i.i1152.prol, %for.body.i.i.i1148.prol ], [ %indvars.iv.i.i.i1149.ph, %for.body.i.i.i1148.preheader ]
  %prol.iter1997 = phi i64 [ %prol.iter1997.next, %for.body.i.i.i1148.prol ], [ 0, %for.body.i.i.i1148.preheader ]
  %arrayidx.i.i.i1150.prol = getelementptr inbounds i32, ptr %319, i64 %indvars.iv.i.i.i1149.prol
  %332 = load i32, ptr %arrayidx.i.i.i1150.prol, align 4, !tbaa !47
  %arrayidx7.i.i.i1151.prol = getelementptr inbounds i32, ptr %call.i.i.i1155, i64 %indvars.iv.i.i.i1149.prol
  store i32 %332, ptr %arrayidx7.i.i.i1151.prol, align 4, !tbaa !47
  %indvars.iv.next.i.i.i1152.prol = add nuw nsw i64 %indvars.iv.i.i.i1149.prol, 1
  %prol.iter1997.next = add i64 %prol.iter1997, 1
  %prol.iter1997.cmp.not = icmp eq i64 %prol.iter1997.next, %xtraiter1995
  br i1 %prol.iter1997.cmp.not, label %for.body.i.i.i1148.prol.loopexit, label %for.body.i.i.i1148.prol, !llvm.loop !130

for.body.i.i.i1148.prol.loopexit:                 ; preds = %for.body.i.i.i1148.prol, %for.body.i.i.i1148.preheader
  %indvars.iv.i.i.i1149.unr = phi i64 [ %indvars.iv.i.i.i1149.ph, %for.body.i.i.i1148.preheader ], [ %indvars.iv.next.i.i.i1152.prol, %for.body.i.i.i1148.prol ]
  %333 = icmp ult i64 %331, 3
  br i1 %333, label %delete.notnull.i.i.i1144, label %for.body.i.i.i1148

for.body.i.i.i1148:                               ; preds = %for.body.i.i.i1148.prol.loopexit, %for.body.i.i.i1148
  %indvars.iv.i.i.i1149 = phi i64 [ %indvars.iv.next.i.i.i1152.3, %for.body.i.i.i1148 ], [ %indvars.iv.i.i.i1149.unr, %for.body.i.i.i1148.prol.loopexit ]
  %arrayidx.i.i.i1150 = getelementptr inbounds i32, ptr %319, i64 %indvars.iv.i.i.i1149
  %334 = load i32, ptr %arrayidx.i.i.i1150, align 4, !tbaa !47
  %arrayidx7.i.i.i1151 = getelementptr inbounds i32, ptr %call.i.i.i1155, i64 %indvars.iv.i.i.i1149
  store i32 %334, ptr %arrayidx7.i.i.i1151, align 4, !tbaa !47
  %indvars.iv.next.i.i.i1152 = add nuw nsw i64 %indvars.iv.i.i.i1149, 1
  %arrayidx.i.i.i1150.1 = getelementptr inbounds i32, ptr %319, i64 %indvars.iv.next.i.i.i1152
  %335 = load i32, ptr %arrayidx.i.i.i1150.1, align 4, !tbaa !47
  %arrayidx7.i.i.i1151.1 = getelementptr inbounds i32, ptr %call.i.i.i1155, i64 %indvars.iv.next.i.i.i1152
  store i32 %335, ptr %arrayidx7.i.i.i1151.1, align 4, !tbaa !47
  %indvars.iv.next.i.i.i1152.1 = add nuw nsw i64 %indvars.iv.i.i.i1149, 2
  %arrayidx.i.i.i1150.2 = getelementptr inbounds i32, ptr %319, i64 %indvars.iv.next.i.i.i1152.1
  %336 = load i32, ptr %arrayidx.i.i.i1150.2, align 4, !tbaa !47
  %arrayidx7.i.i.i1151.2 = getelementptr inbounds i32, ptr %call.i.i.i1155, i64 %indvars.iv.next.i.i.i1152.1
  store i32 %336, ptr %arrayidx7.i.i.i1151.2, align 4, !tbaa !47
  %indvars.iv.next.i.i.i1152.2 = add nuw nsw i64 %indvars.iv.i.i.i1149, 3
  %arrayidx.i.i.i1150.3 = getelementptr inbounds i32, ptr %319, i64 %indvars.iv.next.i.i.i1152.2
  %337 = load i32, ptr %arrayidx.i.i.i1150.3, align 4, !tbaa !47
  %arrayidx7.i.i.i1151.3 = getelementptr inbounds i32, ptr %call.i.i.i1155, i64 %indvars.iv.next.i.i.i1152.2
  store i32 %337, ptr %arrayidx7.i.i.i1151.3, align 4, !tbaa !47
  %indvars.iv.next.i.i.i1152.3 = add nuw nsw i64 %indvars.iv.i.i.i1149, 4
  %exitcond.not.i.i.i1153.3 = icmp eq i64 %indvars.iv.next.i.i.i1152.3, %wide.trip.count.i.i.i1147
  br i1 %exitcond.not.i.i.i1153.3, label %delete.notnull.i.i.i1144, label %for.body.i.i.i1148, !llvm.loop !131

