; ModuleID = '/home/npopov/repos/llvm-test-suite/CTMark/7zip/CPP/7zip/Archive/Zip/ZipHandler.cpp'
source_filename = "/home/npopov/repos/llvm-test-suite/CTMark/7zip/CPP/7zip/Archive/Zip/ZipHandler.cpp"
target datalayout = "e-m:e-p270:32:32-p271:32:32-p272:64:64-i64:64-f80:128-n8:16:32:64-S128"
target triple = "x86_64-unknown-linux-gnu"

%struct.tagSTATPROPSTG = type { ptr, i32, i16 }
%"struct.NArchive::NZip::CStrongCryptoPair" = type { i16, ptr }
%struct.GUID = type { i32, i16, i16, [8 x i8] }
%"class.NArchive::NZip::CHandler" = type { %struct.IInArchive, %struct.IOutArchive, %struct.ISetProperties, %class.CMyUnknownImp, %class.CObjectVector, %"class.NArchive::NZip::CInArchive", i32, i32, i32, i32, i32, i32, i32, i32, i32, i8, i8, i8, i8, i8, i8, i8, i32 }
%struct.IInArchive = type { %struct.IUnknown }
%struct.IUnknown = type { ptr }
%struct.IOutArchive = type { %struct.IUnknown }
%struct.ISetProperties = type { %struct.IUnknown }
%class.CMyUnknownImp = type { i32 }
%class.CObjectVector = type { %class.CRecordVector }
%class.CRecordVector = type { %class.CBaseRecordVector }
%class.CBaseRecordVector = type { ptr, i32, i32, ptr, i64 }
%"class.NArchive::NZip::CInArchive" = type <{ %class.CMyComPtr, i32, [4 x i8], i64, i64, i8, [7 x i8], %class.CInBuffer, %"class.NArchive::NZip::CInArchiveInfo", i8, i8, [6 x i8] }>
%class.CMyComPtr = type { ptr }
%class.CInBuffer = type <{ ptr, ptr, ptr, %class.CMyComPtr.0, i64, i32, i8, [3 x i8] }>
%class.CMyComPtr.0 = type { ptr }
%"class.NArchive::NZip::CInArchiveInfo" = type { i64, i64, i64, %class.CBuffer }
%class.CBuffer = type { ptr, i64, ptr }
%"class.NWindows::NCOM::CPropVariant" = type { %struct.tagPROPVARIANT }
%struct.tagPROPVARIANT = type { i16, i16, i16, i16, %union.anon }
%union.anon = type { %struct.LARGE_INTEGER }
%struct.LARGE_INTEGER = type { i64 }
%class.CStringBase = type { ptr, i32, i32 }
%class.CStringBase.1 = type { ptr, i32, i32 }
%struct._FILETIME = type { i32, i32 }
%"struct.NArchive::NZip::CWzAesExtraField" = type { i16, i8, i16 }
%"struct.NArchive::NZip::CStrongCryptoField" = type { i16, i16, i16, i16 }
%"class.NArchive::NZip::CLocalItem" = type { %"struct.NArchive::NZip::CVersion", i16, i16, i32, i32, i64, i64, %class.CStringBase.1, %"struct.NArchive::NZip::CExtraBlock" }
%"struct.NArchive::NZip::CVersion" = type { i8, i8 }
%"struct.NArchive::NZip::CExtraBlock" = type { %class.CObjectVector.2 }
%class.CObjectVector.2 = type { %class.CRecordVector }
%"class.NArchive::NZip::CItem" = type <{ %"class.NArchive::NZip::CLocalItem", %"struct.NArchive::NZip::CVersion", i16, i32, i64, %struct._FILETIME, %struct._FILETIME, %struct._FILETIME, %"struct.NArchive::NZip::CExtraBlock", %class.CBuffer, i8, i8, i8, [5 x i8] }>
%"struct.NArchive::NZip::CExtraSubBlock" = type { i16, %class.CBuffer }
%"class.NArchive::NZip::CProgressImp" = type { %"class.NArchive::NZip::CProgressVirt", %class.CMyComPtr.3 }
%"class.NArchive::NZip::CProgressVirt" = type { ptr }
%class.CMyComPtr.3 = type { ptr }
%"class.NArchive::NZip::CLzmaDecoder" = type { %struct.ICompressCoder, %class.CMyUnknownImp, ptr, %class.CMyComPtr.4 }
%struct.ICompressCoder = type { %struct.IUnknown }
%class.CMyComPtr.4 = type { ptr }
%class.CMyComPtr.9 = type { ptr }
%class.CMyComBSTR = type { ptr }
%"struct.NArchive::NZip::CMethodItem" = type { i16, %class.CMyComPtr.4 }
%class.CMyComPtr.11 = type { ptr }
%class.CMyComPtr.12 = type { ptr }
%class.COutStreamWithCRC = type <{ %struct.ISequentialOutStream, %class.CMyUnknownImp, [4 x i8], %class.CMyComPtr.5, i64, i32, i8, [3 x i8] }>
%struct.ISequentialOutStream = type { %struct.IUnknown }
%class.CMyComPtr.5 = type { ptr }
%"class.NArchive::NZip::CItemEx" = type <{ %"class.NArchive::NZip::CItem.base", i8, i32, i16, [6 x i8] }>
%"class.NArchive::NZip::CItem.base" = type <{ %"class.NArchive::NZip::CLocalItem", %"struct.NArchive::NZip::CVersion", i16, i32, i64, %struct._FILETIME, %struct._FILETIME, %struct._FILETIME, %"struct.NArchive::NZip::CExtraBlock", %class.CBuffer, i8, i8, i8 }>
%"class.NArchive::NZip::CZipDecoder" = type { ptr, ptr, ptr, %class.CMyComPtr.6, %class.CMyComPtr.6, %class.CMyComPtr.6, ptr, %class.CMyComPtr.0, %class.CMyComPtr.7, %class.CObjectVector.8 }
%class.CMyComPtr.6 = type { ptr }
%class.CMyComPtr.7 = type { ptr }
%class.CObjectVector.8 = type { %class.CRecordVector }
%"class.NCrypto::NWzAes::CBaseCoder" = type { %struct.ICompressFilter, %struct.ICryptoSetPassword, %class.CMyUnknownImp, %"class.NCrypto::NWzAes::CKeyInfo", %"class.NCrypto::NSha1::CHmac", [2 x i8], %"struct.NCrypto::NWzAes::CAesCtr2" }
%struct.ICompressFilter = type { %struct.IUnknown }
%struct.ICryptoSetPassword = type { %struct.IUnknown }
%"class.NCrypto::NWzAes::CKeyInfo" = type { i32, [16 x i8], [2 x i8], %class.CBuffer }
%"class.NCrypto::NSha1::CHmac" = type { %"class.NCrypto::NSha1::CContext", %"class.NCrypto::NSha1::CContext" }
%"class.NCrypto::NSha1::CContext" = type { %"class.NCrypto::NSha1::CContextBase2.base", [4 x i8] }
%"class.NCrypto::NSha1::CContextBase2.base" = type <{ %"class.NCrypto::NSha1::CContextBase", i32, [16 x i32] }>
%"class.NCrypto::NSha1::CContextBase" = type { [5 x i32], i64 }
%"struct.NCrypto::NWzAes::CAesCtr2" = type { i32, i32, [75 x i32] }
%"class.NCrypto::NZipStrong::CBaseCoder" = type { %"struct.NCrypto::CAesCbcDecoder", %struct.ICryptoSetPassword, %"struct.NCrypto::NZipStrong::CKeyInfo", %class.CBuffer, ptr }
%"struct.NCrypto::CAesCbcDecoder" = type { %"class.NCrypto::CAesCbcCoder" }
%"class.NCrypto::CAesCbcCoder" = type { %struct.ICompressFilter, %struct.ICryptoProperties, %class.CMyUnknownImp, ptr, ptr, i32, [71 x i32] }
%struct.ICryptoProperties = type { %struct.IUnknown }
%"struct.NCrypto::NZipStrong::CKeyInfo" = type { [32 x i8], i32 }
%"class.NCompress::CCopyCoder" = type { %struct.ICompressCoder, %struct.ICompressGetInStreamProcessedSize, %class.CMyUnknownImp, ptr, i64 }
%struct.ICompressGetInStreamProcessedSize = type { %struct.IUnknown }
%class.CFilterCoder = type { %struct.ICompressCoder, %struct.ICompressSetInStream, %struct.ISequentialInStream, %struct.ICompressSetOutStream, %struct.ISequentialOutStream, %struct.IOutStreamFlush, %struct.ICryptoSetPassword, %struct.ICompressSetCoderProperties, %struct.ICompressWriteCoderProperties, %struct.ICryptoResetInitVector, %struct.ICompressSetDecoderProperties2, %class.CMyUnknownImp, ptr, %class.CMyComPtr.0, %class.CMyComPtr.5, i32, i32, i32, i8, i64, i64, %class.CMyComPtr.9, %class.CMyComPtr.13, %class.CMyComPtr.14, %class.CMyComPtr.15, %class.CMyComPtr.11, %class.CMyComPtr.6 }
%struct.ICompressSetInStream = type { %struct.IUnknown }
%struct.ISequentialInStream = type { %struct.IUnknown }
%struct.ICompressSetOutStream = type { %struct.IUnknown }
%struct.IOutStreamFlush = type { %struct.IUnknown }
%struct.ICompressSetCoderProperties = type { %struct.IUnknown }
%struct.ICompressWriteCoderProperties = type { %struct.IUnknown }
%struct.ICryptoResetInitVector = type { %struct.IUnknown }
%struct.ICompressSetDecoderProperties2 = type { %struct.IUnknown }
%class.CMyComPtr.13 = type { ptr }
%class.CMyComPtr.14 = type { ptr }
%class.CMyComPtr.15 = type { ptr }
%class.CLocalProgress = type <{ %struct.ICompressProgressInfo, %class.CMyUnknownImp, [4 x i8], %class.CMyComPtr.16, %class.CMyComPtr.17, i8, [7 x i8], i64, i64, i64, i8, i8, [6 x i8] }>
%struct.ICompressProgressInfo = type { %struct.IUnknown }
%class.CMyComPtr.16 = type { ptr }
%class.CMyComPtr.17 = type { ptr }

$_ZN8NArchive4NZip10CInArchiveD2Ev = comdat any

$_ZN13CObjectVectorIN8NArchive4NZip7CItemExEED2Ev = comdat any

$_ZNK8NArchive4NZip10CLocalItem16GetUnicodeStringERK11CStringBaseIcE = comdat any

$_ZN11CStringBaseIcEaSEPKc = comdat any

$_ZNK8NArchive4NZip11CExtraBlock13GetWzAesFieldERNS0_16CWzAesExtraFieldE = comdat any

$_ZN11CStringBaseIcEpLEc = comdat any

$_ZN11CStringBaseIcEpLEPKc = comdat any

$_ZNK8NArchive4NZip11CExtraBlock20GetStrongCryptoFieldERNS0_18CStrongCryptoFieldE = comdat any

$__clang_call_terminate = comdat any

$_ZN11CStringBaseIwEC2EPKw = comdat any

$_ZN11CStringBaseIcEaSERKS0_ = comdat any

$_ZN8NArchive4NZip5CItemD2Ev = comdat any

$_ZN8NArchive4NZip11CZipDecoderD2Ev = comdat any

$_ZN8NArchive4NZip8CHandler14QueryInterfaceERK4GUIDPPv = comdat any

$_ZN8NArchive4NZip8CHandler6AddRefEv = comdat any

$_ZN8NArchive4NZip8CHandler7ReleaseEv = comdat any

$_ZN8NArchive4NZip8CHandlerD2Ev = comdat any

$_ZN8NArchive4NZip8CHandlerD0Ev = comdat any

$_ZThn8_N8NArchive4NZip8CHandler14QueryInterfaceERK4GUIDPPv = comdat any

$_ZThn8_N8NArchive4NZip8CHandler6AddRefEv = comdat any

$_ZThn8_N8NArchive4NZip8CHandler7ReleaseEv = comdat any

$_ZThn8_N8NArchive4NZip8CHandlerD1Ev = comdat any

$_ZThn8_N8NArchive4NZip8CHandlerD0Ev = comdat any

$_ZThn16_N8NArchive4NZip8CHandler14QueryInterfaceERK4GUIDPPv = comdat any

$_ZThn16_N8NArchive4NZip8CHandler6AddRefEv = comdat any

$_ZThn16_N8NArchive4NZip8CHandler7ReleaseEv = comdat any

$_ZThn16_N8NArchive4NZip8CHandlerD1Ev = comdat any

$_ZThn16_N8NArchive4NZip8CHandlerD0Ev = comdat any

$_ZN8NArchive4NZip12CLzmaDecoder14QueryInterfaceERK4GUIDPPv = comdat any

$_ZN8NArchive4NZip12CLzmaDecoder6AddRefEv = comdat any

$_ZN8NArchive4NZip12CLzmaDecoder7ReleaseEv = comdat any

$_ZN8NArchive4NZip12CLzmaDecoderD2Ev = comdat any

$_ZN8NArchive4NZip12CLzmaDecoderD0Ev = comdat any

$_ZN7CBufferIhED2Ev = comdat any

$_ZN7CBufferIhED0Ev = comdat any

$_ZN7NCrypto10NZipStrong8CDecoder14QueryInterfaceERK4GUIDPPv = comdat any

$_ZN7NCrypto10NZipStrong8CDecoder6AddRefEv = comdat any

$_ZN7NCrypto10NZipStrong8CDecoder7ReleaseEv = comdat any

$_ZN7NCrypto10NZipStrong10CBaseCoderD2Ev = comdat any

$_ZN7NCrypto10NZipStrong8CDecoderD0Ev = comdat any

$_ZThn8_N7NCrypto10NZipStrong8CDecoder14QueryInterfaceERK4GUIDPPv = comdat any

$_ZThn8_N7NCrypto10NZipStrong8CDecoder6AddRefEv = comdat any

$_ZThn8_N7NCrypto10NZipStrong8CDecoder7ReleaseEv = comdat any

$_ZThn8_N7NCrypto10NZipStrong8CDecoderD1Ev = comdat any

$_ZThn8_N7NCrypto10NZipStrong8CDecoderD0Ev = comdat any

$_ZThn328_N7NCrypto10NZipStrong8CDecoder14QueryInterfaceERK4GUIDPPv = comdat any

$_ZThn328_N7NCrypto10NZipStrong8CDecoder6AddRefEv = comdat any

$_ZThn328_N7NCrypto10NZipStrong8CDecoder7ReleaseEv = comdat any

$_ZThn328_N7NCrypto10NZipStrong8CDecoderD1Ev = comdat any

$_ZThn328_N7NCrypto10NZipStrong8CDecoderD0Ev = comdat any

$_ZN13CObjectVectorIN8NArchive4NZip11CMethodItemEED2Ev = comdat any

$_ZN13CObjectVectorIN8NArchive4NZip11CMethodItemEED0Ev = comdat any

$_ZN13CObjectVectorIN8NArchive4NZip11CMethodItemEE6DeleteEii = comdat any

$_ZN8NArchive4NZip5CItemC2ERKS1_ = comdat any

$_ZN8NArchive4NZip11CExtraBlockD2Ev = comdat any

$_ZN8NArchive4NZip10CLocalItemD2Ev = comdat any

$_ZN13CObjectVectorIN8NArchive4NZip14CExtraSubBlockEED2Ev = comdat any

$_ZN13CObjectVectorIN8NArchive4NZip14CExtraSubBlockEED0Ev = comdat any

$_ZN13CObjectVectorIN8NArchive4NZip14CExtraSubBlockEE6DeleteEii = comdat any

$_ZN13CObjectVectorIN8NArchive4NZip14CExtraSubBlockEEpLERKS3_ = comdat any

$_ZN13CObjectVectorIN8NArchive4NZip7CItemExEED0Ev = comdat any

$_ZN13CObjectVectorIN8NArchive4NZip7CItemExEE6DeleteEii = comdat any

$_ZTSN8NArchive4NZip19CInArchiveExceptionE = comdat any

$_ZTIN8NArchive4NZip19CInArchiveExceptionE = comdat any

$_ZTS10IInArchive = comdat any

$_ZTS8IUnknown = comdat any

$_ZTI8IUnknown = comdat any

$_ZTI10IInArchive = comdat any

$_ZTS11IOutArchive = comdat any

$_ZTI11IOutArchive = comdat any

$_ZTS14ISetProperties = comdat any

$_ZTI14ISetProperties = comdat any

$_ZTS13CMyUnknownImp = comdat any

$_ZTI13CMyUnknownImp = comdat any

$_ZTSN8NArchive4NZip13CProgressVirtE = comdat any

$_ZTIN8NArchive4NZip13CProgressVirtE = comdat any

$_ZTS14ICompressCoder = comdat any

$_ZTI14ICompressCoder = comdat any

$_ZTV7CBufferIhE = comdat any

$_ZTS7CBufferIhE = comdat any

$_ZTI7CBufferIhE = comdat any

$_ZTVN7NCrypto10NZipStrong8CDecoderE = comdat any

$_ZTSN7NCrypto10NZipStrong8CDecoderE = comdat any

$_ZTIN7NCrypto10NZipStrong8CDecoderE = comdat any

$_ZTV13CObjectVectorIN8NArchive4NZip11CMethodItemEE = comdat any

$_ZTS13CObjectVectorIN8NArchive4NZip11CMethodItemEE = comdat any

$_ZTS13CRecordVectorIPvE = comdat any

$_ZTI13CRecordVectorIPvE = comdat any

$_ZTI13CObjectVectorIN8NArchive4NZip11CMethodItemEE = comdat any

$_ZTV13CObjectVectorIN8NArchive4NZip14CExtraSubBlockEE = comdat any

$_ZTS13CObjectVectorIN8NArchive4NZip14CExtraSubBlockEE = comdat any

$_ZTI13CObjectVectorIN8NArchive4NZip14CExtraSubBlockEE = comdat any

$_ZTV13CObjectVectorIN8NArchive4NZip7CItemExEE = comdat any

$_ZTS13CObjectVectorIN8NArchive4NZip7CItemExEE = comdat any

$_ZTI13CObjectVectorIN8NArchive4NZip7CItemExEE = comdat any

@_ZTVN8NArchive4NZip8CHandlerE = dso_local unnamed_addr constant { [20 x ptr], [9 x ptr], [8 x ptr] } { [20 x ptr] [ptr null, ptr @_ZTIN8NArchive4NZip8CHandlerE, ptr @_ZN8NArchive4NZip8CHandler14QueryInterfaceERK4GUIDPPv, ptr @_ZN8NArchive4NZip8CHandler6AddRefEv, ptr @_ZN8NArchive4NZip8CHandler7ReleaseEv, ptr @_ZN8NArchive4NZip8CHandlerD2Ev, ptr @_ZN8NArchive4NZip8CHandlerD0Ev, ptr @_ZN8NArchive4NZip8CHandler4OpenEP9IInStreamPKyP20IArchiveOpenCallback, ptr @_ZN8NArchive4NZip8CHandler5CloseEv, ptr @_ZN8NArchive4NZip8CHandler16GetNumberOfItemsEPj, ptr @_ZN8NArchive4NZip8CHandler11GetPropertyEjjP14tagPROPVARIANT, ptr @_ZN8NArchive4NZip8CHandler7ExtractEPKjjiP23IArchiveExtractCallback, ptr @_ZN8NArchive4NZip8CHandler18GetArchivePropertyEjP14tagPROPVARIANT, ptr @_ZN8NArchive4NZip8CHandler21GetNumberOfPropertiesEPj, ptr @_ZN8NArchive4NZip8CHandler15GetPropertyInfoEjPPwPjPt, ptr @_ZN8NArchive4NZip8CHandler28GetNumberOfArchivePropertiesEPj, ptr @_ZN8NArchive4NZip8CHandler22GetArchivePropertyInfoEjPPwPjPt, ptr @_ZN8NArchive4NZip8CHandler11UpdateItemsEP20ISequentialOutStreamjP22IArchiveUpdateCallback, ptr @_ZN8NArchive4NZip8CHandler15GetFileTimeTypeEPj, ptr @_ZN8NArchive4NZip8CHandler13SetPropertiesEPPKwPK14tagPROPVARIANTi], [9 x ptr] [ptr inttoptr (i64 -8 to ptr), ptr @_ZTIN8NArchive4NZip8CHandlerE, ptr @_ZThn8_N8NArchive4NZip8CHandler14QueryInterfaceERK4GUIDPPv, ptr @_ZThn8_N8NArchive4NZip8CHandler6AddRefEv, ptr @_ZThn8_N8NArchive4NZip8CHandler7ReleaseEv, ptr @_ZThn8_N8NArchive4NZip8CHandlerD1Ev, ptr @_ZThn8_N8NArchive4NZip8CHandlerD0Ev, ptr @_ZThn8_N8NArchive4NZip8CHandler11UpdateItemsEP20ISequentialOutStreamjP22IArchiveUpdateCallback, ptr @_ZThn8_N8NArchive4NZip8CHandler15GetFileTimeTypeEPj], [8 x ptr] [ptr inttoptr (i64 -16 to ptr), ptr @_ZTIN8NArchive4NZip8CHandlerE, ptr @_ZThn16_N8NArchive4NZip8CHandler14QueryInterfaceERK4GUIDPPv, ptr @_ZThn16_N8NArchive4NZip8CHandler6AddRefEv, ptr @_ZThn16_N8NArchive4NZip8CHandler7ReleaseEv, ptr @_ZThn16_N8NArchive4NZip8CHandlerD1Ev, ptr @_ZThn16_N8NArchive4NZip8CHandlerD0Ev, ptr @_ZThn16_N8NArchive4NZip8CHandler13SetPropertiesEPPKwPK14tagPROPVARIANTi] }, align 8
@_ZN8NArchive4NZipL6kPropsE = internal unnamed_addr constant [14 x %struct.tagSTATPROPSTG] [%struct.tagSTATPROPSTG { ptr null, i32 3, i16 8 }, %struct.tagSTATPROPSTG { ptr null, i32 6, i16 11 }, %struct.tagSTATPROPSTG { ptr null, i32 7, i16 21 }, %struct.tagSTATPROPSTG { ptr null, i32 8, i16 21 }, %struct.tagSTATPROPSTG { ptr null, i32 12, i16 64 }, %struct.tagSTATPROPSTG { ptr null, i32 10, i16 64 }, %struct.tagSTATPROPSTG { ptr null, i32 11, i16 64 }, %struct.tagSTATPROPSTG { ptr null, i32 9, i16 19 }, %struct.tagSTATPROPSTG { ptr null, i32 15, i16 11 }, %struct.tagSTATPROPSTG { ptr null, i32 28, i16 8 }, %struct.tagSTATPROPSTG { ptr null, i32 19, i16 19 }, %struct.tagSTATPROPSTG { ptr null, i32 22, i16 8 }, %struct.tagSTATPROPSTG { ptr null, i32 23, i16 8 }, %struct.tagSTATPROPSTG { ptr null, i32 33, i16 19 }], align 16
@_ZN8NArchive4NZipL9kArcPropsE = internal unnamed_addr constant [4 x %struct.tagSTATPROPSTG] [%struct.tagSTATPROPSTG { ptr null, i32 41, i16 11 }, %struct.tagSTATPROPSTG { ptr null, i32 28, i16 8 }, %struct.tagSTATPROPSTG { ptr null, i32 44, i16 21 }, %struct.tagSTATPROPSTG { ptr null, i32 36, i16 21 }], align 16
@_ZTIPKc = external constant ptr
@_ZN8NArchive4NZipL19g_StrongCryptoPairsE = internal unnamed_addr constant [11 x %"struct.NArchive::NZip::CStrongCryptoPair"] [%"struct.NArchive::NZip::CStrongCryptoPair" { i16 26113, ptr @.str.2 }, %"struct.NArchive::NZip::CStrongCryptoPair" { i16 26114, ptr @.str.3 }, %"struct.NArchive::NZip::CStrongCryptoPair" { i16 26115, ptr @.str.4 }, %"struct.NArchive::NZip::CStrongCryptoPair" { i16 26121, ptr @.str.5 }, %"struct.NArchive::NZip::CStrongCryptoPair" { i16 26126, ptr @.str.6 }, %"struct.NArchive::NZip::CStrongCryptoPair" { i16 26127, ptr @.str.7 }, %"struct.NArchive::NZip::CStrongCryptoPair" { i16 26128, ptr @.str.8 }, %"struct.NArchive::NZip::CStrongCryptoPair" { i16 26370, ptr @.str.9 }, %"struct.NArchive::NZip::CStrongCryptoPair" { i16 26400, ptr @.str.10 }, %"struct.NArchive::NZip::CStrongCryptoPair" { i16 26401, ptr @.str.11 }, %"struct.NArchive::NZip::CStrongCryptoPair" { i16 26625, ptr @.str.12 }], align 16
@_ZN8NArchive4NZipL8kMethodsE = internal unnamed_addr constant [11 x ptr] [ptr @.str.15, ptr @.str.16, ptr @.str.17, ptr @.str.18, ptr @.str.19, ptr @.str.20, ptr @.str.21, ptr @.str.22, ptr @.str.23, ptr @.str.24, ptr @.str.25], align 16
@.str = private unnamed_addr constant [5 x i8] c":EOS\00", align 1
@reltable._ZN8NArchive4NZip8CHandler11GetPropertyEjjP14tagPROPVARIANT = internal unnamed_addr constant [20 x i32] [i32 trunc (i64 sub (i64 ptrtoint (ptr @.str.31 to i64), i64 ptrtoint (ptr @reltable._ZN8NArchive4NZip8CHandler11GetPropertyEjjP14tagPROPVARIANT to i64)) to i32), i32 trunc (i64 sub (i64 ptrtoint (ptr @.str.32 to i64), i64 ptrtoint (ptr @reltable._ZN8NArchive4NZip8CHandler11GetPropertyEjjP14tagPROPVARIANT to i64)) to i32), i32 trunc (i64 sub (i64 ptrtoint (ptr @.str.33 to i64), i64 ptrtoint (ptr @reltable._ZN8NArchive4NZip8CHandler11GetPropertyEjjP14tagPROPVARIANT to i64)) to i32), i32 trunc (i64 sub (i64 ptrtoint (ptr @.str.34 to i64), i64 ptrtoint (ptr @reltable._ZN8NArchive4NZip8CHandler11GetPropertyEjjP14tagPROPVARIANT to i64)) to i32), i32 trunc (i64 sub (i64 ptrtoint (ptr @.str.35 to i64), i64 ptrtoint (ptr @reltable._ZN8NArchive4NZip8CHandler11GetPropertyEjjP14tagPROPVARIANT to i64)) to i32), i32 trunc (i64 sub (i64 ptrtoint (ptr @.str.36 to i64), i64 ptrtoint (ptr @reltable._ZN8NArchive4NZip8CHandler11GetPropertyEjjP14tagPROPVARIANT to i64)) to i32), i32 trunc (i64 sub (i64 ptrtoint (ptr @.str.37 to i64), i64 ptrtoint (ptr @reltable._ZN8NArchive4NZip8CHandler11GetPropertyEjjP14tagPROPVARIANT to i64)) to i32), i32 trunc (i64 sub (i64 ptrtoint (ptr @.str.38 to i64), i64 ptrtoint (ptr @reltable._ZN8NArchive4NZip8CHandler11GetPropertyEjjP14tagPROPVARIANT to i64)) to i32), i32 trunc (i64 sub (i64 ptrtoint (ptr @.str.39 to i64), i64 ptrtoint (ptr @reltable._ZN8NArchive4NZip8CHandler11GetPropertyEjjP14tagPROPVARIANT to i64)) to i32), i32 trunc (i64 sub (i64 ptrtoint (ptr @.str.40 to i64), i64 ptrtoint (ptr @reltable._ZN8NArchive4NZip8CHandler11GetPropertyEjjP14tagPROPVARIANT to i64)) to i32), i32 trunc (i64 sub (i64 ptrtoint (ptr @.str.41 to i64), i64 ptrtoint (ptr @reltable._ZN8NArchive4NZip8CHandler11GetPropertyEjjP14tagPROPVARIANT to i64)) to i32), i32 trunc (i64 sub (i64 ptrtoint (ptr @.str.42 to i64), i64 ptrtoint (ptr @reltable._ZN8NArchive4NZip8CHandler11GetPropertyEjjP14tagPROPVARIANT to i64)) to i32), i32 trunc (i64 sub (i64 ptrtoint (ptr @.str.43 to i64), i64 ptrtoint (ptr @reltable._ZN8NArchive4NZip8CHandler11GetPropertyEjjP14tagPROPVARIANT to i64)) to i32), i32 trunc (i64 sub (i64 ptrtoint (ptr @.str.44 to i64), i64 ptrtoint (ptr @reltable._ZN8NArchive4NZip8CHandler11GetPropertyEjjP14tagPROPVARIANT to i64)) to i32), i32 trunc (i64 sub (i64 ptrtoint (ptr @.str.45 to i64), i64 ptrtoint (ptr @reltable._ZN8NArchive4NZip8CHandler11GetPropertyEjjP14tagPROPVARIANT to i64)) to i32), i32 trunc (i64 sub (i64 ptrtoint (ptr @.str.46 to i64), i64 ptrtoint (ptr @reltable._ZN8NArchive4NZip8CHandler11GetPropertyEjjP14tagPROPVARIANT to i64)) to i32), i32 trunc (i64 sub (i64 ptrtoint (ptr @.str.47 to i64), i64 ptrtoint (ptr @reltable._ZN8NArchive4NZip8CHandler11GetPropertyEjjP14tagPROPVARIANT to i64)) to i32), i32 trunc (i64 sub (i64 ptrtoint (ptr @.str.48 to i64), i64 ptrtoint (ptr @reltable._ZN8NArchive4NZip8CHandler11GetPropertyEjjP14tagPROPVARIANT to i64)) to i32), i32 trunc (i64 sub (i64 ptrtoint (ptr @.str.49 to i64), i64 ptrtoint (ptr @reltable._ZN8NArchive4NZip8CHandler11GetPropertyEjjP14tagPROPVARIANT to i64)) to i32), i32 trunc (i64 sub (i64 ptrtoint (ptr @.str.50 to i64), i64 ptrtoint (ptr @reltable._ZN8NArchive4NZip8CHandler11GetPropertyEjjP14tagPROPVARIANT to i64)) to i32)], align 4
@_ZTVN10__cxxabiv117__class_type_infoE = external global [0 x ptr]
@_ZTSN8NArchive4NZip19CInArchiveExceptionE = linkonce_odr dso_local constant [38 x i8] c"N8NArchive4NZip19CInArchiveExceptionE\00", comdat, align 1
@_ZTIN8NArchive4NZip19CInArchiveExceptionE = linkonce_odr dso_local constant { ptr, ptr } { ptr getelementptr inbounds (ptr, ptr @_ZTVN10__cxxabiv117__class_type_infoE, i64 2), ptr @_ZTSN8NArchive4NZip19CInArchiveExceptionE }, comdat, align 8
@_ZTVN8NArchive4NZip12CLzmaDecoderE = dso_local unnamed_addr constant { [8 x ptr] } { [8 x ptr] [ptr null, ptr @_ZTIN8NArchive4NZip12CLzmaDecoderE, ptr @_ZN8NArchive4NZip12CLzmaDecoder14QueryInterfaceERK4GUIDPPv, ptr @_ZN8NArchive4NZip12CLzmaDecoder6AddRefEv, ptr @_ZN8NArchive4NZip12CLzmaDecoder7ReleaseEv, ptr @_ZN8NArchive4NZip12CLzmaDecoderD2Ev, ptr @_ZN8NArchive4NZip12CLzmaDecoderD0Ev, ptr @_ZN8NArchive4NZip12CLzmaDecoder4CodeEP19ISequentialInStreamP20ISequentialOutStreamPKyS7_P21ICompressProgressInfo] }, align 8
@IID_ICryptoSetPassword = external global %struct.GUID, align 4
@IID_ICryptoGetTextPassword = external global %struct.GUID, align 4
@IID_ICompressSetDecoderProperties2 = external global %struct.GUID, align 4
@IID_ICompressSetCoderMt = external global %struct.GUID, align 4
@_ZTVN10__cxxabiv121__vmi_class_type_infoE = external global [0 x ptr]
@_ZTSN8NArchive4NZip8CHandlerE = dso_local constant [26 x i8] c"N8NArchive4NZip8CHandlerE\00", align 1
@_ZTVN10__cxxabiv120__si_class_type_infoE = external global [0 x ptr]
@_ZTS10IInArchive = linkonce_odr dso_local constant [13 x i8] c"10IInArchive\00", comdat, align 1
@_ZTS8IUnknown = linkonce_odr dso_local constant [10 x i8] c"8IUnknown\00", comdat, align 1
@_ZTI8IUnknown = linkonce_odr dso_local constant { ptr, ptr } { ptr getelementptr inbounds (ptr, ptr @_ZTVN10__cxxabiv117__class_type_infoE, i64 2), ptr @_ZTS8IUnknown }, comdat, align 8
@_ZTI10IInArchive = linkonce_odr dso_local constant { ptr, ptr, ptr } { ptr getelementptr inbounds (ptr, ptr @_ZTVN10__cxxabiv120__si_class_type_infoE, i64 2), ptr @_ZTS10IInArchive, ptr @_ZTI8IUnknown }, comdat, align 8
@_ZTS11IOutArchive = linkonce_odr dso_local constant [14 x i8] c"11IOutArchive\00", comdat, align 1
@_ZTI11IOutArchive = linkonce_odr dso_local constant { ptr, ptr, ptr } { ptr getelementptr inbounds (ptr, ptr @_ZTVN10__cxxabiv120__si_class_type_infoE, i64 2), ptr @_ZTS11IOutArchive, ptr @_ZTI8IUnknown }, comdat, align 8
@_ZTS14ISetProperties = linkonce_odr dso_local constant [17 x i8] c"14ISetProperties\00", comdat, align 1
@_ZTI14ISetProperties = linkonce_odr dso_local constant { ptr, ptr, ptr } { ptr getelementptr inbounds (ptr, ptr @_ZTVN10__cxxabiv120__si_class_type_infoE, i64 2), ptr @_ZTS14ISetProperties, ptr @_ZTI8IUnknown }, comdat, align 8
@_ZTS13CMyUnknownImp = linkonce_odr dso_local constant [16 x i8] c"13CMyUnknownImp\00", comdat, align 1
@_ZTI13CMyUnknownImp = linkonce_odr dso_local constant { ptr, ptr } { ptr getelementptr inbounds (ptr, ptr @_ZTVN10__cxxabiv117__class_type_infoE, i64 2), ptr @_ZTS13CMyUnknownImp }, comdat, align 8
@_ZTIN8NArchive4NZip8CHandlerE = dso_local constant { ptr, ptr, i32, i32, ptr, i64, ptr, i64, ptr, i64, ptr, i64 } { ptr getelementptr inbounds (ptr, ptr @_ZTVN10__cxxabiv121__vmi_class_type_infoE, i64 2), ptr @_ZTSN8NArchive4NZip8CHandlerE, i32 1, i32 4, ptr @_ZTI10IInArchive, i64 2, ptr @_ZTI11IOutArchive, i64 2050, ptr @_ZTI14ISetProperties, i64 4098, ptr @_ZTI13CMyUnknownImp, i64 6146 }, align 8
@_ZTVN8NArchive4NZip12CProgressImpE = dso_local unnamed_addr constant { [4 x ptr] } { [4 x ptr] [ptr null, ptr @_ZTIN8NArchive4NZip12CProgressImpE, ptr @_ZN8NArchive4NZip12CProgressImp8SetTotalEy, ptr @_ZN8NArchive4NZip12CProgressImp12SetCompletedEy] }, align 8
@_ZTSN8NArchive4NZip12CProgressImpE = dso_local constant [31 x i8] c"N8NArchive4NZip12CProgressImpE\00", align 1
@_ZTSN8NArchive4NZip13CProgressVirtE = linkonce_odr dso_local constant [32 x i8] c"N8NArchive4NZip13CProgressVirtE\00", comdat, align 1
@_ZTIN8NArchive4NZip13CProgressVirtE = linkonce_odr dso_local constant { ptr, ptr } { ptr getelementptr inbounds (ptr, ptr @_ZTVN10__cxxabiv117__class_type_infoE, i64 2), ptr @_ZTSN8NArchive4NZip13CProgressVirtE }, comdat, align 8
@_ZTIN8NArchive4NZip12CProgressImpE = dso_local constant { ptr, ptr, ptr } { ptr getelementptr inbounds (ptr, ptr @_ZTVN10__cxxabiv120__si_class_type_infoE, i64 2), ptr @_ZTSN8NArchive4NZip12CProgressImpE, ptr @_ZTIN8NArchive4NZip13CProgressVirtE }, align 8
@_ZTSN8NArchive4NZip12CLzmaDecoderE = dso_local constant [31 x i8] c"N8NArchive4NZip12CLzmaDecoderE\00", align 1
@_ZTS14ICompressCoder = linkonce_odr dso_local constant [17 x i8] c"14ICompressCoder\00", comdat, align 1
@_ZTI14ICompressCoder = linkonce_odr dso_local constant { ptr, ptr, ptr } { ptr getelementptr inbounds (ptr, ptr @_ZTVN10__cxxabiv120__si_class_type_infoE, i64 2), ptr @_ZTS14ICompressCoder, ptr @_ZTI8IUnknown }, comdat, align 8
@_ZTIN8NArchive4NZip12CLzmaDecoderE = dso_local constant { ptr, ptr, i32, i32, ptr, i64, ptr, i64 } { ptr getelementptr inbounds (ptr, ptr @_ZTVN10__cxxabiv121__vmi_class_type_infoE, i64 2), ptr @_ZTSN8NArchive4NZip12CLzmaDecoderE, i32 0, i32 2, ptr @_ZTI14ICompressCoder, i64 2, ptr @_ZTI13CMyUnknownImp, i64 2050 }, align 8
@_ZTV7CBufferIhE = linkonce_odr dso_local unnamed_addr constant { [4 x ptr] } { [4 x ptr] [ptr null, ptr @_ZTI7CBufferIhE, ptr @_ZN7CBufferIhED2Ev, ptr @_ZN7CBufferIhED0Ev] }, comdat, align 8
@_ZTS7CBufferIhE = linkonce_odr dso_local constant [12 x i8] c"7CBufferIhE\00", comdat, align 1
@_ZTI7CBufferIhE = linkonce_odr dso_local constant { ptr, ptr } { ptr getelementptr inbounds (ptr, ptr @_ZTVN10__cxxabiv117__class_type_infoE, i64 2), ptr @_ZTS7CBufferIhE }, comdat, align 8
@.str.1 = private unnamed_addr constant [4 x i8] c"AES\00", align 1
@.str.2 = private unnamed_addr constant [4 x i8] c"DES\00", align 1
@.str.3 = private unnamed_addr constant [5 x i8] c"RC2a\00", align 1
@.str.4 = private unnamed_addr constant [9 x i8] c"3DES-168\00", align 1
@.str.5 = private unnamed_addr constant [9 x i8] c"3DES-112\00", align 1
@.str.6 = private unnamed_addr constant [10 x i8] c"pkAES-128\00", align 1
@.str.7 = private unnamed_addr constant [10 x i8] c"pkAES-192\00", align 1
@.str.8 = private unnamed_addr constant [10 x i8] c"pkAES-256\00", align 1
@.str.9 = private unnamed_addr constant [4 x i8] c"RC2\00", align 1
@.str.10 = private unnamed_addr constant [9 x i8] c"Blowfish\00", align 1
@.str.11 = private unnamed_addr constant [8 x i8] c"Twofish\00", align 1
@.str.12 = private unnamed_addr constant [4 x i8] c"RC4\00", align 1
@.str.13 = private unnamed_addr constant [13 x i8] c"StrongCrypto\00", align 1
@.str.14 = private unnamed_addr constant [10 x i8] c"ZipCrypto\00", align 1
@.str.15 = private unnamed_addr constant [6 x i8] c"Store\00", align 1
@.str.16 = private unnamed_addr constant [7 x i8] c"Shrink\00", align 1
@.str.17 = private unnamed_addr constant [9 x i8] c"Reduced1\00", align 1
@.str.18 = private unnamed_addr constant [9 x i8] c"Reduced2\00", align 1
@.str.19 = private unnamed_addr constant [9 x i8] c"Reduced3\00", align 1
@.str.20 = private unnamed_addr constant [9 x i8] c"Reduced4\00", align 1
@.str.21 = private unnamed_addr constant [8 x i8] c"Implode\00", align 1
@.str.22 = private unnamed_addr constant [11 x i8] c"Tokenizing\00", align 1
@.str.23 = private unnamed_addr constant [8 x i8] c"Deflate\00", align 1
@.str.24 = private unnamed_addr constant [10 x i8] c"Deflate64\00", align 1
@.str.25 = private unnamed_addr constant [12 x i8] c"PKImploding\00", align 1
@.str.26 = private unnamed_addr constant [5 x i8] c"LZMA\00", align 1
@.str.27 = private unnamed_addr constant [6 x i8] c"BZip2\00", align 1
@.str.28 = private unnamed_addr constant [5 x i8] c"Jpeg\00", align 1
@.str.29 = private unnamed_addr constant [8 x i8] c"WavPack\00", align 1
@.str.30 = private unnamed_addr constant [5 x i8] c"PPMd\00", align 1
@.str.31 = private unnamed_addr constant [4 x i8] c"FAT\00", align 1
@.str.32 = private unnamed_addr constant [6 x i8] c"AMIGA\00", align 1
@.str.33 = private unnamed_addr constant [4 x i8] c"VMS\00", align 1
@.str.34 = private unnamed_addr constant [5 x i8] c"Unix\00", align 1
@.str.35 = private unnamed_addr constant [7 x i8] c"VM/CMS\00", align 1
@.str.36 = private unnamed_addr constant [6 x i8] c"Atari\00", align 1
@.str.37 = private unnamed_addr constant [5 x i8] c"HPFS\00", align 1
@.str.38 = private unnamed_addr constant [10 x i8] c"Macintosh\00", align 1
@.str.39 = private unnamed_addr constant [9 x i8] c"Z-System\00", align 1
@.str.40 = private unnamed_addr constant [5 x i8] c"CP/M\00", align 1
@.str.41 = private unnamed_addr constant [8 x i8] c"TOPS-20\00", align 1
@.str.42 = private unnamed_addr constant [5 x i8] c"NTFS\00", align 1
@.str.43 = private unnamed_addr constant [9 x i8] c"SMS/QDOS\00", align 1
@.str.44 = private unnamed_addr constant [6 x i8] c"Acorn\00", align 1
@.str.45 = private unnamed_addr constant [5 x i8] c"VFAT\00", align 1
@.str.46 = private unnamed_addr constant [4 x i8] c"MVS\00", align 1
@.str.47 = private unnamed_addr constant [5 x i8] c"BeOS\00", align 1
@.str.48 = private unnamed_addr constant [7 x i8] c"Tandem\00", align 1
@.str.49 = private unnamed_addr constant [7 x i8] c"OS/400\00", align 1
@.str.50 = private unnamed_addr constant [5 x i8] c"OS/X\00", align 1
@.str.51 = private unnamed_addr constant [8 x i8] c"Unknown\00", align 1
@_ZTV17COutStreamWithCRC = external unnamed_addr constant { [8 x ptr] }, align 8
@_ZTVN7NCrypto6NWzAes8CDecoderE = external unnamed_addr constant { [11 x ptr], [8 x ptr], [8 x ptr] }, align 8
@_ZTVN7NCrypto6NWzAes10CBaseCoderE = external unnamed_addr constant { [10 x ptr], [8 x ptr] }, align 8
@_ZTVN7NCrypto10NZipStrong8CDecoderE = linkonce_odr dso_local unnamed_addr constant { [12 x ptr], [9 x ptr], [8 x ptr] } { [12 x ptr] [ptr null, ptr @_ZTIN7NCrypto10NZipStrong8CDecoderE, ptr @_ZN7NCrypto10NZipStrong8CDecoder14QueryInterfaceERK4GUIDPPv, ptr @_ZN7NCrypto10NZipStrong8CDecoder6AddRefEv, ptr @_ZN7NCrypto10NZipStrong8CDecoder7ReleaseEv, ptr @_ZN7NCrypto10NZipStrong10CBaseCoderD2Ev, ptr @_ZN7NCrypto10NZipStrong8CDecoderD0Ev, ptr @_ZN7NCrypto12CAesCbcCoder4InitEv, ptr @_ZN7NCrypto12CAesCbcCoder6FilterEPhj, ptr @_ZN7NCrypto12CAesCbcCoder6SetKeyEPKhj, ptr @_ZN7NCrypto12CAesCbcCoder13SetInitVectorEPKhj, ptr @_ZN7NCrypto10NZipStrong10CBaseCoder17CryptoSetPasswordEPKhj], [9 x ptr] [ptr inttoptr (i64 -8 to ptr), ptr @_ZTIN7NCrypto10NZipStrong8CDecoderE, ptr @_ZThn8_N7NCrypto10NZipStrong8CDecoder14QueryInterfaceERK4GUIDPPv, ptr @_ZThn8_N7NCrypto10NZipStrong8CDecoder6AddRefEv, ptr @_ZThn8_N7NCrypto10NZipStrong8CDecoder7ReleaseEv, ptr @_ZThn8_N7NCrypto10NZipStrong8CDecoderD1Ev, ptr @_ZThn8_N7NCrypto10NZipStrong8CDecoderD0Ev, ptr @_ZThn8_N7NCrypto12CAesCbcCoder6SetKeyEPKhj, ptr @_ZThn8_N7NCrypto12CAesCbcCoder13SetInitVectorEPKhj], [8 x ptr] [ptr inttoptr (i64 -328 to ptr), ptr @_ZTIN7NCrypto10NZipStrong8CDecoderE, ptr @_ZThn328_N7NCrypto10NZipStrong8CDecoder14QueryInterfaceERK4GUIDPPv, ptr @_ZThn328_N7NCrypto10NZipStrong8CDecoder6AddRefEv, ptr @_ZThn328_N7NCrypto10NZipStrong8CDecoder7ReleaseEv, ptr @_ZThn328_N7NCrypto10NZipStrong8CDecoderD1Ev, ptr @_ZThn328_N7NCrypto10NZipStrong8CDecoderD0Ev, ptr @_ZThn328_N7NCrypto10NZipStrong10CBaseCoder17CryptoSetPasswordEPKhj] }, comdat, align 8
@_ZTSN7NCrypto10NZipStrong8CDecoderE = linkonce_odr dso_local constant [32 x i8] c"N7NCrypto10NZipStrong8CDecoderE\00", comdat, align 1
@_ZTIN7NCrypto10NZipStrong10CBaseCoderE = external constant ptr
@_ZTIN7NCrypto10NZipStrong8CDecoderE = linkonce_odr dso_local constant { ptr, ptr, ptr } { ptr getelementptr inbounds (ptr, ptr @_ZTVN10__cxxabiv120__si_class_type_infoE, i64 2), ptr @_ZTSN7NCrypto10NZipStrong8CDecoderE, ptr @_ZTIN7NCrypto10NZipStrong10CBaseCoderE }, comdat, align 8
@_ZTVN7NCrypto10NZipStrong10CBaseCoderE = external unnamed_addr constant { [12 x ptr], [9 x ptr], [8 x ptr] }, align 8
@IID_IUnknown = external local_unnamed_addr global %struct.GUID, align 4
@_ZTVN7NCrypto4NZip8CDecoderE = external unnamed_addr constant { [10 x ptr], [8 x ptr] }, align 8
@_ZTVN9NCompress10CCopyCoderE = external unnamed_addr constant { [9 x ptr], [8 x ptr] }, align 8
@_ZTVN9NCompress7NShrink8CDecoderE = external unnamed_addr constant { [8 x ptr] }, align 8
@_ZTV13CObjectVectorIN8NArchive4NZip11CMethodItemEE = linkonce_odr dso_local unnamed_addr constant { [5 x ptr] } { [5 x ptr] [ptr null, ptr @_ZTI13CObjectVectorIN8NArchive4NZip11CMethodItemEE, ptr @_ZN13CObjectVectorIN8NArchive4NZip11CMethodItemEED2Ev, ptr @_ZN13CObjectVectorIN8NArchive4NZip11CMethodItemEED0Ev, ptr @_ZN13CObjectVectorIN8NArchive4NZip11CMethodItemEE6DeleteEii] }, comdat, align 8
@_ZTS13CObjectVectorIN8NArchive4NZip11CMethodItemEE = linkonce_odr dso_local constant [47 x i8] c"13CObjectVectorIN8NArchive4NZip11CMethodItemEE\00", comdat, align 1
@_ZTS13CRecordVectorIPvE = linkonce_odr dso_local constant [20 x i8] c"13CRecordVectorIPvE\00", comdat, align 1
@_ZTI17CBaseRecordVector = external constant ptr
@_ZTI13CRecordVectorIPvE = linkonce_odr dso_local constant { ptr, ptr, ptr } { ptr getelementptr inbounds (ptr, ptr @_ZTVN10__cxxabiv120__si_class_type_infoE, i64 2), ptr @_ZTS13CRecordVectorIPvE, ptr @_ZTI17CBaseRecordVector }, comdat, align 8
@_ZTI13CObjectVectorIN8NArchive4NZip11CMethodItemEE = linkonce_odr dso_local constant { ptr, ptr, ptr } { ptr getelementptr inbounds (ptr, ptr @_ZTVN10__cxxabiv120__si_class_type_infoE, i64 2), ptr @_ZTS13CObjectVectorIN8NArchive4NZip11CMethodItemEE, ptr @_ZTI13CRecordVectorIPvE }, comdat, align 8
@_ZTV13CObjectVectorIN8NArchive4NZip14CExtraSubBlockEE = linkonce_odr dso_local unnamed_addr constant { [5 x ptr] } { [5 x ptr] [ptr null, ptr @_ZTI13CObjectVectorIN8NArchive4NZip14CExtraSubBlockEE, ptr @_ZN13CObjectVectorIN8NArchive4NZip14CExtraSubBlockEED2Ev, ptr @_ZN13CObjectVectorIN8NArchive4NZip14CExtraSubBlockEED0Ev, ptr @_ZN13CObjectVectorIN8NArchive4NZip14CExtraSubBlockEE6DeleteEii] }, comdat, align 8
@_ZTS13CObjectVectorIN8NArchive4NZip14CExtraSubBlockEE = linkonce_odr dso_local constant [50 x i8] c"13CObjectVectorIN8NArchive4NZip14CExtraSubBlockEE\00", comdat, align 1
@_ZTI13CObjectVectorIN8NArchive4NZip14CExtraSubBlockEE = linkonce_odr dso_local constant { ptr, ptr, ptr } { ptr getelementptr inbounds (ptr, ptr @_ZTVN10__cxxabiv120__si_class_type_infoE, i64 2), ptr @_ZTS13CObjectVectorIN8NArchive4NZip14CExtraSubBlockEE, ptr @_ZTI13CRecordVectorIPvE }, comdat, align 8
@IID_IInArchive = external local_unnamed_addr global %struct.GUID, align 4
@IID_IOutArchive = external local_unnamed_addr global %struct.GUID, align 4
@IID_ISetProperties = external local_unnamed_addr global %struct.GUID, align 4
@_ZTV13CObjectVectorIN8NArchive4NZip7CItemExEE = linkonce_odr dso_local unnamed_addr constant { [5 x ptr] } { [5 x ptr] [ptr null, ptr @_ZTI13CObjectVectorIN8NArchive4NZip7CItemExEE, ptr @_ZN13CObjectVectorIN8NArchive4NZip7CItemExEED2Ev, ptr @_ZN13CObjectVectorIN8NArchive4NZip7CItemExEED0Ev, ptr @_ZN13CObjectVectorIN8NArchive4NZip7CItemExEE6DeleteEii] }, comdat, align 8
@_ZTS13CObjectVectorIN8NArchive4NZip7CItemExEE = linkonce_odr dso_local constant [42 x i8] c"13CObjectVectorIN8NArchive4NZip7CItemExEE\00", comdat, align 1
@_ZTI13CObjectVectorIN8NArchive4NZip7CItemExEE = linkonce_odr dso_local constant { ptr, ptr, ptr } { ptr getelementptr inbounds (ptr, ptr @_ZTVN10__cxxabiv120__si_class_type_infoE, i64 2), ptr @_ZTS13CObjectVectorIN8NArchive4NZip7CItemExEE, ptr @_ZTI13CRecordVectorIPvE }, comdat, align 8

@_ZN8NArchive4NZip8CHandlerC1Ev = dso_local unnamed_addr alias void (ptr), ptr @_ZN8NArchive4NZip8CHandlerC2Ev
@_ZN8NArchive4NZip12CLzmaDecoderC1Ev = dso_local unnamed_addr alias void (ptr), ptr @_ZN8NArchive4NZip12CLzmaDecoderC2Ev

; Function Attrs: uwtable
define dso_local void @_ZN8NArchive4NZip8CHandlerC2Ev(ptr noundef nonnull align 8 dereferenceable(256) %this) unnamed_addr #0 align 2 personality ptr @__gxx_personality_v0 {
invoke.cont3:
  %0 = getelementptr inbounds i8, ptr %this, i64 8
  %1 = getelementptr inbounds i8, ptr %this, i64 16
  %2 = getelementptr inbounds i8, ptr %this, i64 24
  store i32 0, ptr %2, align 8
  store ptr getelementptr inbounds ({ [20 x ptr], [9 x ptr], [8 x ptr] }, ptr @_ZTVN8NArchive4NZip8CHandlerE, i64 0, inrange i32 0, i64 2), ptr %this, align 8
  store ptr getelementptr inbounds ({ [20 x ptr], [9 x ptr], [8 x ptr] }, ptr @_ZTVN8NArchive4NZip8CHandlerE, i64 0, inrange i32 1, i64 2), ptr %0, align 8
  store ptr getelementptr inbounds ({ [20 x ptr], [9 x ptr], [8 x ptr] }, ptr @_ZTVN8NArchive4NZip8CHandlerE, i64 0, inrange i32 2, i64 2), ptr %1, align 8
  %m_Items = getelementptr inbounds %"class.NArchive::NZip::CHandler", ptr %this, i64 0, i32 4
  %_capacity.i.i.i = getelementptr inbounds %"class.NArchive::NZip::CHandler", ptr %this, i64 0, i32 4, i32 0, i32 0, i32 1
  %_itemSize.i.i.i = getelementptr inbounds %"class.NArchive::NZip::CHandler", ptr %this, i64 0, i32 4, i32 0, i32 0, i32 4
  tail call void @llvm.memset.p0.i64(ptr noundef nonnull align 8 dereferenceable(16) %_capacity.i.i.i, i8 0, i64 16, i1 false)
  store i64 8, ptr %_itemSize.i.i.i, align 8
  store ptr getelementptr inbounds ({ [5 x ptr] }, ptr @_ZTV13CObjectVectorIN8NArchive4NZip7CItemExEE, i64 0, inrange i32 0, i64 2), ptr %m_Items, align 8
  %m_Archive = getelementptr inbounds %"class.NArchive::NZip::CHandler", ptr %this, i64 0, i32 5
  store ptr null, ptr %m_Archive, align 8
  %_inBuffer.i = getelementptr inbounds %"class.NArchive::NZip::CHandler", ptr %this, i64 0, i32 5, i32 7
  invoke void @_ZN9CInBufferC1Ev(ptr noundef nonnull align 8 dereferenceable(45) %_inBuffer.i)
          to label %invoke.cont5 unwind label %lpad.i

lpad.i:                                           ; preds = %invoke.cont3
  %3 = landingpad { ptr, i32 }
          cleanup
  %4 = load ptr, ptr %m_Archive, align 8
  %tobool.not.i.i = icmp eq ptr %4, null
  br i1 %tobool.not.i.i, label %ehcleanup, label %if.then.i.i

if.then.i.i:                                      ; preds = %lpad.i
  %vtable.i.i = load ptr, ptr %4, align 8
  %vfn.i.i = getelementptr inbounds ptr, ptr %vtable.i.i, i64 2
  %5 = load ptr, ptr %vfn.i.i, align 8
  %call.i.i = invoke noundef i32 %5(ptr noundef nonnull align 8 dereferenceable(8) %4)
          to label %ehcleanup unwind label %terminate.lpad.i.i

terminate.lpad.i.i:                               ; preds = %if.then.i.i
  %6 = landingpad { ptr, i32 }
          catch ptr null
  %7 = extractvalue { ptr, i32 } %6, 0
  tail call void @__clang_call_terminate(ptr %7) #21
  unreachable

invoke.cont5:                                     ; preds = %invoke.cont3
  %ArcInfo.i = getelementptr inbounds %"class.NArchive::NZip::CHandler", ptr %this, i64 0, i32 5, i32 8
  %Comment.i.i = getelementptr inbounds %"class.NArchive::NZip::CHandler", ptr %this, i64 0, i32 5, i32 8, i32 3
  tail call void @llvm.memset.p0.i64(ptr noundef nonnull align 8 dereferenceable(16) %ArcInfo.i, i8 0, i64 16, i1 false)
  store ptr getelementptr inbounds ({ [4 x ptr] }, ptr @_ZTV7CBufferIhE, i64 0, inrange i32 0, i64 2), ptr %Comment.i.i, align 8
  %_capacity.i.i.i14 = getelementptr inbounds %"class.NArchive::NZip::CHandler", ptr %this, i64 0, i32 5, i32 8, i32 3, i32 1
  tail call void @llvm.memset.p0.i64(ptr noundef nonnull align 8 dereferenceable(16) %_capacity.i.i.i14, i8 0, i64 16, i1 false)
  %m_Level.i = getelementptr inbounds %"class.NArchive::NZip::CHandler", ptr %this, i64 0, i32 6
  %m_NumMatchFinderCyclesDefined.i = getelementptr inbounds %"class.NArchive::NZip::CHandler", ptr %this, i64 0, i32 15
  tail call void @llvm.memset.p0.i64(ptr noundef nonnull align 8 dereferenceable(36) %m_Level.i, i8 -1, i64 36, i1 false)
  store <4 x i8> <i8 0, i8 0, i8 0, i8 3>, ptr %m_NumMatchFinderCyclesDefined.i, align 4
  %m_WriteNtfsTimeExtra.i = getelementptr inbounds %"class.NArchive::NZip::CHandler", ptr %this, i64 0, i32 19
  store i8 0, ptr %m_WriteNtfsTimeExtra.i, align 8
  %m_ForceLocal.i = getelementptr inbounds %"class.NArchive::NZip::CHandler", ptr %this, i64 0, i32 20
  store i8 0, ptr %m_ForceLocal.i, align 1
  %m_ForceUtf8.i = getelementptr inbounds %"class.NArchive::NZip::CHandler", ptr %this, i64 0, i32 21
  store i8 0, ptr %m_ForceUtf8.i, align 2
  %call.i15 = invoke noundef i32 @_ZN8NWindows7NSystem21GetNumberOfProcessorsEv()
          to label %invoke.cont7 unwind label %lpad6

invoke.cont7:                                     ; preds = %invoke.cont5
  %_numThreads.i = getelementptr inbounds %"class.NArchive::NZip::CHandler", ptr %this, i64 0, i32 22
  store i32 %call.i15, ptr %_numThreads.i, align 4
  ret void

lpad6:                                            ; preds = %invoke.cont5
  %8 = landingpad { ptr, i32 }
          cleanup
  tail call void @_ZN8NArchive4NZip10CInArchiveD2Ev(ptr noundef nonnull align 8 dereferenceable(138) %m_Archive) #22
  br label %ehcleanup

ehcleanup:                                        ; preds = %if.then.i.i, %lpad.i, %lpad6
  %.pn = phi { ptr, i32 } [ %8, %lpad6 ], [ %3, %if.then.i.i ], [ %3, %lpad.i ]
  tail call void @_ZN13CObjectVectorIN8NArchive4NZip7CItemExEED2Ev(ptr noundef nonnull align 8 dereferenceable(32) %m_Items) #22
  resume { ptr, i32 } %.pn
}

declare i32 @__gxx_personality_v0(...)

; Function Attrs: inlinehint nounwind uwtable
define linkonce_odr dso_local void @_ZN8NArchive4NZip10CInArchiveD2Ev(ptr noundef nonnull align 8 dereferenceable(138) %this) unnamed_addr #1 comdat align 2 personality ptr @__gxx_personality_v0 {
entry:
  %Comment.i = getelementptr inbounds %"class.NArchive::NZip::CInArchive", ptr %this, i64 0, i32 8, i32 3
  store ptr getelementptr inbounds ({ [4 x ptr] }, ptr @_ZTV7CBufferIhE, i64 0, inrange i32 0, i64 2), ptr %Comment.i, align 8
  %_items.i.i = getelementptr inbounds %"class.NArchive::NZip::CInArchive", ptr %this, i64 0, i32 8, i32 3, i32 2
  %0 = load ptr, ptr %_items.i.i, align 8
  %isnull.i.i = icmp eq ptr %0, null
  br i1 %isnull.i.i, label %_ZN8NArchive4NZip14CInArchiveInfoD2Ev.exit, label %delete.notnull.i.i

delete.notnull.i.i:                               ; preds = %entry
  tail call void @_ZdaPv(ptr noundef nonnull %0) #23
  br label %_ZN8NArchive4NZip14CInArchiveInfoD2Ev.exit

_ZN8NArchive4NZip14CInArchiveInfoD2Ev.exit:       ; preds = %entry, %delete.notnull.i.i
  %_inBuffer = getelementptr inbounds %"class.NArchive::NZip::CInArchive", ptr %this, i64 0, i32 7
  invoke void @_ZN9CInBuffer4FreeEv(ptr noundef nonnull align 8 dereferenceable(45) %_inBuffer)
          to label %invoke.cont.i unwind label %terminate.lpad.i

invoke.cont.i:                                    ; preds = %_ZN8NArchive4NZip14CInArchiveInfoD2Ev.exit
  %_stream.i = getelementptr inbounds %"class.NArchive::NZip::CInArchive", ptr %this, i64 0, i32 7, i32 3
  %1 = load ptr, ptr %_stream.i, align 8
  %tobool.not.i.i = icmp eq ptr %1, null
  br i1 %tobool.not.i.i, label %_ZN9CInBufferD2Ev.exit, label %if.then.i.i

if.then.i.i:                                      ; preds = %invoke.cont.i
  %vtable.i.i = load ptr, ptr %1, align 8
  %vfn.i.i = getelementptr inbounds ptr, ptr %vtable.i.i, i64 2
  %2 = load ptr, ptr %vfn.i.i, align 8
  %call.i.i = invoke noundef i32 %2(ptr noundef nonnull align 8 dereferenceable(8) %1)
          to label %_ZN9CInBufferD2Ev.exit unwind label %terminate.lpad.i.i

terminate.lpad.i.i:                               ; preds = %if.then.i.i
  %3 = landingpad { ptr, i32 }
          catch ptr null
  %4 = extractvalue { ptr, i32 } %3, 0
  tail call void @__clang_call_terminate(ptr %4) #21
  unreachable

terminate.lpad.i:                                 ; preds = %_ZN8NArchive4NZip14CInArchiveInfoD2Ev.exit
  %5 = landingpad { ptr, i32 }
          catch ptr null
  %6 = extractvalue { ptr, i32 } %5, 0
  tail call void @__clang_call_terminate(ptr %6) #21
  unreachable

_ZN9CInBufferD2Ev.exit:                           ; preds = %invoke.cont.i, %if.then.i.i
  %7 = load ptr, ptr %this, align 8
  %tobool.not.i = icmp eq ptr %7, null
  br i1 %tobool.not.i, label %_ZN9CMyComPtrI9IInStreamED2Ev.exit, label %if.then.i

if.then.i:                                        ; preds = %_ZN9CInBufferD2Ev.exit
  %vtable.i = load ptr, ptr %7, align 8
  %vfn.i = getelementptr inbounds ptr, ptr %vtable.i, i64 2
  %8 = load ptr, ptr %vfn.i, align 8
  %call.i = invoke noundef i32 %8(ptr noundef nonnull align 8 dereferenceable(8) %7)
          to label %_ZN9CMyComPtrI9IInStreamED2Ev.exit unwind label %terminate.lpad.i2

terminate.lpad.i2:                                ; preds = %if.then.i
  %9 = landingpad { ptr, i32 }
          catch ptr null
  %10 = extractvalue { ptr, i32 } %9, 0
  tail call void @__clang_call_terminate(ptr %10) #21
  unreachable

_ZN9CMyComPtrI9IInStreamED2Ev.exit:               ; preds = %_ZN9CInBufferD2Ev.exit, %if.then.i
  ret void
}

; Function Attrs: nounwind uwtable
define linkonce_odr dso_local void @_ZN13CObjectVectorIN8NArchive4NZip7CItemExEED2Ev(ptr noundef nonnull align 8 dereferenceable(32) %this) unnamed_addr #2 comdat align 2 personality ptr @__gxx_personality_v0 {
entry:
  store ptr getelementptr inbounds ({ [5 x ptr] }, ptr @_ZTV13CObjectVectorIN8NArchive4NZip7CItemExEE, i64 0, inrange i32 0, i64 2), ptr %this, align 8
  invoke void @_ZN17CBaseRecordVector5ClearEv(ptr noundef nonnull align 8 dereferenceable(32) %this)
          to label %invoke.cont unwind label %terminate.lpad

invoke.cont:                                      ; preds = %entry
  tail call void @_ZN17CBaseRecordVectorD2Ev(ptr noundef nonnull align 8 dereferenceable(32) %this) #22
  ret void

terminate.lpad:                                   ; preds = %entry
  %0 = landingpad { ptr, i32 }
          catch ptr null
  %1 = extractvalue { ptr, i32 } %0, 0
  tail call void @__clang_call_terminate(ptr %1) #21
  unreachable
}

; Function Attrs: mustprogress nofree norecurse nosync nounwind willreturn memory(argmem: write) uwtable
define dso_local noundef i32 @_ZN8NArchive4NZip8CHandler21GetNumberOfPropertiesEPj(ptr nocapture nonnull readnone align 8 %this, ptr nocapture noundef writeonly %numProperties) unnamed_addr #3 align 2 {
entry:
  store i32 14, ptr %numProperties, align 4
  ret i32 0
}

; Function Attrs: mustprogress nofree norecurse nosync nounwind willreturn memory(argmem: write) uwtable
define dso_local noundef i32 @_ZN8NArchive4NZip8CHandler15GetPropertyInfoEjPPwPjPt(ptr nocapture nonnull readnone align 8 %this, i32 noundef %index, ptr nocapture noundef writeonly %name, ptr nocapture noundef writeonly %propID, ptr nocapture noundef writeonly %varType) unnamed_addr #3 align 2 {
entry:
  %cmp = icmp ugt i32 %index, 13
  br i1 %cmp, label %return, label %if.end

if.end:                                           ; preds = %entry
  %conv = zext i32 %index to i64
  %propid = getelementptr inbounds [14 x %struct.tagSTATPROPSTG], ptr @_ZN8NArchive4NZipL6kPropsE, i64 0, i64 %conv, i32 1
  %0 = load i32, ptr %propid, align 8
  store i32 %0, ptr %propID, align 4
  %vt = getelementptr inbounds [14 x %struct.tagSTATPROPSTG], ptr @_ZN8NArchive4NZipL6kPropsE, i64 0, i64 %conv, i32 2
  %1 = load i16, ptr %vt, align 4
  store i16 %1, ptr %varType, align 2
  store ptr null, ptr %name, align 8
  br label %return

return:                                           ; preds = %entry, %if.end
  %retval.0 = phi i32 [ 0, %if.end ], [ -2147024809, %entry ]
  ret i32 %retval.0
}

; Function Attrs: mustprogress nocallback nofree nosync nounwind willreturn memory(argmem: readwrite)
declare void @llvm.lifetime.start.p0(i64 immarg, ptr nocapture) #4

; Function Attrs: mustprogress nocallback nofree nosync nounwind willreturn memory(argmem: readwrite)
declare void @llvm.lifetime.end.p0(i64 immarg, ptr nocapture) #4

; Function Attrs: mustprogress nofree norecurse nosync nounwind willreturn memory(argmem: write) uwtable
define dso_local noundef i32 @_ZN8NArchive4NZip8CHandler28GetNumberOfArchivePropertiesEPj(ptr nocapture nonnull readnone align 8 %this, ptr nocapture noundef writeonly %numProperties) unnamed_addr #3 align 2 {
entry:
  store i32 4, ptr %numProperties, align 4
  ret i32 0
}

; Function Attrs: mustprogress nofree norecurse nosync nounwind willreturn memory(argmem: write) uwtable
define dso_local noundef i32 @_ZN8NArchive4NZip8CHandler22GetArchivePropertyInfoEjPPwPjPt(ptr nocapture nonnull readnone align 8 %this, i32 noundef %index, ptr nocapture noundef writeonly %name, ptr nocapture noundef writeonly %propID, ptr nocapture noundef writeonly %varType) unnamed_addr #3 align 2 {
entry:
  %cmp = icmp ugt i32 %index, 3
  br i1 %cmp, label %return, label %if.end

if.end:                                           ; preds = %entry
  %conv = zext i32 %index to i64
  %propid = getelementptr inbounds [4 x %struct.tagSTATPROPSTG], ptr @_ZN8NArchive4NZipL9kArcPropsE, i64 0, i64 %conv, i32 1
  %0 = load i32, ptr %propid, align 8
  store i32 %0, ptr %propID, align 4
  %vt = getelementptr inbounds [4 x %struct.tagSTATPROPSTG], ptr @_ZN8NArchive4NZipL9kArcPropsE, i64 0, i64 %conv, i32 2
  %1 = load i16, ptr %vt, align 4
  store i16 %1, ptr %varType, align 2
  store ptr null, ptr %name, align 8
  br label %return

return:                                           ; preds = %entry, %if.end
  %retval.0 = phi i32 [ 0, %if.end ], [ -2147024809, %entry ]
  ret i32 %retval.0
}

; Function Attrs: uwtable
define dso_local noundef i32 @_ZN8NArchive4NZip8CHandler18GetArchivePropertyEjP14tagPROPVARIANT(ptr nocapture noundef nonnull readonly align 8 dereferenceable(256) %this, i32 noundef %propID, ptr noundef %value) unnamed_addr #0 align 2 personality ptr @__gxx_personality_v0 {
entry:
  %prop = alloca %"class.NWindows::NCOM::CPropVariant", align 8
  %ref.tmp = alloca %class.CStringBase, align 8
  %ref.tmp8 = alloca %class.CStringBase.1, align 8
  call void @llvm.lifetime.start.p0(i64 16, ptr nonnull %prop) #22
  store i16 0, ptr %prop, align 8
  %wReserved1.i = getelementptr inbounds %struct.tagPROPVARIANT, ptr %prop, i64 0, i32 1
  store i16 0, ptr %wReserved1.i, align 2
  switch i32 %propID, label %sw.epilog [
    i32 41, label %sw.bb
    i32 28, label %sw.bb7
    i32 44, label %sw.bb21
    i32 36, label %sw.bb28
  ]

sw.bb:                                            ; preds = %entry
  %IsZip64 = getelementptr inbounds %"class.NArchive::NZip::CHandler", ptr %this, i64 0, i32 5, i32 9
  %0 = load i8, ptr %IsZip64, align 8
  %tobool.not = icmp eq i8 %0, 0
  br i1 %tobool.not, label %sw.epilog, label %if.then

if.then:                                          ; preds = %sw.bb
  %call = invoke noundef nonnull align 8 dereferenceable(16) ptr @_ZN8NWindows4NCOM12CPropVariantaSEb(ptr noundef nonnull align 8 dereferenceable(16) %prop, i1 noundef zeroext true)
          to label %sw.epilog unwind label %lpad5

lpad5:                                            ; preds = %if.then31.invoke, %sw.epilog, %if.then
  %1 = landingpad { ptr, i32 }
          catch ptr @_ZTIPKc
          catch ptr null
  br label %ehcleanup40

sw.bb7:                                           ; preds = %entry
  call void @llvm.lifetime.start.p0(i64 16, ptr nonnull %ref.tmp) #22
  call void @llvm.lifetime.start.p0(i64 16, ptr nonnull %ref.tmp8) #22
  tail call void @llvm.experimental.noalias.scope.decl(metadata !52)
  %_capacity.i.i = getelementptr inbounds %class.CStringBase.1, ptr %ref.tmp8, i64 0, i32 2
  %2 = getelementptr inbounds i8, ptr %ref.tmp8, i64 8
  store i64 0, ptr %2, align 8
  %call.i.i.i55 = invoke noalias noundef nonnull dereferenceable(4) ptr @_Znam(i64 noundef 4) #24
          to label %call.i.i.i.noexc unwind label %lpad10

call.i.i.i.noexc:                                 ; preds = %sw.bb7
  store ptr %call.i.i.i55, ptr %ref.tmp8, align 8
  store i8 0, ptr %call.i.i.i55, align 1
  store i32 4, ptr %_capacity.i.i, align 4
  %_capacity.i15.i = getelementptr inbounds %"class.NArchive::NZip::CHandler", ptr %this, i64 0, i32 5, i32 8, i32 3, i32 1
  %3 = load i64, ptr %_capacity.i15.i, align 8
  %conv.i = trunc i64 %3 to i32
  %cmp.i = icmp sgt i32 %conv.i, 0
  br i1 %cmp.i, label %if.then.i, label %invoke.cont11

if.then.i:                                        ; preds = %call.i.i.i.noexc
  %cmp.not.i.i = icmp ult i32 %conv.i, 3
  br i1 %cmp.not.i.i, label %invoke.cont2.i, label %if.end.i.i.i

if.end.i.i.i:                                     ; preds = %if.then.i
  %add.i.i.i = add nuw nsw i32 %conv.i, 2
  %conv.i.i.i = zext i32 %add.i.i.i to i64
  %call.i.i1718.i = invoke noalias noundef nonnull ptr @_Znam(i64 noundef %conv.i.i.i) #24
          to label %if.end9.i.i.i unwind label %_ZN11CStringBaseIcED2Ev.exit.i

if.end9.i.i.i:                                    ; preds = %if.end.i.i.i
  tail call void @_ZdaPv(ptr noundef nonnull %call.i.i.i55) #23
  store ptr %call.i.i1718.i, ptr %ref.tmp8, align 8
  store i8 0, ptr %call.i.i1718.i, align 1
  store i32 %add.i.i.i, ptr %_capacity.i.i, align 4
  br label %invoke.cont2.i

invoke.cont2.i:                                   ; preds = %if.end9.i.i.i, %if.then.i
  %4 = phi ptr [ %call.i.i1718.i, %if.end9.i.i.i ], [ %call.i.i.i55, %if.then.i ]
  %_items.i.i = getelementptr inbounds %"class.NArchive::NZip::CHandler", ptr %this, i64 0, i32 5, i32 8, i32 3, i32 2
  %5 = load ptr, ptr %_items.i.i, align 8
  %conv6.i = and i64 %3, 4294967295
  tail call void @llvm.memcpy.p0.p0.i64(ptr nonnull align 1 %4, ptr align 1 %5, i64 %conv6.i, i1 false)
  %arrayidx.i = getelementptr inbounds i8, ptr %4, i64 %conv6.i
  store i8 0, ptr %arrayidx.i, align 1
  br label %for.cond.i.i.i

for.cond.i.i.i:                                   ; preds = %for.cond.i.i.i, %invoke.cont2.i
  %indvars.iv.i.i19.i = phi i64 [ %indvars.iv.next.i.i21.i, %for.cond.i.i.i ], [ 0, %invoke.cont2.i ]
  %arrayidx.i.i20.i = getelementptr inbounds i8, ptr %4, i64 %indvars.iv.i.i19.i
  %6 = load i8, ptr %arrayidx.i.i20.i, align 1
  %cmp.not.i.i.i = icmp eq i8 %6, 0
  %indvars.iv.next.i.i21.i = add nuw i64 %indvars.iv.i.i19.i, 1
  br i1 %cmp.not.i.i.i, label %_ZN11CStringBaseIcE13ReleaseBufferEv.exit.i, label %for.cond.i.i.i

_ZN11CStringBaseIcE13ReleaseBufferEv.exit.i:      ; preds = %for.cond.i.i.i
  %7 = trunc i64 %indvars.iv.i.i19.i to i32
  %sext.i.i = shl i64 %indvars.iv.i.i19.i, 32
  %idxprom.i.i.i = ashr exact i64 %sext.i.i, 32
  %arrayidx.i2.i.i = getelementptr inbounds i8, ptr %4, i64 %idxprom.i.i.i
  store i8 0, ptr %arrayidx.i2.i.i, align 1
  %_length.i.i22.i = getelementptr inbounds %class.CStringBase.1, ptr %ref.tmp8, i64 0, i32 1
  store i32 %7, ptr %_length.i.i22.i, align 8
  br label %invoke.cont11

_ZN11CStringBaseIcED2Ev.exit.i:                   ; preds = %if.end.i.i.i
  %8 = landingpad { ptr, i32 }
          catch ptr @_ZTIPKc
          catch ptr null
  tail call void @_ZdaPv(ptr noundef nonnull %call.i.i.i55) #23
  br label %ehcleanup19

invoke.cont11:                                    ; preds = %_ZN11CStringBaseIcE13ReleaseBufferEv.exit.i, %call.i.i.i.noexc
  invoke void @_Z24MultiByteToUnicodeStringRK11CStringBaseIcEj(ptr nonnull sret(%class.CStringBase) align 8 %ref.tmp, ptr noundef nonnull align 8 dereferenceable(16) %ref.tmp8, i32 noundef 0)
          to label %invoke.cont13 unwind label %lpad12

invoke.cont13:                                    ; preds = %invoke.cont11
  %9 = load ptr, ptr %ref.tmp, align 8
  %call18 = invoke noundef nonnull align 8 dereferenceable(16) ptr @_ZN8NWindows4NCOM12CPropVariantaSEPKw(ptr noundef nonnull align 8 dereferenceable(16) %prop, ptr noundef %9)
          to label %invoke.cont17 unwind label %lpad14

invoke.cont17:                                    ; preds = %invoke.cont13
  %10 = load ptr, ptr %ref.tmp, align 8
  %isnull.i = icmp eq ptr %10, null
  br i1 %isnull.i, label %_ZN11CStringBaseIwED2Ev.exit, label %delete.notnull.i

delete.notnull.i:                                 ; preds = %invoke.cont17
  call void @_ZdaPv(ptr noundef nonnull %10) #23
  br label %_ZN11CStringBaseIwED2Ev.exit

_ZN11CStringBaseIwED2Ev.exit:                     ; preds = %invoke.cont17, %delete.notnull.i
  %11 = load ptr, ptr %ref.tmp8, align 8
  %isnull.i56 = icmp eq ptr %11, null
  br i1 %isnull.i56, label %_ZN11CStringBaseIcED2Ev.exit, label %delete.notnull.i57

delete.notnull.i57:                               ; preds = %_ZN11CStringBaseIwED2Ev.exit
  call void @_ZdaPv(ptr noundef nonnull %11) #23
  br label %_ZN11CStringBaseIcED2Ev.exit

_ZN11CStringBaseIcED2Ev.exit:                     ; preds = %_ZN11CStringBaseIwED2Ev.exit, %delete.notnull.i57
  call void @llvm.lifetime.end.p0(i64 16, ptr nonnull %ref.tmp8) #22
  call void @llvm.lifetime.end.p0(i64 16, ptr nonnull %ref.tmp) #22
  br label %sw.epilog

lpad10:                                           ; preds = %sw.bb7
  %12 = landingpad { ptr, i32 }
          catch ptr @_ZTIPKc
          catch ptr null
  br label %ehcleanup19

lpad12:                                           ; preds = %invoke.cont11
  %13 = landingpad { ptr, i32 }
          catch ptr @_ZTIPKc
          catch ptr null
  br label %ehcleanup

lpad14:                                           ; preds = %invoke.cont13
  %14 = landingpad { ptr, i32 }
          catch ptr @_ZTIPKc
          catch ptr null
  %15 = load ptr, ptr %ref.tmp, align 8
  %isnull.i58 = icmp eq ptr %15, null
  br i1 %isnull.i58, label %ehcleanup, label %delete.notnull.i59

delete.notnull.i59:                               ; preds = %lpad14
  call void @_ZdaPv(ptr noundef nonnull %15) #23
  br label %ehcleanup

ehcleanup:                                        ; preds = %delete.notnull.i59, %lpad14, %lpad12
  %.pn = phi { ptr, i32 } [ %13, %lpad12 ], [ %14, %lpad14 ], [ %14, %delete.notnull.i59 ]
  %16 = load ptr, ptr %ref.tmp8, align 8
  %isnull.i61 = icmp eq ptr %16, null
  br i1 %isnull.i61, label %ehcleanup19, label %delete.notnull.i62

delete.notnull.i62:                               ; preds = %ehcleanup
  call void @_ZdaPv(ptr noundef nonnull %16) #23
  br label %ehcleanup19

ehcleanup19:                                      ; preds = %delete.notnull.i62, %ehcleanup, %lpad10, %_ZN11CStringBaseIcED2Ev.exit.i
  %.pn.pn = phi { ptr, i32 } [ %12, %lpad10 ], [ %8, %_ZN11CStringBaseIcED2Ev.exit.i ], [ %.pn, %ehcleanup ], [ %.pn, %delete.notnull.i62 ]
  call void @llvm.lifetime.end.p0(i64 16, ptr nonnull %ref.tmp8) #22
  call void @llvm.lifetime.end.p0(i64 16, ptr nonnull %ref.tmp) #22
  br label %ehcleanup40

sw.bb21:                                          ; preds = %entry
  %FinishPosition.i = getelementptr inbounds %"class.NArchive::NZip::CHandler", ptr %this, i64 0, i32 5, i32 8, i32 2
  %17 = load i64, ptr %FinishPosition.i, align 8
  %StartPosition.i = getelementptr inbounds %"class.NArchive::NZip::CHandler", ptr %this, i64 0, i32 5, i32 8, i32 1
  %18 = load i64, ptr %StartPosition.i, align 8
  %sub.i = sub i64 %17, %18
  br label %if.then31.invoke

sw.bb28:                                          ; preds = %entry
  %StartPosition = getelementptr inbounds %"class.NArchive::NZip::CHandler", ptr %this, i64 0, i32 5, i32 8, i32 1
  %19 = load i64, ptr %StartPosition, align 8
  %cmp.not = icmp eq i64 %19, 0
  br i1 %cmp.not, label %sw.epilog, label %if.then31.invoke

if.then31.invoke:                                 ; preds = %sw.bb28, %sw.bb21
  %20 = phi i64 [ %sub.i, %sw.bb21 ], [ %19, %sw.bb28 ]
  %21 = invoke noundef nonnull align 8 dereferenceable(16) ptr @_ZN8NWindows4NCOM12CPropVariantaSEy(ptr noundef nonnull align 8 dereferenceable(16) %prop, i64 noundef %20)
          to label %sw.epilog unwind label %lpad5

sw.epilog:                                        ; preds = %if.then31.invoke, %sw.bb28, %sw.bb, %if.then, %entry, %_ZN11CStringBaseIcED2Ev.exit
  %call39 = invoke noundef i32 @_ZN8NWindows4NCOM12CPropVariant6DetachEP14tagPROPVARIANT(ptr noundef nonnull align 8 dereferenceable(16) %prop, ptr noundef %value)
          to label %invoke.cont38 unwind label %lpad5

invoke.cont38:                                    ; preds = %sw.epilog
  %call.i = invoke noundef i32 @_ZN8NWindows4NCOM12CPropVariant5ClearEv(ptr noundef nonnull align 8 dereferenceable(16) %prop)
          to label %_ZN8NWindows4NCOM12CPropVariantD2Ev.exit unwind label %terminate.lpad.i

terminate.lpad.i:                                 ; preds = %invoke.cont38
  %22 = landingpad { ptr, i32 }
          catch ptr null
  %23 = extractvalue { ptr, i32 } %22, 0
  call void @__clang_call_terminate(ptr %23) #21
  unreachable

_ZN8NWindows4NCOM12CPropVariantD2Ev.exit:         ; preds = %invoke.cont38
  call void @llvm.lifetime.end.p0(i64 16, ptr nonnull %prop) #22
  br label %return

ehcleanup40:                                      ; preds = %ehcleanup19, %lpad5
  %.pn53 = phi { ptr, i32 } [ %1, %lpad5 ], [ %.pn.pn, %ehcleanup19 ]
  %call.i64 = invoke noundef i32 @_ZN8NWindows4NCOM12CPropVariant5ClearEv(ptr noundef nonnull align 8 dereferenceable(16) %prop)
          to label %_ZN8NWindows4NCOM12CPropVariantD2Ev.exit66 unwind label %terminate.lpad.i65

terminate.lpad.i65:                               ; preds = %ehcleanup40
  %24 = landingpad { ptr, i32 }
          catch ptr null
  %25 = extractvalue { ptr, i32 } %24, 0
  call void @__clang_call_terminate(ptr %25) #21
  unreachable

_ZN8NWindows4NCOM12CPropVariantD2Ev.exit66:       ; preds = %ehcleanup40
  %exn.slot.2 = extractvalue { ptr, i32 } %.pn53, 0
  %ehselector.slot.2 = extractvalue { ptr, i32 } %.pn53, 1
  call void @llvm.lifetime.end.p0(i64 16, ptr nonnull %prop) #22
  %26 = call i32 @llvm.eh.typeid.for(ptr nonnull @_ZTIPKc) #22
  %matches = icmp eq i32 %ehselector.slot.2, %26
  %27 = call ptr @__cxa_begin_catch(ptr %exn.slot.2) #22
  br i1 %matches, label %catch42, label %catch

catch42:                                          ; preds = %_ZN8NWindows4NCOM12CPropVariantD2Ev.exit66
  %exception = call ptr @__cxa_allocate_exception(i64 8) #22
  store ptr %27, ptr %exception, align 16
  invoke void @__cxa_throw(ptr nonnull %exception, ptr nonnull @_ZTIPKc, ptr null) #25
          to label %unreachable unwind label %lpad44

catch:                                            ; preds = %_ZN8NWindows4NCOM12CPropVariantD2Ev.exit66
  call void @__cxa_end_catch()
  br label %return

lpad44:                                           ; preds = %catch42
  %28 = landingpad { ptr, i32 }
          cleanup
  call void @__cxa_end_catch() #22
  resume { ptr, i32 } %28

return:                                           ; preds = %_ZN8NWindows4NCOM12CPropVariantD2Ev.exit, %catch
  %retval.0 = phi i32 [ 0, %_ZN8NWindows4NCOM12CPropVariantD2Ev.exit ], [ -2147024882, %catch ]
  ret i32 %retval.0

unreachable:                                      ; preds = %catch42
  unreachable
}

declare noundef nonnull align 8 dereferenceable(16) ptr @_ZN8NWindows4NCOM12CPropVariantaSEb(ptr noundef nonnull align 8 dereferenceable(16), i1 noundef zeroext) local_unnamed_addr #5

declare void @_Z24MultiByteToUnicodeStringRK11CStringBaseIcEj(ptr sret(%class.CStringBase) align 8, ptr noundef nonnull align 8 dereferenceable(16), i32 noundef) local_unnamed_addr #5

declare noundef nonnull align 8 dereferenceable(16) ptr @_ZN8NWindows4NCOM12CPropVariantaSEPKw(ptr noundef nonnull align 8 dereferenceable(16), ptr noundef) local_unnamed_addr #5

declare noundef nonnull align 8 dereferenceable(16) ptr @_ZN8NWindows4NCOM12CPropVariantaSEy(ptr noundef nonnull align 8 dereferenceable(16), i64 noundef) local_unnamed_addr #5

declare noundef i32 @_ZN8NWindows4NCOM12CPropVariant6DetachEP14tagPROPVARIANT(ptr noundef nonnull align 8 dereferenceable(16), ptr noundef) local_unnamed_addr #5

; Function Attrs: nofree nosync nounwind memory(none)
declare i32 @llvm.eh.typeid.for(ptr) #6

declare ptr @__cxa_begin_catch(ptr) local_unnamed_addr

declare void @__cxa_end_catch() local_unnamed_addr

declare ptr @__cxa_allocate_exception(i64) local_unnamed_addr

declare void @__cxa_throw(ptr, ptr, ptr) local_unnamed_addr

; Function Attrs: mustprogress nofree norecurse nosync nounwind willreturn memory(argmem: readwrite) uwtable
define dso_local noundef i32 @_ZN8NArchive4NZip8CHandler16GetNumberOfItemsEPj(ptr nocapture noundef nonnull readonly align 8 dereferenceable(256) %this, ptr nocapture noundef writeonly %numItems) unnamed_addr #7 align 2 {
entry:
  %_size.i = getelementptr inbounds %"class.NArchive::NZip::CHandler", ptr %this, i64 0, i32 4, i32 0, i32 0, i32 2
  %0 = load i32, ptr %_size.i, align 4
  store i32 %0, ptr %numItems, align 4
  ret i32 0
}

; Function Attrs: uwtable
define dso_local noundef i32 @_ZN8NArchive4NZip8CHandler11GetPropertyEjjP14tagPROPVARIANT(ptr nocapture noundef nonnull readonly align 8 dereferenceable(256) %this, i32 noundef %index, i32 noundef %propID, ptr noundef %value) unnamed_addr #0 align 2 personality ptr @__gxx_personality_v0 {
invoke.cont3:
  %prop = alloca %"class.NWindows::NCOM::CPropVariant", align 8
  %ref.tmp = alloca %class.CStringBase, align 8
  %ref.tmp4 = alloca %class.CStringBase, align 8
  %ft = alloca %struct._FILETIME, align 4
  %unixTime = alloca i32, align 4
  %ft46 = alloca %struct._FILETIME, align 4
  %ft57 = alloca %struct._FILETIME, align 4
  %utc = alloca %struct._FILETIME, align 4
  %unixTime73 = alloca i32, align 4
  %localFileTime = alloca %struct._FILETIME, align 4
  %ref.tmp106 = alloca %class.CStringBase, align 8
  %ref.tmp107 = alloca %class.CStringBase.1, align 8
  %method = alloca %class.CStringBase.1, align 8
  %aesField = alloca %"struct.NArchive::NZip::CWzAesExtraField", align 2
  %s = alloca [32 x i8], align 16
  %f = alloca %"struct.NArchive::NZip::CStrongCryptoField", align 2
  %s227 = alloca [32 x i8], align 16
  call void @llvm.lifetime.start.p0(i64 16, ptr nonnull %prop) #22
  store i16 0, ptr %prop, align 8
  %wReserved1.i = getelementptr inbounds %struct.tagPROPVARIANT, ptr %prop, i64 0, i32 1
  store i16 0, ptr %wReserved1.i, align 2
  %_items.i.i = getelementptr inbounds %"class.NArchive::NZip::CHandler", ptr %this, i64 0, i32 4, i32 0, i32 0, i32 3
  %0 = load ptr, ptr %_items.i.i, align 8
  %idxprom.i.i = sext i32 %index to i64
  %arrayidx.i.i = getelementptr inbounds ptr, ptr %0, i64 %idxprom.i.i
  %1 = load ptr, ptr %arrayidx.i.i, align 8
  switch i32 %propID, label %sw.epilog260 [
    i32 3, label %sw.bb
    i32 6, label %sw.bb16
    i32 7, label %sw.bb21
    i32 8, label %sw.bb24
    i32 40, label %sw.bb27
    i32 10, label %sw.bb45
    i32 11, label %sw.bb56
    i32 12, label %sw.bb67
    i32 9, label %sw.bb95
    i32 15, label %sw.bb100
    i32 28, label %sw.bb105
    i32 19, label %sw.bb121
    i32 22, label %sw.bb128
    i32 23, label %sw.bb247
    i32 33, label %sw.bb256
  ]

lpad2:                                            ; preds = %sw.bb24.invoke, %sw.bb100.invoke, %sw.bb256.invoke, %lor.rhs.i, %sw.epilog260, %cond.end, %sw.bb95, %sw.bb16
  %2 = landingpad { ptr, i32 }
          catch ptr @_ZTIPKc
          catch ptr null
  br label %ehcleanup264

sw.bb:                                            ; preds = %invoke.cont3
  call void @llvm.lifetime.start.p0(i64 16, ptr nonnull %ref.tmp) #22
  call void @llvm.lifetime.start.p0(i64 16, ptr nonnull %ref.tmp4) #22
  %Name = getelementptr inbounds %"class.NArchive::NZip::CLocalItem", ptr %1, i64 0, i32 7
  invoke void @_ZNK8NArchive4NZip10CLocalItem16GetUnicodeStringERK11CStringBaseIcE(ptr nonnull sret(%class.CStringBase) align 8 %ref.tmp4, ptr noundef nonnull align 8 dereferenceable(80) %1, ptr noundef nonnull align 8 dereferenceable(16) %Name)
          to label %invoke.cont6 unwind label %lpad5

invoke.cont6:                                     ; preds = %sw.bb
  invoke void @_ZN8NArchive9NItemName10GetOSName2ERK11CStringBaseIwE(ptr nonnull sret(%class.CStringBase) align 8 %ref.tmp, ptr noundef nonnull align 8 dereferenceable(16) %ref.tmp4)
          to label %invoke.cont8 unwind label %lpad7

invoke.cont8:                                     ; preds = %invoke.cont6
  %3 = load ptr, ptr %ref.tmp, align 8
  %call13 = invoke noundef nonnull align 8 dereferenceable(16) ptr @_ZN8NWindows4NCOM12CPropVariantaSEPKw(ptr noundef nonnull align 8 dereferenceable(16) %prop, ptr noundef %3)
          to label %invoke.cont12 unwind label %lpad9

invoke.cont12:                                    ; preds = %invoke.cont8
  %4 = load ptr, ptr %ref.tmp, align 8
  %isnull.i = icmp eq ptr %4, null
  br i1 %isnull.i, label %_ZN11CStringBaseIwED2Ev.exit, label %delete.notnull.i

delete.notnull.i:                                 ; preds = %invoke.cont12
  call void @_ZdaPv(ptr noundef nonnull %4) #23
  br label %_ZN11CStringBaseIwED2Ev.exit

_ZN11CStringBaseIwED2Ev.exit:                     ; preds = %invoke.cont12, %delete.notnull.i
  %5 = load ptr, ptr %ref.tmp4, align 8
  %isnull.i332 = icmp eq ptr %5, null
  br i1 %isnull.i332, label %_ZN11CStringBaseIwED2Ev.exit334, label %delete.notnull.i333

delete.notnull.i333:                              ; preds = %_ZN11CStringBaseIwED2Ev.exit
  call void @_ZdaPv(ptr noundef nonnull %5) #23
  br label %_ZN11CStringBaseIwED2Ev.exit334

_ZN11CStringBaseIwED2Ev.exit334:                  ; preds = %_ZN11CStringBaseIwED2Ev.exit, %delete.notnull.i333
  call void @llvm.lifetime.end.p0(i64 16, ptr nonnull %ref.tmp4) #22
  call void @llvm.lifetime.end.p0(i64 16, ptr nonnull %ref.tmp) #22
  br label %sw.epilog260

lpad5:                                            ; preds = %sw.bb
  %6 = landingpad { ptr, i32 }
          catch ptr @_ZTIPKc
          catch ptr null
  br label %ehcleanup14

lpad7:                                            ; preds = %invoke.cont6
  %7 = landingpad { ptr, i32 }
          catch ptr @_ZTIPKc
          catch ptr null
  br label %ehcleanup

lpad9:                                            ; preds = %invoke.cont8
  %8 = landingpad { ptr, i32 }
          catch ptr @_ZTIPKc
          catch ptr null
  %9 = load ptr, ptr %ref.tmp, align 8
  %isnull.i335 = icmp eq ptr %9, null
  br i1 %isnull.i335, label %ehcleanup, label %delete.notnull.i336

delete.notnull.i336:                              ; preds = %lpad9
  call void @_ZdaPv(ptr noundef nonnull %9) #23
  br label %ehcleanup

ehcleanup:                                        ; preds = %delete.notnull.i336, %lpad9, %lpad7
  %.pn327 = phi { ptr, i32 } [ %7, %lpad7 ], [ %8, %lpad9 ], [ %8, %delete.notnull.i336 ]
  %10 = load ptr, ptr %ref.tmp4, align 8
  %isnull.i338 = icmp eq ptr %10, null
  br i1 %isnull.i338, label %ehcleanup14, label %delete.notnull.i339

delete.notnull.i339:                              ; preds = %ehcleanup
  call void @_ZdaPv(ptr noundef nonnull %10) #23
  br label %ehcleanup14

ehcleanup14:                                      ; preds = %delete.notnull.i339, %ehcleanup, %lpad5
  %.pn327.pn = phi { ptr, i32 } [ %6, %lpad5 ], [ %.pn327, %ehcleanup ], [ %.pn327, %delete.notnull.i339 ]
  call void @llvm.lifetime.end.p0(i64 16, ptr nonnull %ref.tmp4) #22
  call void @llvm.lifetime.end.p0(i64 16, ptr nonnull %ref.tmp) #22
  br label %ehcleanup264

sw.bb16:                                          ; preds = %invoke.cont3
  %call18 = invoke noundef zeroext i1 @_ZNK8NArchive4NZip5CItem5IsDirEv(ptr noundef nonnull align 8 dereferenceable(179) %1)
          to label %sw.bb100.invoke unwind label %lpad2

sw.bb21:                                          ; preds = %invoke.cont3
  %UnPackSize = getelementptr inbounds %"class.NArchive::NZip::CLocalItem", ptr %1, i64 0, i32 6
  br label %sw.bb24.invoke

sw.bb24:                                          ; preds = %invoke.cont3
  %PackSize = getelementptr inbounds %"class.NArchive::NZip::CLocalItem", ptr %1, i64 0, i32 5
  br label %sw.bb24.invoke

sw.bb24.invoke:                                   ; preds = %sw.bb21, %sw.bb24
  %UnPackSize.sink = phi ptr [ %UnPackSize, %sw.bb21 ], [ %PackSize, %sw.bb24 ]
  %11 = load i64, ptr %UnPackSize.sink, align 8
  %12 = invoke noundef nonnull align 8 dereferenceable(16) ptr @_ZN8NWindows4NCOM12CPropVariantaSEy(ptr noundef nonnull align 8 dereferenceable(16) %prop, i64 noundef %11)
          to label %sw.epilog260 unwind label %lpad2

sw.bb27:                                          ; preds = %invoke.cont3
  call void @llvm.lifetime.start.p0(i64 8, ptr nonnull %ft) #22
  call void @llvm.lifetime.start.p0(i64 4, ptr nonnull %unixTime) #22
  %_size.i.i = getelementptr inbounds %"class.NArchive::NZip::CItem", ptr %1, i64 0, i32 8, i32 0, i32 0, i32 0, i32 2
  %13 = load i32, ptr %_size.i.i, align 4
  %cmp.not15.i = icmp sgt i32 %13, 0
  br i1 %cmp.not15.i, label %for.body.lr.ph.i, label %if.else39

for.body.lr.ph.i:                                 ; preds = %sw.bb27
  %_items.i.i.i = getelementptr inbounds %"class.NArchive::NZip::CItem", ptr %1, i64 0, i32 8, i32 0, i32 0, i32 0, i32 3
  %14 = load ptr, ptr %_items.i.i.i, align 8
  %15 = zext i32 %13 to i64
  %16 = load ptr, ptr %14, align 8
  %17 = load i16, ptr %16, align 8
  %cmp4.not.i615 = icmp eq i16 %17, 10
  br i1 %cmp4.not.i615, label %cleanup.thread.i, label %for.cond.i

for.cond.i:                                       ; preds = %for.body.lr.ph.i, %for.body.i
  %indvars.iv.i616 = phi i64 [ %indvars.iv.next.i, %for.body.i ], [ 0, %for.body.lr.ph.i ]
  %indvars.iv.next.i = add nuw nsw i64 %indvars.iv.i616, 1
  %exitcond.not.i = icmp eq i64 %indvars.iv.next.i, %15
  br i1 %exitcond.not.i, label %if.else, label %for.body.i

for.body.i:                                       ; preds = %for.cond.i
  %arrayidx.i.i.i = getelementptr inbounds ptr, ptr %14, i64 %indvars.iv.next.i
  %18 = load ptr, ptr %arrayidx.i.i.i, align 8
  %19 = load i16, ptr %18, align 8
  %cmp4.not.i = icmp eq i16 %19, 10
  br i1 %cmp4.not.i, label %cleanup.thread.i.loopexit, label %for.cond.i

cleanup.thread.i.loopexit:                        ; preds = %for.body.i
  %cmp.not.i = icmp ult i64 %indvars.iv.next.i, %15
  br label %cleanup.thread.i

cleanup.thread.i:                                 ; preds = %cleanup.thread.i.loopexit, %for.body.lr.ph.i
  %cmp.not17.i.lcssa = phi i1 [ true, %for.body.lr.ph.i ], [ %cmp.not.i, %cleanup.thread.i.loopexit ]
  %.lcssa579 = phi ptr [ %16, %for.body.lr.ph.i ], [ %18, %cleanup.thread.i.loopexit ]
  %call5.i341 = invoke noundef zeroext i1 @_ZNK8NArchive4NZip14CExtraSubBlock15ExtractNtfsTimeEiR9_FILETIME(ptr noundef nonnull align 8 dereferenceable(32) %.lcssa579, i32 noundef 0, ptr noundef nonnull align 4 dereferenceable(8) %ft)
          to label %invoke.cont29 unwind label %lpad28

invoke.cont29:                                    ; preds = %cleanup.thread.i
  %spec.select.i = and i1 %cmp.not17.i.lcssa, %call5.i341
  br i1 %spec.select.i, label %if.else39.invoke, label %invoke.cont29.if.else_crit_edge

invoke.cont29.if.else_crit_edge:                  ; preds = %invoke.cont29
  %.pr.pre = load i32, ptr %_size.i.i, align 4
  br label %if.else

lpad28:                                           ; preds = %if.else39.invoke, %cleanup.thread.i359, %cleanup.thread.i
  %20 = landingpad { ptr, i32 }
          catch ptr @_ZTIPKc
          catch ptr null
  call void @llvm.lifetime.end.p0(i64 4, ptr nonnull %unixTime) #22
  call void @llvm.lifetime.end.p0(i64 8, ptr nonnull %ft) #22
  br label %ehcleanup264

if.else:                                          ; preds = %for.cond.i, %invoke.cont29.if.else_crit_edge
  %.pr = phi i32 [ %.pr.pre, %invoke.cont29.if.else_crit_edge ], [ %13, %for.cond.i ]
  %cmp.not15.i343 = icmp sgt i32 %.pr, 0
  br i1 %cmp.not15.i343, label %for.body.lr.ph.i347, label %if.else39

for.body.lr.ph.i347:                              ; preds = %if.else
  %21 = load ptr, ptr %_items.i.i.i, align 8
  %22 = zext i32 %.pr to i64
  %23 = load ptr, ptr %21, align 8
  %24 = load i16, ptr %23, align 8
  %cmp4.not.i354619 = icmp eq i16 %24, 21589
  br i1 %cmp4.not.i354619, label %cleanup.thread.i359, label %for.cond.i355

for.cond.i355:                                    ; preds = %for.body.lr.ph.i347, %for.body.i350
  %indvars.iv.i351620 = phi i64 [ %indvars.iv.next.i356, %for.body.i350 ], [ 0, %for.body.lr.ph.i347 ]
  %indvars.iv.next.i356 = add nuw nsw i64 %indvars.iv.i351620, 1
  %exitcond.not.i358 = icmp eq i64 %indvars.iv.next.i356, %22
  br i1 %exitcond.not.i358, label %if.else39, label %for.body.i350

for.body.i350:                                    ; preds = %for.cond.i355
  %arrayidx.i.i.i353 = getelementptr inbounds ptr, ptr %21, i64 %indvars.iv.next.i356
  %25 = load ptr, ptr %arrayidx.i.i.i353, align 8
  %26 = load i16, ptr %25, align 8
  %cmp4.not.i354 = icmp eq i16 %26, 21589
  br i1 %cmp4.not.i354, label %cleanup.thread.i359.loopexit, label %for.cond.i355

cleanup.thread.i359.loopexit:                     ; preds = %for.body.i350
  %cmp.not.i357 = icmp ult i64 %indvars.iv.next.i356, %22
  br label %cleanup.thread.i359

cleanup.thread.i359:                              ; preds = %cleanup.thread.i359.loopexit, %for.body.lr.ph.i347
  %cmp.not17.i352.lcssa = phi i1 [ true, %for.body.lr.ph.i347 ], [ %cmp.not.i357, %cleanup.thread.i359.loopexit ]
  %.lcssa = phi ptr [ %23, %for.body.lr.ph.i347 ], [ %25, %cleanup.thread.i359.loopexit ]
  %call5.i361 = invoke noundef zeroext i1 @_ZNK8NArchive4NZip14CExtraSubBlock15ExtractUnixTimeEiRj(ptr noundef nonnull align 8 dereferenceable(32) %.lcssa, i32 noundef 0, ptr noundef nonnull align 4 dereferenceable(4) %unixTime)
          to label %invoke.cont34 unwind label %lpad28

invoke.cont34:                                    ; preds = %cleanup.thread.i359
  %spec.select.i346 = and i1 %cmp.not17.i352.lcssa, %call5.i361
  br i1 %spec.select.i346, label %if.else39.invoke, label %if.else39

if.else39:                                        ; preds = %for.cond.i355, %sw.bb27, %if.else, %invoke.cont34
  br label %if.else39.invoke

if.else39.invoke:                                 ; preds = %invoke.cont29, %invoke.cont34, %if.else39
  %27 = phi i32 [ 2, %if.else39 ], [ 1, %invoke.cont34 ], [ 0, %invoke.cont29 ]
  %28 = invoke noundef nonnull align 8 dereferenceable(16) ptr @_ZN8NWindows4NCOM12CPropVariantaSEj(ptr noundef nonnull align 8 dereferenceable(16) %prop, i32 noundef %27)
          to label %if.end42 unwind label %lpad28

if.end42:                                         ; preds = %if.else39.invoke
  call void @llvm.lifetime.end.p0(i64 4, ptr nonnull %unixTime) #22
  call void @llvm.lifetime.end.p0(i64 8, ptr nonnull %ft) #22
  br label %sw.epilog260

sw.bb45:                                          ; preds = %invoke.cont3
  call void @llvm.lifetime.start.p0(i64 8, ptr nonnull %ft46) #22
  %_size.i.i362 = getelementptr inbounds %"class.NArchive::NZip::CItem", ptr %1, i64 0, i32 8, i32 0, i32 0, i32 0, i32 2
  %29 = load i32, ptr %_size.i.i362, align 4
  %cmp.not15.i363 = icmp sgt i32 %29, 0
  br i1 %cmp.not15.i363, label %for.body.lr.ph.i367, label %if.end54

for.body.lr.ph.i367:                              ; preds = %sw.bb45
  %_items.i.i.i368 = getelementptr inbounds %"class.NArchive::NZip::CItem", ptr %1, i64 0, i32 8, i32 0, i32 0, i32 0, i32 3
  %30 = load ptr, ptr %_items.i.i.i368, align 8
  %31 = zext i32 %29 to i64
  %32 = load ptr, ptr %30, align 8
  %33 = load i16, ptr %32, align 8
  %cmp4.not.i374611 = icmp eq i16 %33, 10
  br i1 %cmp4.not.i374611, label %cleanup.thread.i379, label %for.cond.i375

for.cond.i375:                                    ; preds = %for.body.lr.ph.i367, %for.body.i370
  %indvars.iv.i371612 = phi i64 [ %indvars.iv.next.i376, %for.body.i370 ], [ 0, %for.body.lr.ph.i367 ]
  %indvars.iv.next.i376 = add nuw nsw i64 %indvars.iv.i371612, 1
  %exitcond.not.i378 = icmp eq i64 %indvars.iv.next.i376, %31
  br i1 %exitcond.not.i378, label %if.end54, label %for.body.i370

for.body.i370:                                    ; preds = %for.cond.i375
  %arrayidx.i.i.i373 = getelementptr inbounds ptr, ptr %30, i64 %indvars.iv.next.i376
  %34 = load ptr, ptr %arrayidx.i.i.i373, align 8
  %35 = load i16, ptr %34, align 8
  %cmp4.not.i374 = icmp eq i16 %35, 10
  br i1 %cmp4.not.i374, label %cleanup.thread.i379.loopexit, label %for.cond.i375

cleanup.thread.i379.loopexit:                     ; preds = %for.body.i370
  %cmp.not.i377 = icmp ult i64 %indvars.iv.next.i376, %31
  br label %cleanup.thread.i379

cleanup.thread.i379:                              ; preds = %cleanup.thread.i379.loopexit, %for.body.lr.ph.i367
  %cmp.not17.i372.lcssa = phi i1 [ true, %for.body.lr.ph.i367 ], [ %cmp.not.i377, %cleanup.thread.i379.loopexit ]
  %.lcssa582 = phi ptr [ %32, %for.body.lr.ph.i367 ], [ %34, %cleanup.thread.i379.loopexit ]
  %call5.i381 = invoke noundef zeroext i1 @_ZNK8NArchive4NZip14CExtraSubBlock15ExtractNtfsTimeEiR9_FILETIME(ptr noundef nonnull align 8 dereferenceable(32) %.lcssa582, i32 noundef 2, ptr noundef nonnull align 4 dereferenceable(8) %ft46)
          to label %invoke.cont49 unwind label %lpad48

invoke.cont49:                                    ; preds = %cleanup.thread.i379
  %spec.select.i366 = and i1 %cmp.not17.i372.lcssa, %call5.i381
  br i1 %spec.select.i366, label %if.then51, label %if.end54

if.then51:                                        ; preds = %invoke.cont49
  %call53 = invoke noundef nonnull align 8 dereferenceable(16) ptr @_ZN8NWindows4NCOM12CPropVariantaSERK9_FILETIME(ptr noundef nonnull align 8 dereferenceable(16) %prop, ptr noundef nonnull align 4 dereferenceable(8) %ft46)
          to label %if.end54 unwind label %lpad48

lpad48:                                           ; preds = %cleanup.thread.i379, %if.then51
  %36 = landingpad { ptr, i32 }
          catch ptr @_ZTIPKc
          catch ptr null
  call void @llvm.lifetime.end.p0(i64 8, ptr nonnull %ft46) #22
  br label %ehcleanup264

if.end54:                                         ; preds = %for.cond.i375, %sw.bb45, %if.then51, %invoke.cont49
  call void @llvm.lifetime.end.p0(i64 8, ptr nonnull %ft46) #22
  br label %sw.epilog260

sw.bb56:                                          ; preds = %invoke.cont3
  call void @llvm.lifetime.start.p0(i64 8, ptr nonnull %ft57) #22
  %_size.i.i383 = getelementptr inbounds %"class.NArchive::NZip::CItem", ptr %1, i64 0, i32 8, i32 0, i32 0, i32 0, i32 2
  %37 = load i32, ptr %_size.i.i383, align 4
  %cmp.not15.i384 = icmp sgt i32 %37, 0
  br i1 %cmp.not15.i384, label %for.body.lr.ph.i388, label %if.end65

for.body.lr.ph.i388:                              ; preds = %sw.bb56
  %_items.i.i.i389 = getelementptr inbounds %"class.NArchive::NZip::CItem", ptr %1, i64 0, i32 8, i32 0, i32 0, i32 0, i32 3
  %38 = load ptr, ptr %_items.i.i.i389, align 8
  %39 = zext i32 %37 to i64
  %40 = load ptr, ptr %38, align 8
  %41 = load i16, ptr %40, align 8
  %cmp4.not.i395607 = icmp eq i16 %41, 10
  br i1 %cmp4.not.i395607, label %cleanup.thread.i400, label %for.cond.i396

for.cond.i396:                                    ; preds = %for.body.lr.ph.i388, %for.body.i391
  %indvars.iv.i392608 = phi i64 [ %indvars.iv.next.i397, %for.body.i391 ], [ 0, %for.body.lr.ph.i388 ]
  %indvars.iv.next.i397 = add nuw nsw i64 %indvars.iv.i392608, 1
  %exitcond.not.i399 = icmp eq i64 %indvars.iv.next.i397, %39
  br i1 %exitcond.not.i399, label %if.end65, label %for.body.i391

for.body.i391:                                    ; preds = %for.cond.i396
  %arrayidx.i.i.i394 = getelementptr inbounds ptr, ptr %38, i64 %indvars.iv.next.i397
  %42 = load ptr, ptr %arrayidx.i.i.i394, align 8
  %43 = load i16, ptr %42, align 8
  %cmp4.not.i395 = icmp eq i16 %43, 10
  br i1 %cmp4.not.i395, label %cleanup.thread.i400.loopexit, label %for.cond.i396

cleanup.thread.i400.loopexit:                     ; preds = %for.body.i391
  %cmp.not.i398 = icmp ult i64 %indvars.iv.next.i397, %39
  br label %cleanup.thread.i400

cleanup.thread.i400:                              ; preds = %cleanup.thread.i400.loopexit, %for.body.lr.ph.i388
  %cmp.not17.i393.lcssa = phi i1 [ true, %for.body.lr.ph.i388 ], [ %cmp.not.i398, %cleanup.thread.i400.loopexit ]
  %.lcssa585 = phi ptr [ %40, %for.body.lr.ph.i388 ], [ %42, %cleanup.thread.i400.loopexit ]
  %call5.i402 = invoke noundef zeroext i1 @_ZNK8NArchive4NZip14CExtraSubBlock15ExtractNtfsTimeEiR9_FILETIME(ptr noundef nonnull align 8 dereferenceable(32) %.lcssa585, i32 noundef 1, ptr noundef nonnull align 4 dereferenceable(8) %ft57)
          to label %invoke.cont60 unwind label %lpad59

invoke.cont60:                                    ; preds = %cleanup.thread.i400
  %spec.select.i387 = and i1 %cmp.not17.i393.lcssa, %call5.i402
  br i1 %spec.select.i387, label %if.then62, label %if.end65

if.then62:                                        ; preds = %invoke.cont60
  %call64 = invoke noundef nonnull align 8 dereferenceable(16) ptr @_ZN8NWindows4NCOM12CPropVariantaSERK9_FILETIME(ptr noundef nonnull align 8 dereferenceable(16) %prop, ptr noundef nonnull align 4 dereferenceable(8) %ft57)
          to label %if.end65 unwind label %lpad59

lpad59:                                           ; preds = %cleanup.thread.i400, %if.then62
  %44 = landingpad { ptr, i32 }
          catch ptr @_ZTIPKc
          catch ptr null
  call void @llvm.lifetime.end.p0(i64 8, ptr nonnull %ft57) #22
  br label %ehcleanup264

if.end65:                                         ; preds = %for.cond.i396, %sw.bb56, %if.then62, %invoke.cont60
  call void @llvm.lifetime.end.p0(i64 8, ptr nonnull %ft57) #22
  br label %sw.epilog260

sw.bb67:                                          ; preds = %invoke.cont3
  call void @llvm.lifetime.start.p0(i64 8, ptr nonnull %utc) #22
  %_size.i.i404 = getelementptr inbounds %"class.NArchive::NZip::CItem", ptr %1, i64 0, i32 8, i32 0, i32 0, i32 0, i32 2
  %45 = load i32, ptr %_size.i.i404, align 4
  %cmp.not15.i405 = icmp sgt i32 %45, 0
  br i1 %cmp.not15.i405, label %for.body.lr.ph.i409, label %if.then72.thread

if.then72.thread:                                 ; preds = %sw.bb67
  call void @llvm.lifetime.start.p0(i64 4, ptr nonnull %unixTime73) #22
  br label %if.else80

for.body.lr.ph.i409:                              ; preds = %sw.bb67
  %_items.i.i.i410 = getelementptr inbounds %"class.NArchive::NZip::CItem", ptr %1, i64 0, i32 8, i32 0, i32 0, i32 0, i32 3
  %46 = load ptr, ptr %_items.i.i.i410, align 8
  %47 = zext i32 %45 to i64
  %48 = load ptr, ptr %46, align 8
  %49 = load i16, ptr %48, align 8
  %cmp4.not.i416600 = icmp eq i16 %49, 10
  br i1 %cmp4.not.i416600, label %cleanup.thread.i421, label %for.cond.i417

for.cond.i417:                                    ; preds = %for.body.lr.ph.i409, %for.body.i412
  %indvars.iv.i413601 = phi i64 [ %indvars.iv.next.i418, %for.body.i412 ], [ 0, %for.body.lr.ph.i409 ]
  %indvars.iv.next.i418 = add nuw nsw i64 %indvars.iv.i413601, 1
  %exitcond.not.i420 = icmp eq i64 %indvars.iv.next.i418, %47
  br i1 %exitcond.not.i420, label %if.then72, label %for.body.i412

for.body.i412:                                    ; preds = %for.cond.i417
  %arrayidx.i.i.i415 = getelementptr inbounds ptr, ptr %46, i64 %indvars.iv.next.i418
  %50 = load ptr, ptr %arrayidx.i.i.i415, align 8
  %51 = load i16, ptr %50, align 8
  %cmp4.not.i416 = icmp eq i16 %51, 10
  br i1 %cmp4.not.i416, label %cleanup.thread.i421.loopexit, label %for.cond.i417

cleanup.thread.i421.loopexit:                     ; preds = %for.body.i412
  %cmp.not.i419 = icmp ult i64 %indvars.iv.next.i418, %47
  br label %cleanup.thread.i421

cleanup.thread.i421:                              ; preds = %cleanup.thread.i421.loopexit, %for.body.lr.ph.i409
  %cmp.not17.i414.lcssa = phi i1 [ true, %for.body.lr.ph.i409 ], [ %cmp.not.i419, %cleanup.thread.i421.loopexit ]
  %.lcssa591 = phi ptr [ %48, %for.body.lr.ph.i409 ], [ %50, %cleanup.thread.i421.loopexit ]
  %call5.i423 = invoke noundef zeroext i1 @_ZNK8NArchive4NZip14CExtraSubBlock15ExtractNtfsTimeEiR9_FILETIME(ptr noundef nonnull align 8 dereferenceable(32) %.lcssa591, i32 noundef 0, ptr noundef nonnull align 4 dereferenceable(8) %utc)
          to label %invoke.cont70 unwind label %lpad69

invoke.cont70:                                    ; preds = %cleanup.thread.i421
  %spec.select.i408 = and i1 %cmp.not17.i414.lcssa, %call5.i423
  br i1 %spec.select.i408, label %if.end91, label %invoke.cont70.if.then72_crit_edge

invoke.cont70.if.then72_crit_edge:                ; preds = %invoke.cont70
  %.pr575.pre = load i32, ptr %_size.i.i404, align 4
  br label %if.then72

if.then72:                                        ; preds = %for.cond.i417, %invoke.cont70.if.then72_crit_edge
  %.pr575 = phi i32 [ %.pr575.pre, %invoke.cont70.if.then72_crit_edge ], [ %45, %for.cond.i417 ]
  call void @llvm.lifetime.start.p0(i64 4, ptr nonnull %unixTime73) #22
  %cmp.not15.i426 = icmp sgt i32 %.pr575, 0
  br i1 %cmp.not15.i426, label %for.body.lr.ph.i430, label %if.else80

for.body.lr.ph.i430:                              ; preds = %if.then72
  %52 = load ptr, ptr %_items.i.i.i410, align 8
  %53 = zext i32 %.pr575 to i64
  %54 = load ptr, ptr %52, align 8
  %55 = load i16, ptr %54, align 8
  %cmp4.not.i437603 = icmp eq i16 %55, 21589
  br i1 %cmp4.not.i437603, label %cleanup.thread.i442, label %for.cond.i438

for.cond.i438:                                    ; preds = %for.body.lr.ph.i430, %for.body.i433
  %indvars.iv.i434604 = phi i64 [ %indvars.iv.next.i439, %for.body.i433 ], [ 0, %for.body.lr.ph.i430 ]
  %indvars.iv.next.i439 = add nuw nsw i64 %indvars.iv.i434604, 1
  %exitcond.not.i441 = icmp eq i64 %indvars.iv.next.i439, %53
  br i1 %exitcond.not.i441, label %if.else80, label %for.body.i433

for.body.i433:                                    ; preds = %for.cond.i438
  %arrayidx.i.i.i436 = getelementptr inbounds ptr, ptr %52, i64 %indvars.iv.next.i439
  %56 = load ptr, ptr %arrayidx.i.i.i436, align 8
  %57 = load i16, ptr %56, align 8
  %cmp4.not.i437 = icmp eq i16 %57, 21589
  br i1 %cmp4.not.i437, label %cleanup.thread.i442.loopexit, label %for.cond.i438

cleanup.thread.i442.loopexit:                     ; preds = %for.body.i433
  %cmp.not.i440 = icmp ult i64 %indvars.iv.next.i439, %53
  br label %cleanup.thread.i442

cleanup.thread.i442:                              ; preds = %cleanup.thread.i442.loopexit, %for.body.lr.ph.i430
  %cmp.not17.i435.lcssa = phi i1 [ true, %for.body.lr.ph.i430 ], [ %cmp.not.i440, %cleanup.thread.i442.loopexit ]
  %.lcssa588 = phi ptr [ %54, %for.body.lr.ph.i430 ], [ %56, %cleanup.thread.i442.loopexit ]
  %call5.i444 = invoke noundef zeroext i1 @_ZNK8NArchive4NZip14CExtraSubBlock15ExtractUnixTimeEiRj(ptr noundef nonnull align 8 dereferenceable(32) %.lcssa588, i32 noundef 0, ptr noundef nonnull align 4 dereferenceable(4) %unixTime73)
          to label %invoke.cont76 unwind label %lpad75

invoke.cont76:                                    ; preds = %cleanup.thread.i442
  %spec.select.i429 = and i1 %cmp.not17.i435.lcssa, %call5.i444
  br i1 %spec.select.i429, label %if.then78, label %if.else80

if.then78:                                        ; preds = %invoke.cont76
  %58 = load i32, ptr %unixTime73, align 4
  invoke void @_ZN8NWindows5NTime18UnixTimeToFileTimeEjR9_FILETIME(i32 noundef %58, ptr noundef nonnull align 4 dereferenceable(8) %utc)
          to label %if.end89 unwind label %lpad75

lpad69:                                           ; preds = %cleanup.thread.i421, %if.end91
  %59 = landingpad { ptr, i32 }
          catch ptr @_ZTIPKc
          catch ptr null
  br label %ehcleanup94

lpad75:                                           ; preds = %cleanup.thread.i442, %if.then78
  %60 = landingpad { ptr, i32 }
          catch ptr @_ZTIPKc
          catch ptr null
  br label %ehcleanup90

if.else80:                                        ; preds = %for.cond.i438, %if.then72.thread, %if.then72, %invoke.cont76
  call void @llvm.lifetime.start.p0(i64 8, ptr nonnull %localFileTime) #22
  %Time = getelementptr inbounds %"class.NArchive::NZip::CLocalItem", ptr %1, i64 0, i32 3
  %61 = load i32, ptr %Time, align 8
  %call83 = invoke noundef zeroext i1 @_ZN8NWindows5NTime17DosTimeToFileTimeEjR9_FILETIME(i32 noundef %61, ptr noundef nonnull align 4 dereferenceable(8) %localFileTime)
          to label %invoke.cont82 unwind label %lpad81

invoke.cont82:                                    ; preds = %if.else80
  br i1 %call83, label %lor.lhs.false, label %if.then86

lor.lhs.false:                                    ; preds = %invoke.cont82
  %call85 = invoke i32 @LocalFileTimeToFileTime(ptr noundef nonnull %localFileTime, ptr noundef nonnull %utc)
          to label %invoke.cont84 unwind label %lpad81

invoke.cont84:                                    ; preds = %lor.lhs.false
  %tobool.not = icmp eq i32 %call85, 0
  br i1 %tobool.not, label %if.then86, label %if.end87

if.then86:                                        ; preds = %invoke.cont84, %invoke.cont82
  store i32 0, ptr %utc, align 4
  %dwHighDateTime = getelementptr inbounds %struct._FILETIME, ptr %utc, i64 0, i32 1
  store i32 0, ptr %dwHighDateTime, align 4
  br label %if.end87

lpad81:                                           ; preds = %lor.lhs.false, %if.else80
  %62 = landingpad { ptr, i32 }
          catch ptr @_ZTIPKc
          catch ptr null
  call void @llvm.lifetime.end.p0(i64 8, ptr nonnull %localFileTime) #22
  br label %ehcleanup90

if.end87:                                         ; preds = %if.then86, %invoke.cont84
  call void @llvm.lifetime.end.p0(i64 8, ptr nonnull %localFileTime) #22
  br label %if.end89

if.end89:                                         ; preds = %if.then78, %if.end87
  call void @llvm.lifetime.end.p0(i64 4, ptr nonnull %unixTime73) #22
  br label %if.end91

ehcleanup90:                                      ; preds = %lpad81, %lpad75
  %.pn323 = phi { ptr, i32 } [ %60, %lpad75 ], [ %62, %lpad81 ]
  call void @llvm.lifetime.end.p0(i64 4, ptr nonnull %unixTime73) #22
  br label %ehcleanup94

if.end91:                                         ; preds = %if.end89, %invoke.cont70
  %call93 = invoke noundef nonnull align 8 dereferenceable(16) ptr @_ZN8NWindows4NCOM12CPropVariantaSERK9_FILETIME(ptr noundef nonnull align 8 dereferenceable(16) %prop, ptr noundef nonnull align 4 dereferenceable(8) %utc)
          to label %invoke.cont92 unwind label %lpad69

invoke.cont92:                                    ; preds = %if.end91
  call void @llvm.lifetime.end.p0(i64 8, ptr nonnull %utc) #22
  br label %sw.epilog260

ehcleanup94:                                      ; preds = %ehcleanup90, %lpad69
  %.pn325 = phi { ptr, i32 } [ %59, %lpad69 ], [ %.pn323, %ehcleanup90 ]
  call void @llvm.lifetime.end.p0(i64 8, ptr nonnull %utc) #22
  br label %ehcleanup264

sw.bb95:                                          ; preds = %invoke.cont3
  %call97 = invoke noundef i32 @_ZNK8NArchive4NZip5CItem16GetWinAttributesEv(ptr noundef nonnull align 8 dereferenceable(179) %1)
          to label %sw.bb256.invoke unwind label %lpad2

sw.bb100:                                         ; preds = %invoke.cont3
  %Flags.i = getelementptr inbounds %"class.NArchive::NZip::CLocalItem", ptr %1, i64 0, i32 1
  %63 = load i16, ptr %Flags.i, align 2
  %64 = and i16 %63, 1
  %cmp.i = icmp ne i16 %64, 0
  br label %sw.bb100.invoke

sw.bb100.invoke:                                  ; preds = %sw.bb16, %sw.bb100
  %65 = phi i1 [ %cmp.i, %sw.bb100 ], [ %call18, %sw.bb16 ]
  %66 = invoke noundef nonnull align 8 dereferenceable(16) ptr @_ZN8NWindows4NCOM12CPropVariantaSEb(ptr noundef nonnull align 8 dereferenceable(16) %prop, i1 noundef zeroext %65)
          to label %sw.epilog260 unwind label %lpad2

sw.bb105:                                         ; preds = %invoke.cont3
  call void @llvm.lifetime.start.p0(i64 16, ptr nonnull %ref.tmp106) #22
  call void @llvm.lifetime.start.p0(i64 16, ptr nonnull %ref.tmp107) #22
  tail call void @llvm.experimental.noalias.scope.decl(metadata !83)
  %_capacity.i.i = getelementptr inbounds %class.CStringBase.1, ptr %ref.tmp107, i64 0, i32 2
  %67 = getelementptr inbounds i8, ptr %ref.tmp107, i64 8
  store i64 0, ptr %67, align 8
  %call.i.i.i448 = invoke noalias noundef nonnull dereferenceable(4) ptr @_Znam(i64 noundef 4) #24
          to label %call.i.i.i.noexc unwind label %lpad108

call.i.i.i.noexc:                                 ; preds = %sw.bb105
  store ptr %call.i.i.i448, ptr %ref.tmp107, align 8
  store i8 0, ptr %call.i.i.i448, align 1
  store i32 4, ptr %_capacity.i.i, align 4
  %_capacity.i15.i = getelementptr inbounds %"class.NArchive::NZip::CItem", ptr %1, i64 0, i32 9, i32 1
  %68 = load i64, ptr %_capacity.i15.i, align 8
  %conv.i = trunc i64 %68 to i32
  %cmp.i446 = icmp sgt i32 %conv.i, 0
  br i1 %cmp.i446, label %if.then.i, label %invoke.cont109

if.then.i:                                        ; preds = %call.i.i.i.noexc
  %cmp.not.i.i = icmp ult i32 %conv.i, 3
  br i1 %cmp.not.i.i, label %invoke.cont2.i, label %if.end.i.i.i

if.end.i.i.i:                                     ; preds = %if.then.i
  %add.i.i.i = add nuw nsw i32 %conv.i, 2
  %conv.i.i.i = zext i32 %add.i.i.i to i64
  %call.i.i1718.i = invoke noalias noundef nonnull ptr @_Znam(i64 noundef %conv.i.i.i) #24
          to label %if.end9.i.i.i unwind label %_ZN11CStringBaseIcED2Ev.exit.i

if.end9.i.i.i:                                    ; preds = %if.end.i.i.i
  tail call void @_ZdaPv(ptr noundef nonnull %call.i.i.i448) #23
  store ptr %call.i.i1718.i, ptr %ref.tmp107, align 8
  store i8 0, ptr %call.i.i1718.i, align 1
  store i32 %add.i.i.i, ptr %_capacity.i.i, align 4
  br label %invoke.cont2.i

invoke.cont2.i:                                   ; preds = %if.end9.i.i.i, %if.then.i
  %69 = phi ptr [ %call.i.i1718.i, %if.end9.i.i.i ], [ %call.i.i.i448, %if.then.i ]
  %_items.i.i447 = getelementptr inbounds %"class.NArchive::NZip::CItem", ptr %1, i64 0, i32 9, i32 2
  %70 = load ptr, ptr %_items.i.i447, align 8
  %conv6.i = and i64 %68, 4294967295
  tail call void @llvm.memcpy.p0.p0.i64(ptr nonnull align 1 %69, ptr align 1 %70, i64 %conv6.i, i1 false)
  %arrayidx.i = getelementptr inbounds i8, ptr %69, i64 %conv6.i
  store i8 0, ptr %arrayidx.i, align 1
  br label %for.cond.i.i.i

for.cond.i.i.i:                                   ; preds = %for.cond.i.i.i, %invoke.cont2.i
  %indvars.iv.i.i19.i = phi i64 [ %indvars.iv.next.i.i21.i, %for.cond.i.i.i ], [ 0, %invoke.cont2.i ]
  %arrayidx.i.i20.i = getelementptr inbounds i8, ptr %69, i64 %indvars.iv.i.i19.i
  %71 = load i8, ptr %arrayidx.i.i20.i, align 1
  %cmp.not.i.i.i = icmp eq i8 %71, 0
  %indvars.iv.next.i.i21.i = add nuw i64 %indvars.iv.i.i19.i, 1
  br i1 %cmp.not.i.i.i, label %_ZN11CStringBaseIcE13ReleaseBufferEv.exit.i, label %for.cond.i.i.i

_ZN11CStringBaseIcE13ReleaseBufferEv.exit.i:      ; preds = %for.cond.i.i.i
  %72 = trunc i64 %indvars.iv.i.i19.i to i32
  %sext.i.i = shl i64 %indvars.iv.i.i19.i, 32
  %idxprom.i.i.i = ashr exact i64 %sext.i.i, 32
  %arrayidx.i2.i.i = getelementptr inbounds i8, ptr %69, i64 %idxprom.i.i.i
  store i8 0, ptr %arrayidx.i2.i.i, align 1
  %_length.i.i22.i = getelementptr inbounds %class.CStringBase.1, ptr %ref.tmp107, i64 0, i32 1
  store i32 %72, ptr %_length.i.i22.i, align 8
  br label %invoke.cont109

_ZN11CStringBaseIcED2Ev.exit.i:                   ; preds = %if.end.i.i.i
  %73 = landingpad { ptr, i32 }
          catch ptr @_ZTIPKc
          catch ptr null
  tail call void @_ZdaPv(ptr noundef nonnull %call.i.i.i448) #23
  br label %ehcleanup119

invoke.cont109:                                   ; preds = %_ZN11CStringBaseIcE13ReleaseBufferEv.exit.i, %call.i.i.i.noexc
  invoke void @_ZNK8NArchive4NZip10CLocalItem16GetUnicodeStringERK11CStringBaseIcE(ptr nonnull sret(%class.CStringBase) align 8 %ref.tmp106, ptr noundef nonnull align 8 dereferenceable(80) %1, ptr noundef nonnull align 8 dereferenceable(16) %ref.tmp107)
          to label %invoke.cont111 unwind label %lpad110

invoke.cont111:                                   ; preds = %invoke.cont109
  %74 = load ptr, ptr %ref.tmp106, align 8
  %call116 = invoke noundef nonnull align 8 dereferenceable(16) ptr @_ZN8NWindows4NCOM12CPropVariantaSEPKw(ptr noundef nonnull align 8 dereferenceable(16) %prop, ptr noundef %74)
          to label %invoke.cont115 unwind label %lpad112

invoke.cont115:                                   ; preds = %invoke.cont111
  %75 = load ptr, ptr %ref.tmp106, align 8
  %isnull.i449 = icmp eq ptr %75, null
  br i1 %isnull.i449, label %_ZN11CStringBaseIwED2Ev.exit451, label %delete.notnull.i450

delete.notnull.i450:                              ; preds = %invoke.cont115
  call void @_ZdaPv(ptr noundef nonnull %75) #23
  br label %_ZN11CStringBaseIwED2Ev.exit451

_ZN11CStringBaseIwED2Ev.exit451:                  ; preds = %invoke.cont115, %delete.notnull.i450
  %76 = load ptr, ptr %ref.tmp107, align 8
  %isnull.i452 = icmp eq ptr %76, null
  br i1 %isnull.i452, label %_ZN11CStringBaseIcED2Ev.exit, label %delete.notnull.i453

delete.notnull.i453:                              ; preds = %_ZN11CStringBaseIwED2Ev.exit451
  call void @_ZdaPv(ptr noundef nonnull %76) #23
  br label %_ZN11CStringBaseIcED2Ev.exit

_ZN11CStringBaseIcED2Ev.exit:                     ; preds = %_ZN11CStringBaseIwED2Ev.exit451, %delete.notnull.i453
  call void @llvm.lifetime.end.p0(i64 16, ptr nonnull %ref.tmp107) #22
  call void @llvm.lifetime.end.p0(i64 16, ptr nonnull %ref.tmp106) #22
  br label %sw.epilog260

lpad108:                                          ; preds = %sw.bb105
  %77 = landingpad { ptr, i32 }
          catch ptr @_ZTIPKc
          catch ptr null
  br label %ehcleanup119

lpad110:                                          ; preds = %invoke.cont109
  %78 = landingpad { ptr, i32 }
          catch ptr @_ZTIPKc
          catch ptr null
  br label %ehcleanup118

lpad112:                                          ; preds = %invoke.cont111
  %79 = landingpad { ptr, i32 }
          catch ptr @_ZTIPKc
          catch ptr null
  %80 = load ptr, ptr %ref.tmp106, align 8
  %isnull.i454 = icmp eq ptr %80, null
  br i1 %isnull.i454, label %ehcleanup118, label %delete.notnull.i455

delete.notnull.i455:                              ; preds = %lpad112
  call void @_ZdaPv(ptr noundef nonnull %80) #23
  br label %ehcleanup118

ehcleanup118:                                     ; preds = %delete.notnull.i455, %lpad112, %lpad110
  %.pn320 = phi { ptr, i32 } [ %78, %lpad110 ], [ %79, %lpad112 ], [ %79, %delete.notnull.i455 ]
  %81 = load ptr, ptr %ref.tmp107, align 8
  %isnull.i457 = icmp eq ptr %81, null
  br i1 %isnull.i457, label %ehcleanup119, label %delete.notnull.i458

delete.notnull.i458:                              ; preds = %ehcleanup118
  call void @_ZdaPv(ptr noundef nonnull %81) #23
  br label %ehcleanup119

ehcleanup119:                                     ; preds = %delete.notnull.i458, %ehcleanup118, %lpad108, %_ZN11CStringBaseIcED2Ev.exit.i
  %.pn320.pn = phi { ptr, i32 } [ %77, %lpad108 ], [ %73, %_ZN11CStringBaseIcED2Ev.exit.i ], [ %.pn320, %ehcleanup118 ], [ %.pn320, %delete.notnull.i458 ]
  call void @llvm.lifetime.end.p0(i64 16, ptr nonnull %ref.tmp107) #22
  call void @llvm.lifetime.end.p0(i64 16, ptr nonnull %ref.tmp106) #22
  br label %ehcleanup264

sw.bb121:                                         ; preds = %invoke.cont3
  %CompressionMethod.i = getelementptr inbounds %"class.NArchive::NZip::CLocalItem", ptr %1, i64 0, i32 2
  %82 = load i16, ptr %CompressionMethod.i, align 4
  %cmp.i460 = icmp eq i16 %82, 99
  br i1 %cmp.i460, label %if.then.i461, label %if.end4.i

if.then.i461:                                     ; preds = %sw.bb121
  %_size.i.i.i = getelementptr inbounds %"class.NArchive::NZip::CItem", ptr %1, i64 0, i32 8, i32 0, i32 0, i32 0, i32 2
  %83 = load i32, ptr %_size.i.i.i, align 4
  %cmp.not11.i.i = icmp sgt i32 %83, 0
  br i1 %cmp.not11.i.i, label %for.body.lr.ph.i.i, label %if.end4.i

for.body.lr.ph.i.i:                               ; preds = %if.then.i461
  %_items.i.i.i.i = getelementptr inbounds %"class.NArchive::NZip::CItem", ptr %1, i64 0, i32 8, i32 0, i32 0, i32 0, i32 3
  %84 = load ptr, ptr %_items.i.i.i.i, align 8
  %85 = zext i32 %83 to i64
  br label %for.body.i.i

for.body.i.i:                                     ; preds = %for.inc.i.i, %for.body.lr.ph.i.i
  %indvars.iv.i.i = phi i64 [ 0, %for.body.lr.ph.i.i ], [ %indvars.iv.next.i.i, %for.inc.i.i ]
  %cmp.not13.i.i = phi i1 [ true, %for.body.lr.ph.i.i ], [ %cmp.not.i.i463, %for.inc.i.i ]
  %arrayidx.i.i.i.i = getelementptr inbounds ptr, ptr %84, i64 %indvars.iv.i.i
  %86 = load ptr, ptr %arrayidx.i.i.i.i, align 8
  %87 = load i16, ptr %86, align 8
  %cmp.not.i.i.i462 = icmp ne i16 %87, -26367
  %_capacity.i.i.i.i = getelementptr inbounds %"struct.NArchive::NZip::CExtraSubBlock", ptr %86, i64 0, i32 1, i32 1
  %88 = load i64, ptr %_capacity.i.i.i.i, align 8
  %cmp2.i.i.i = icmp ult i64 %88, 7
  %or.cond.i.i.i = select i1 %cmp.not.i.i.i462, i1 true, i1 %cmp2.i.i.i
  br i1 %or.cond.i.i.i, label %for.inc.i.i, label %if.end4.i.i.i

if.end4.i.i.i:                                    ; preds = %for.body.i.i
  %_items.i.i7.i.i = getelementptr inbounds %"struct.NArchive::NZip::CExtraSubBlock", ptr %86, i64 0, i32 1, i32 2
  %89 = load ptr, ptr %_items.i.i7.i.i, align 8
  %arrayidx12.i.i.i = getelementptr inbounds i8, ptr %89, i64 2
  %90 = load i8, ptr %arrayidx12.i.i.i, align 1
  %cmp14.not.i.i.i = icmp eq i8 %90, 65
  br i1 %cmp14.not.i.i.i, label %lor.lhs.false.i.i.i, label %for.inc.i.i

lor.lhs.false.i.i.i:                              ; preds = %if.end4.i.i.i
  %arrayidx15.i.i.i = getelementptr inbounds i8, ptr %89, i64 3
  %91 = load i8, ptr %arrayidx15.i.i.i, align 1
  %cmp17.not.i.i.i = icmp eq i8 %91, 69
  br i1 %cmp17.not.i.i.i, label %_ZN8NArchive4NZip16CWzAesExtraField17ParseFromSubBlockERKNS0_14CExtraSubBlockE.exit.i.i, label %for.inc.i.i

_ZN8NArchive4NZip16CWzAesExtraField17ParseFromSubBlockERKNS0_14CExtraSubBlockE.exit.i.i: ; preds = %lor.lhs.false.i.i.i
  br i1 %cmp.not13.i.i, label %cleanup.i, label %if.end4.i

for.inc.i.i:                                      ; preds = %lor.lhs.false.i.i.i, %if.end4.i.i.i, %for.body.i.i
  %indvars.iv.next.i.i = add nuw nsw i64 %indvars.iv.i.i, 1
  %cmp.not.i.i463 = icmp ult i64 %indvars.iv.next.i.i, %85
  %exitcond.not.i.i = icmp eq i64 %indvars.iv.next.i.i, %85
  br i1 %exitcond.not.i.i, label %if.end4.i, label %for.body.i.i

cleanup.i:                                        ; preds = %_ZN8NArchive4NZip16CWzAesExtraField17ParseFromSubBlockERKNS0_14CExtraSubBlockE.exit.i.i
  %92 = load i16, ptr %89, align 1
  %cmp.i.i = icmp eq i16 %92, 1
  br i1 %cmp.i.i, label %if.then124, label %sw.epilog260

if.end4.i:                                        ; preds = %for.inc.i.i, %_ZN8NArchive4NZip16CWzAesExtraField17ParseFromSubBlockERKNS0_14CExtraSubBlockE.exit.i.i, %if.then.i461, %sw.bb121
  %FileCRC.i = getelementptr inbounds %"class.NArchive::NZip::CLocalItem", ptr %1, i64 0, i32 4
  %93 = load i32, ptr %FileCRC.i, align 4
  %cmp5.not.i = icmp eq i32 %93, 0
  br i1 %cmp5.not.i, label %lor.rhs.i, label %if.then124

lor.rhs.i:                                        ; preds = %if.end4.i
  %call6.i464 = invoke noundef zeroext i1 @_ZNK8NArchive4NZip5CItem5IsDirEv(ptr noundef nonnull align 8 dereferenceable(179) %1)
          to label %invoke.cont122 unwind label %lpad2

invoke.cont122:                                   ; preds = %lor.rhs.i
  br i1 %call6.i464, label %sw.epilog260, label %if.then124

if.then124:                                       ; preds = %if.end4.i, %cleanup.i, %invoke.cont122
  %FileCRC = getelementptr inbounds %"class.NArchive::NZip::CLocalItem", ptr %1, i64 0, i32 4
  %94 = load i32, ptr %FileCRC, align 4
  br label %sw.bb256.invoke

sw.bb128:                                         ; preds = %invoke.cont3
  %CompressionMethod = getelementptr inbounds %"class.NArchive::NZip::CLocalItem", ptr %1, i64 0, i32 2
  %95 = load i16, ptr %CompressionMethod, align 4
  call void @llvm.lifetime.start.p0(i64 16, ptr nonnull %method) #22
  %_capacity.i = getelementptr inbounds %class.CStringBase.1, ptr %method, i64 0, i32 2
  %96 = getelementptr inbounds i8, ptr %method, i64 8
  store i64 0, ptr %96, align 8
  %call.i.i465 = invoke noalias noundef nonnull dereferenceable(4) ptr @_Znam(i64 noundef 4) #24
          to label %invoke.cont130 unwind label %lpad129

invoke.cont130:                                   ; preds = %sw.bb128
  store ptr %call.i.i465, ptr %method, align 8
  store i8 0, ptr %call.i.i465, align 1
  store i32 4, ptr %_capacity.i, align 4
  %Flags.i466 = getelementptr inbounds %"class.NArchive::NZip::CLocalItem", ptr %1, i64 0, i32 1
  %97 = load i16, ptr %Flags.i466, align 2
  %98 = and i16 %97, 1
  %cmp.i467.not = icmp eq i16 %98, 0
  br i1 %cmp.i467.not, label %if.end196, label %if.then134

if.then134:                                       ; preds = %invoke.cont130
  %cmp = icmp eq i16 %95, 99
  br i1 %cmp, label %if.then135, label %if.else158

if.then135:                                       ; preds = %if.then134
  %call137 = invoke noundef nonnull align 8 dereferenceable(16) ptr @_ZN11CStringBaseIcEaSEPKc(ptr noundef nonnull align 8 dereferenceable(16) %method, ptr noundef nonnull @.str.1)
          to label %invoke.cont136 unwind label %lpad131

invoke.cont136:                                   ; preds = %if.then135
  call void @llvm.lifetime.start.p0(i64 6, ptr nonnull %aesField) #22
  store i16 2, ptr %aesField, align 2
  %Strength.i = getelementptr inbounds %"struct.NArchive::NZip::CWzAesExtraField", ptr %aesField, i64 0, i32 1
  store i8 3, ptr %Strength.i, align 2
  %Method.i = getelementptr inbounds %"struct.NArchive::NZip::CWzAesExtraField", ptr %aesField, i64 0, i32 2
  store i16 0, ptr %Method.i, align 2
  %CentralExtra140 = getelementptr inbounds %"class.NArchive::NZip::CItem", ptr %1, i64 0, i32 8
  %call142 = invoke noundef zeroext i1 @_ZNK8NArchive4NZip11CExtraBlock13GetWzAesFieldERNS0_16CWzAesExtraFieldE(ptr noundef nonnull align 8 dereferenceable(32) %CentralExtra140, ptr noundef nonnull align 2 dereferenceable(6) %aesField)
          to label %invoke.cont141 unwind label %lpad138

invoke.cont141:                                   ; preds = %invoke.cont136
  br i1 %call142, label %if.then143, label %if.end156

if.then143:                                       ; preds = %invoke.cont141
  %call145 = invoke noundef nonnull align 8 dereferenceable(16) ptr @_ZN11CStringBaseIcEpLEc(ptr noundef nonnull align 8 dereferenceable(16) %method, i8 noundef signext 45)
          to label %invoke.cont144 unwind label %lpad138

invoke.cont144:                                   ; preds = %if.then143
  call void @llvm.lifetime.start.p0(i64 32, ptr nonnull %s) #22
  %99 = load i8, ptr %Strength.i, align 2
  %conv146 = zext i8 %99 to i64
  %add = shl nuw nsw i64 %conv146, 6
  %mul = add nuw nsw i64 %add, 64
  invoke void @_Z21ConvertUInt64ToStringyPcj(i64 noundef %mul, ptr noundef nonnull %s, i32 noundef 10)
          to label %invoke.cont149 unwind label %lpad148

invoke.cont149:                                   ; preds = %invoke.cont144
  %call152 = invoke noundef nonnull align 8 dereferenceable(16) ptr @_ZN11CStringBaseIcEpLEPKc(ptr noundef nonnull align 8 dereferenceable(16) %method, ptr noundef nonnull %s)
          to label %invoke.cont151 unwind label %lpad148

invoke.cont151:                                   ; preds = %invoke.cont149
  %call154 = invoke noundef nonnull align 8 dereferenceable(16) ptr @_ZN11CStringBaseIcEpLEc(ptr noundef nonnull align 8 dereferenceable(16) %method, i8 noundef signext 32)
          to label %invoke.cont153 unwind label %lpad148

invoke.cont153:                                   ; preds = %invoke.cont151
  %100 = load i16, ptr %Method.i, align 2
  call void @llvm.lifetime.end.p0(i64 32, ptr nonnull %s) #22
  br label %if.end156

lpad129:                                          ; preds = %sw.bb128
  %101 = landingpad { ptr, i32 }
          catch ptr @_ZTIPKc
          catch ptr null
  br label %ehcleanup244

lpad131:                                          ; preds = %sw.bb224.invoke, %if.end.i.i.i513, %if.end236, %sw.bb206, %if.end192, %if.else189, %if.then135
  %102 = landingpad { ptr, i32 }
          catch ptr @_ZTIPKc
          catch ptr null
  br label %ehcleanup242

lpad138:                                          ; preds = %if.then143, %invoke.cont136
  %103 = landingpad { ptr, i32 }
          catch ptr @_ZTIPKc
          catch ptr null
  br label %ehcleanup157

lpad148:                                          ; preds = %invoke.cont151, %invoke.cont149, %invoke.cont144
  %104 = landingpad { ptr, i32 }
          catch ptr @_ZTIPKc
          catch ptr null
  call void @llvm.lifetime.end.p0(i64 32, ptr nonnull %s) #22
  br label %ehcleanup157

if.end156:                                        ; preds = %invoke.cont153, %invoke.cont141
  %methodId.0 = phi i16 [ %100, %invoke.cont153 ], [ 99, %invoke.cont141 ]
  call void @llvm.lifetime.end.p0(i64 6, ptr nonnull %aesField) #22
  br label %if.end196

ehcleanup157:                                     ; preds = %lpad148, %lpad138
  %.pn315 = phi { ptr, i32 } [ %104, %lpad148 ], [ %103, %lpad138 ]
  call void @llvm.lifetime.end.p0(i64 6, ptr nonnull %aesField) #22
  br label %ehcleanup242

if.else158:                                       ; preds = %if.then134
  %105 = and i16 %97, 65
  %106 = icmp eq i16 %105, 65
  br i1 %106, label %if.then161, label %if.else189

if.then161:                                       ; preds = %if.else158
  call void @llvm.lifetime.start.p0(i64 8, ptr nonnull %f) #22
  %CentralExtra162 = getelementptr inbounds %"class.NArchive::NZip::CItem", ptr %1, i64 0, i32 8
  %call165 = invoke noundef zeroext i1 @_ZNK8NArchive4NZip11CExtraBlock20GetStrongCryptoFieldERNS0_18CStrongCryptoFieldE(ptr noundef nonnull align 8 dereferenceable(32) %CentralExtra162, ptr noundef nonnull align 2 dereferenceable(8) %f)
          to label %invoke.cont164 unwind label %lpad163

invoke.cont164:                                   ; preds = %if.then161
  br i1 %call165, label %for.cond.preheader, label %if.then183

for.cond.preheader:                               ; preds = %invoke.cont164
  %AlgId = getelementptr inbounds %"struct.NArchive::NZip::CStrongCryptoField", ptr %f, i64 0, i32 1
  %_length.i.i = getelementptr inbounds %class.CStringBase.1, ptr %method, i64 0, i32 1
  %107 = load i16, ptr %AlgId, align 2
  switch i16 %107, label %if.then183 [
    i16 26113, label %if.then172
    i16 26114, label %if.then172.fold.split
    i16 26115, label %if.then172.fold.split649
    i16 26121, label %if.then172.fold.split650
    i16 26126, label %if.then172.fold.split651
    i16 26127, label %if.then172.fold.split652
    i16 26128, label %if.then172.fold.split653
    i16 26370, label %if.then172.fold.split654
    i16 26400, label %if.then172.fold.split655
    i16 26401, label %if.then172.fold.split656
    i16 26625, label %if.then172.fold.split657
  ]

lpad163:                                          ; preds = %if.then183, %if.then161
  %108 = landingpad { ptr, i32 }
          catch ptr @_ZTIPKc
          catch ptr null
  br label %ehcleanup187

if.then172.fold.split:                            ; preds = %for.cond.preheader
  br label %if.then172

if.then172.fold.split649:                         ; preds = %for.cond.preheader
  br label %if.then172

if.then172.fold.split650:                         ; preds = %for.cond.preheader
  br label %if.then172

if.then172.fold.split651:                         ; preds = %for.cond.preheader
  br label %if.then172

if.then172.fold.split652:                         ; preds = %for.cond.preheader
  br label %if.then172

if.then172.fold.split653:                         ; preds = %for.cond.preheader
  br label %if.then172

if.then172.fold.split654:                         ; preds = %for.cond.preheader
  br label %if.then172

if.then172.fold.split655:                         ; preds = %for.cond.preheader
  br label %if.then172

if.then172.fold.split656:                         ; preds = %for.cond.preheader
  br label %if.then172

if.then172.fold.split657:                         ; preds = %for.cond.preheader
  br label %if.then172

if.then172:                                       ; preds = %for.cond.preheader, %if.then172.fold.split657, %if.then172.fold.split656, %if.then172.fold.split655, %if.then172.fold.split654, %if.then172.fold.split653, %if.then172.fold.split652, %if.then172.fold.split651, %if.then172.fold.split650, %if.then172.fold.split649, %if.then172.fold.split
  %conv167.lcssa = phi i64 [ 0, %for.cond.preheader ], [ 1, %if.then172.fold.split ], [ 2, %if.then172.fold.split649 ], [ 3, %if.then172.fold.split650 ], [ 4, %if.then172.fold.split651 ], [ 5, %if.then172.fold.split652 ], [ 6, %if.then172.fold.split653 ], [ 7, %if.then172.fold.split654 ], [ 8, %if.then172.fold.split655 ], [ 9, %if.then172.fold.split656 ], [ 10, %if.then172.fold.split657 ]
  %Name173 = getelementptr inbounds [11 x %"struct.NArchive::NZip::CStrongCryptoPair"], ptr @_ZN8NArchive4NZipL19g_StrongCryptoPairsE, i64 0, i64 %conv167.lcssa, i32 1
  %109 = load ptr, ptr %Name173, align 8
  br label %for.cond.i.i

for.cond.i.i:                                     ; preds = %for.cond.i.i, %if.then172
  %indvars.iv.i.i468 = phi i64 [ %indvars.iv.next.i.i471, %for.cond.i.i ], [ 0, %if.then172 ]
  %arrayidx.i.i469 = getelementptr inbounds i8, ptr %109, i64 %indvars.iv.i.i468
  %110 = load i8, ptr %arrayidx.i.i469, align 1
  %cmp.not.i.i470 = icmp eq i8 %110, 0
  %indvars.iv.next.i.i471 = add nuw i64 %indvars.iv.i.i468, 1
  br i1 %cmp.not.i.i470, label %_Z11MyStringLenIcEiPKT_.exit.i, label %for.cond.i.i

_Z11MyStringLenIcEiPKT_.exit.i:                   ; preds = %for.cond.i.i
  %111 = trunc i64 %indvars.iv.i.i468 to i32
  %112 = load i32, ptr %_capacity.i, align 4
  %113 = load i32, ptr %_length.i.i, align 8
  %114 = xor i32 %113, -1
  %sub2.i.i = add i32 %112, %114
  %cmp.not.i6.i = icmp slt i32 %sub2.i.i, %111
  br i1 %cmp.not.i6.i, label %if.end.i.i, label %_ZN11CStringBaseIcE10GrowLengthEi.exit.i

if.end.i.i:                                       ; preds = %_Z11MyStringLenIcEiPKT_.exit.i
  %cmp4.i.i = icmp sgt i32 %112, 64
  %div24.i.i = lshr i32 %112, 1
  %cmp8.i.i = icmp sgt i32 %112, 8
  %..i.i = select i1 %cmp8.i.i, i32 16, i32 4
  %delta.0.i.i = select i1 %cmp4.i.i, i32 %div24.i.i, i32 %..i.i
  %add.i.i = add nsw i32 %delta.0.i.i, %sub2.i.i
  %cmp13.i.i = icmp slt i32 %add.i.i, %111
  %sub15.i.i = sub nsw i32 %111, %sub2.i.i
  %delta.1.i.i = select i1 %cmp13.i.i, i32 %sub15.i.i, i32 %delta.0.i.i
  %add18.i.i = add i32 %112, 1
  %add.i.i.i473 = add i32 %add18.i.i, %delta.1.i.i
  %cmp.i.i.i = icmp eq i32 %add.i.i.i473, %112
  br i1 %cmp.i.i.i, label %_ZN11CStringBaseIcE10GrowLengthEi.exit.i, label %if.end.i.i.i474

if.end.i.i.i474:                                  ; preds = %if.end.i.i
  %conv.i.i.i475 = sext i32 %add.i.i.i473 to i64
  %call.i.i.i479 = invoke noalias noundef nonnull ptr @_Znam(i64 noundef %conv.i.i.i475) #24
          to label %call.i.i.i.noexc478 unwind label %lpad174

call.i.i.i.noexc478:                              ; preds = %if.end.i.i.i474
  %call.i.i.i479672 = ptrtoint ptr %call.i.i.i479 to i64
  %cmp3.i.i.i = icmp sgt i32 %112, 0
  br i1 %cmp3.i.i.i, label %for.cond.preheader.i.i.i, label %if.end9.i.i.i476

for.cond.preheader.i.i.i:                         ; preds = %call.i.i.i.noexc478
  %cmp522.i.i.i = icmp sgt i32 %113, 0
  %.pre.i.i.i = load ptr, ptr %method, align 8
  br i1 %cmp522.i.i.i, label %iter.check, label %for.cond.cleanup.i.i.i

iter.check:                                       ; preds = %for.cond.preheader.i.i.i
  %.pre.i.i.i673 = ptrtoint ptr %.pre.i.i.i to i64
  %wide.trip.count.i.i.i = zext i32 %113 to i64
  %min.iters.check = icmp ult i32 %113, 8
  %115 = sub i64 %call.i.i.i479672, %.pre.i.i.i673
  %diff.check = icmp ult i64 %115, 32
  %or.cond = select i1 %min.iters.check, i1 true, i1 %diff.check
  br i1 %or.cond, label %for.body.i.i.i.preheader, label %vector.main.loop.iter.check

vector.main.loop.iter.check:                      ; preds = %iter.check
  %min.iters.check674 = icmp ult i32 %113, 32
  br i1 %min.iters.check674, label %vec.epilog.ph, label %vector.ph

vector.ph:                                        ; preds = %vector.main.loop.iter.check
  %n.vec = and i64 %wide.trip.count.i.i.i, 4294967264
  br label %vector.body

vector.body:                                      ; preds = %vector.body, %vector.ph
  %index675 = phi i64 [ 0, %vector.ph ], [ %index.next, %vector.body ]
  %116 = getelementptr inbounds i8, ptr %.pre.i.i.i, i64 %index675
  %wide.load = load <16 x i8>, ptr %116, align 1
  %117 = getelementptr inbounds i8, ptr %116, i64 16
  %wide.load676 = load <16 x i8>, ptr %117, align 1
  %118 = getelementptr inbounds i8, ptr %call.i.i.i479, i64 %index675
  store <16 x i8> %wide.load, ptr %118, align 1
  %119 = getelementptr inbounds i8, ptr %118, i64 16
  store <16 x i8> %wide.load676, ptr %119, align 1
  %index.next = add nuw i64 %index675, 32
  %120 = icmp eq i64 %index.next, %n.vec
  br i1 %120, label %middle.block, label %vector.body

middle.block:                                     ; preds = %vector.body
  %cmp.n = icmp eq i64 %n.vec, %wide.trip.count.i.i.i
  br i1 %cmp.n, label %delete.notnull.i.i.i, label %vec.epilog.iter.check

vec.epilog.iter.check:                            ; preds = %middle.block
  %n.vec.remaining = and i64 %wide.trip.count.i.i.i, 24
  %min.epilog.iters.check = icmp eq i64 %n.vec.remaining, 0
  br i1 %min.epilog.iters.check, label %for.body.i.i.i.preheader, label %vec.epilog.ph

vec.epilog.ph:                                    ; preds = %vector.main.loop.iter.check, %vec.epilog.iter.check
  %vec.epilog.resume.val = phi i64 [ %n.vec, %vec.epilog.iter.check ], [ 0, %vector.main.loop.iter.check ]
  %n.vec678 = and i64 %wide.trip.count.i.i.i, 4294967288
  br label %vec.epilog.vector.body

vec.epilog.vector.body:                           ; preds = %vec.epilog.vector.body, %vec.epilog.ph
  %index680 = phi i64 [ %vec.epilog.resume.val, %vec.epilog.ph ], [ %index.next682, %vec.epilog.vector.body ]
  %121 = getelementptr inbounds i8, ptr %.pre.i.i.i, i64 %index680
  %wide.load681 = load <8 x i8>, ptr %121, align 1
  %122 = getelementptr inbounds i8, ptr %call.i.i.i479, i64 %index680
  store <8 x i8> %wide.load681, ptr %122, align 1
  %index.next682 = add nuw i64 %index680, 8
  %123 = icmp eq i64 %index.next682, %n.vec678
  br i1 %123, label %vec.epilog.middle.block, label %vec.epilog.vector.body

vec.epilog.middle.block:                          ; preds = %vec.epilog.vector.body
  %cmp.n679 = icmp eq i64 %n.vec678, %wide.trip.count.i.i.i
  br i1 %cmp.n679, label %delete.notnull.i.i.i, label %for.body.i.i.i.preheader

for.body.i.i.i.preheader:                         ; preds = %iter.check, %vec.epilog.iter.check, %vec.epilog.middle.block
  %indvars.iv.i.i.i.ph = phi i64 [ 0, %iter.check ], [ %n.vec, %vec.epilog.iter.check ], [ %n.vec678, %vec.epilog.middle.block ]
  %124 = xor i64 %indvars.iv.i.i.i.ph, -1
  %125 = add nsw i64 %124, %wide.trip.count.i.i.i
  %xtraiter = and i64 %wide.trip.count.i.i.i, 3
  %lcmp.mod.not = icmp eq i64 %xtraiter, 0
  br i1 %lcmp.mod.not, label %for.body.i.i.i.prol.loopexit, label %for.body.i.i.i.prol

for.body.i.i.i.prol:                              ; preds = %for.body.i.i.i.preheader, %for.body.i.i.i.prol
  %indvars.iv.i.i.i.prol = phi i64 [ %indvars.iv.next.i.i.i.prol, %for.body.i.i.i.prol ], [ %indvars.iv.i.i.i.ph, %for.body.i.i.i.preheader ]
  %prol.iter = phi i64 [ %prol.iter.next, %for.body.i.i.i.prol ], [ 0, %for.body.i.i.i.preheader ]
  %arrayidx.i.i.i477.prol = getelementptr inbounds i8, ptr %.pre.i.i.i, i64 %indvars.iv.i.i.i.prol
  %126 = load i8, ptr %arrayidx.i.i.i477.prol, align 1
  %arrayidx7.i.i.i.prol = getelementptr inbounds i8, ptr %call.i.i.i479, i64 %indvars.iv.i.i.i.prol
  store i8 %126, ptr %arrayidx7.i.i.i.prol, align 1
  %indvars.iv.next.i.i.i.prol = add nuw nsw i64 %indvars.iv.i.i.i.prol, 1
  %prol.iter.next = add i64 %prol.iter, 1
  %prol.iter.cmp.not = icmp eq i64 %prol.iter.next, %xtraiter
  br i1 %prol.iter.cmp.not, label %for.body.i.i.i.prol.loopexit, label %for.body.i.i.i.prol

for.body.i.i.i.prol.loopexit:                     ; preds = %for.body.i.i.i.prol, %for.body.i.i.i.preheader
  %indvars.iv.i.i.i.unr = phi i64 [ %indvars.iv.i.i.i.ph, %for.body.i.i.i.preheader ], [ %indvars.iv.next.i.i.i.prol, %for.body.i.i.i.prol ]
  %127 = icmp ult i64 %125, 3
  br i1 %127, label %delete.notnull.i.i.i, label %for.body.i.i.i

for.cond.cleanup.i.i.i:                           ; preds = %for.cond.preheader.i.i.i
  %isnull.i.i.i = icmp eq ptr %.pre.i.i.i, null
  br i1 %isnull.i.i.i, label %if.end9.i.i.i476, label %delete.notnull.i.i.i

for.body.i.i.i:                                   ; preds = %for.body.i.i.i.prol.loopexit, %for.body.i.i.i
  %indvars.iv.i.i.i = phi i64 [ %indvars.iv.next.i.i.i.3, %for.body.i.i.i ], [ %indvars.iv.i.i.i.unr, %for.body.i.i.i.prol.loopexit ]
  %arrayidx.i.i.i477 = getelementptr inbounds i8, ptr %.pre.i.i.i, i64 %indvars.iv.i.i.i
  %128 = load i8, ptr %arrayidx.i.i.i477, align 1
  %arrayidx7.i.i.i = getelementptr inbounds i8, ptr %call.i.i.i479, i64 %indvars.iv.i.i.i
  store i8 %128, ptr %arrayidx7.i.i.i, align 1
  %indvars.iv.next.i.i.i = add nuw nsw i64 %indvars.iv.i.i.i, 1
  %arrayidx.i.i.i477.1 = getelementptr inbounds i8, ptr %.pre.i.i.i, i64 %indvars.iv.next.i.i.i
  %129 = load i8, ptr %arrayidx.i.i.i477.1, align 1
  %arrayidx7.i.i.i.1 = getelementptr inbounds i8, ptr %call.i.i.i479, i64 %indvars.iv.next.i.i.i
  store i8 %129, ptr %arrayidx7.i.i.i.1, align 1
  %indvars.iv.next.i.i.i.1 = add nuw nsw i64 %indvars.iv.i.i.i, 2
  %arrayidx.i.i.i477.2 = getelementptr inbounds i8, ptr %.pre.i.i.i, i64 %indvars.iv.next.i.i.i.1
  %130 = load i8, ptr %arrayidx.i.i.i477.2, align 1
  %arrayidx7.i.i.i.2 = getelementptr inbounds i8, ptr %call.i.i.i479, i64 %indvars.iv.next.i.i.i.1
  store i8 %130, ptr %arrayidx7.i.i.i.2, align 1
  %indvars.iv.next.i.i.i.2 = add nuw nsw i64 %indvars.iv.i.i.i, 3
  %arrayidx.i.i.i477.3 = getelementptr inbounds i8, ptr %.pre.i.i.i, i64 %indvars.iv.next.i.i.i.2
  %131 = load i8, ptr %arrayidx.i.i.i477.3, align 1
  %arrayidx7.i.i.i.3 = getelementptr inbounds i8, ptr %call.i.i.i479, i64 %indvars.iv.next.i.i.i.2
  store i8 %131, ptr %arrayidx7.i.i.i.3, align 1
  %indvars.iv.next.i.i.i.3 = add nuw nsw i64 %indvars.iv.i.i.i, 4
  %exitcond.not.i.i.i.3 = icmp eq i64 %indvars.iv.next.i.i.i.3, %wide.trip.count.i.i.i
  br i1 %exitcond.not.i.i.i.3, label %delete.notnull.i.i.i, label %for.body.i.i.i

delete.notnull.i.i.i:                             ; preds = %for.body.i.i.i.prol.loopexit, %for.body.i.i.i, %middle.block, %vec.epilog.middle.block, %for.cond.cleanup.i.i.i
  call void @_ZdaPv(ptr noundef nonnull %.pre.i.i.i) #23
  %.pre.i.i = load i32, ptr %_length.i.i, align 8
  br label %if.end9.i.i.i476

if.end9.i.i.i476:                                 ; preds = %delete.notnull.i.i.i, %for.cond.cleanup.i.i.i, %call.i.i.i.noexc478
  %132 = phi i32 [ %.pre.i.i, %delete.notnull.i.i.i ], [ %113, %for.cond.cleanup.i.i.i ], [ %113, %call.i.i.i.noexc478 ]
  store ptr %call.i.i.i479, ptr %method, align 8
  %idxprom13.i.i.i = sext i32 %132 to i64
  %arrayidx14.i.i.i = getelementptr inbounds i8, ptr %call.i.i.i479, i64 %idxprom13.i.i.i
  store i8 0, ptr %arrayidx14.i.i.i, align 1
  store i32 %add.i.i.i473, ptr %_capacity.i, align 4
  br label %_ZN11CStringBaseIcE10GrowLengthEi.exit.i

_ZN11CStringBaseIcE10GrowLengthEi.exit.i:         ; preds = %if.end9.i.i.i476, %if.end.i.i, %_Z11MyStringLenIcEiPKT_.exit.i
  %133 = phi i32 [ %113, %_Z11MyStringLenIcEiPKT_.exit.i ], [ %113, %if.end.i.i ], [ %132, %if.end9.i.i.i476 ]
  %134 = load ptr, ptr %method, align 8
  %idx.ext.i = sext i32 %133 to i64
  %add.ptr.i = getelementptr inbounds i8, ptr %134, i64 %idx.ext.i
  br label %while.cond.i.i

while.cond.i.i:                                   ; preds = %while.cond.i.i, %_ZN11CStringBaseIcE10GrowLengthEi.exit.i
  %src.addr.0.i.i = phi ptr [ %109, %_ZN11CStringBaseIcE10GrowLengthEi.exit.i ], [ %incdec.ptr.i.i, %while.cond.i.i ]
  %dest.addr.0.i.i = phi ptr [ %add.ptr.i, %_ZN11CStringBaseIcE10GrowLengthEi.exit.i ], [ %incdec.ptr1.i.i, %while.cond.i.i ]
  %incdec.ptr.i.i = getelementptr inbounds i8, ptr %src.addr.0.i.i, i64 1
  %135 = load i8, ptr %src.addr.0.i.i, align 1
  %incdec.ptr1.i.i = getelementptr inbounds i8, ptr %dest.addr.0.i.i, i64 1
  store i8 %135, ptr %dest.addr.0.i.i, align 1
  %cmp.not.i7.i = icmp eq i8 %135, 0
  br i1 %cmp.not.i7.i, label %cleanup, label %while.cond.i.i

lpad174:                                          ; preds = %if.end.i.i.i474
  %136 = landingpad { ptr, i32 }
          catch ptr @_ZTIPKc
          catch ptr null
  br label %ehcleanup187

cleanup:                                          ; preds = %while.cond.i.i
  %137 = load i32, ptr %_length.i.i, align 8
  %add.i = add nsw i32 %137, %111
  store i32 %add.i, ptr %_length.i.i, align 8
  br label %if.end186

if.then183:                                       ; preds = %for.cond.preheader, %invoke.cont164
  %call185 = invoke noundef nonnull align 8 dereferenceable(16) ptr @_ZN11CStringBaseIcEpLEPKc(ptr noundef nonnull align 8 dereferenceable(16) %method, ptr noundef nonnull @.str.13)
          to label %if.end186 unwind label %lpad163

if.end186:                                        ; preds = %cleanup, %if.then183
  call void @llvm.lifetime.end.p0(i64 8, ptr nonnull %f) #22
  br label %if.end192

ehcleanup187:                                     ; preds = %lpad174, %lpad163
  %.pn = phi { ptr, i32 } [ %108, %lpad163 ], [ %136, %lpad174 ]
  call void @llvm.lifetime.end.p0(i64 8, ptr nonnull %f) #22
  br label %ehcleanup242

if.else189:                                       ; preds = %if.else158
  %call191 = invoke noundef nonnull align 8 dereferenceable(16) ptr @_ZN11CStringBaseIcEpLEPKc(ptr noundef nonnull align 8 dereferenceable(16) %method, ptr noundef nonnull @.str.14)
          to label %if.end192 unwind label %lpad131

if.end192:                                        ; preds = %if.else189, %if.end186
  %call194 = invoke noundef nonnull align 8 dereferenceable(16) ptr @_ZN11CStringBaseIcEpLEc(ptr noundef nonnull align 8 dereferenceable(16) %method, i8 noundef signext 32)
          to label %if.end196 unwind label %lpad131

if.end196:                                        ; preds = %if.end156, %if.end192, %invoke.cont130
  %methodId.1 = phi i16 [ %methodId.0, %if.end156 ], [ %95, %if.end192 ], [ %95, %invoke.cont130 ]
  %conv197 = zext i16 %methodId.1 to i64
  %cmp198 = icmp ult i16 %methodId.1, 11
  br i1 %cmp198, label %if.then199, label %if.else204

if.then199:                                       ; preds = %if.end196
  %arrayidx201 = getelementptr inbounds [11 x ptr], ptr @_ZN8NArchive4NZipL8kMethodsE, i64 0, i64 %conv197
  %138 = load ptr, ptr %arrayidx201, align 8
  br label %for.cond.i.i480

for.cond.i.i480:                                  ; preds = %for.cond.i.i480, %if.then199
  %indvars.iv.i.i481 = phi i64 [ %indvars.iv.next.i.i484, %for.cond.i.i480 ], [ 0, %if.then199 ]
  %arrayidx.i.i482 = getelementptr inbounds i8, ptr %138, i64 %indvars.iv.i.i481
  %139 = load i8, ptr %arrayidx.i.i482, align 1
  %cmp.not.i.i483 = icmp eq i8 %139, 0
  %indvars.iv.next.i.i484 = add nuw i64 %indvars.iv.i.i481, 1
  br i1 %cmp.not.i.i483, label %_Z11MyStringLenIcEiPKT_.exit.i485, label %for.cond.i.i480

_Z11MyStringLenIcEiPKT_.exit.i485:                ; preds = %for.cond.i.i480
  %140 = trunc i64 %indvars.iv.i.i481 to i32
  %141 = load i32, ptr %_capacity.i, align 4
  %_length.i.i487 = getelementptr inbounds %class.CStringBase.1, ptr %method, i64 0, i32 1
  %142 = load i32, ptr %_length.i.i487, align 8
  %143 = xor i32 %142, -1
  %sub2.i.i488 = add i32 %141, %143
  %cmp.not.i6.i489 = icmp slt i32 %sub2.i.i488, %140
  br i1 %cmp.not.i6.i489, label %if.end.i.i500, label %_ZN11CStringBaseIcE10GrowLengthEi.exit.i490

if.end.i.i500:                                    ; preds = %_Z11MyStringLenIcEiPKT_.exit.i485
  %cmp4.i.i501 = icmp sgt i32 %141, 64
  %div24.i.i502 = lshr i32 %141, 1
  %cmp8.i.i503 = icmp sgt i32 %141, 8
  %..i.i504 = select i1 %cmp8.i.i503, i32 16, i32 4
  %delta.0.i.i505 = select i1 %cmp4.i.i501, i32 %div24.i.i502, i32 %..i.i504
  %add.i.i506 = add nsw i32 %delta.0.i.i505, %sub2.i.i488
  %cmp13.i.i507 = icmp slt i32 %add.i.i506, %140
  %sub15.i.i508 = sub nsw i32 %140, %sub2.i.i488
  %delta.1.i.i509 = select i1 %cmp13.i.i507, i32 %sub15.i.i508, i32 %delta.0.i.i505
  %add18.i.i510 = add i32 %141, 1
  %add.i.i.i511 = add i32 %add18.i.i510, %delta.1.i.i509
  %cmp.i.i.i512 = icmp eq i32 %add.i.i.i511, %141
  br i1 %cmp.i.i.i512, label %_ZN11CStringBaseIcE10GrowLengthEi.exit.i490, label %if.end.i.i.i513

if.end.i.i.i513:                                  ; preds = %if.end.i.i500
  %conv.i.i.i514 = sext i32 %add.i.i.i511 to i64
  %call.i.i.i535 = invoke noalias noundef nonnull ptr @_Znam(i64 noundef %conv.i.i.i514) #24
          to label %call.i.i.i.noexc534 unwind label %lpad131

call.i.i.i.noexc534:                              ; preds = %if.end.i.i.i513
  %call.i.i.i535684 = ptrtoint ptr %call.i.i.i535 to i64
  %cmp3.i.i.i515 = icmp sgt i32 %141, 0
  br i1 %cmp3.i.i.i515, label %for.cond.preheader.i.i.i519, label %if.end9.i.i.i516

for.cond.preheader.i.i.i519:                      ; preds = %call.i.i.i.noexc534
  %cmp522.i.i.i520 = icmp sgt i32 %142, 0
  %.pre.i.i.i521 = load ptr, ptr %method, align 8
  br i1 %cmp522.i.i.i520, label %iter.check690, label %for.cond.cleanup.i.i.i522

iter.check690:                                    ; preds = %for.cond.preheader.i.i.i519
  %.pre.i.i.i521685 = ptrtoint ptr %.pre.i.i.i521 to i64
  %wide.trip.count.i.i.i527 = zext i32 %142 to i64
  %min.iters.check688 = icmp ult i32 %142, 8
  %144 = sub i64 %call.i.i.i535684, %.pre.i.i.i521685
  %diff.check686 = icmp ult i64 %144, 32
  %or.cond717 = select i1 %min.iters.check688, i1 true, i1 %diff.check686
  br i1 %or.cond717, label %for.body.i.i.i528.preheader, label %vector.main.loop.iter.check692

vector.main.loop.iter.check692:                   ; preds = %iter.check690
  %min.iters.check691 = icmp ult i32 %142, 32
  br i1 %min.iters.check691, label %vec.epilog.ph705, label %vector.ph693

vector.ph693:                                     ; preds = %vector.main.loop.iter.check692
  %n.vec695 = and i64 %wide.trip.count.i.i.i527, 4294967264
  br label %vector.body697

vector.body697:                                   ; preds = %vector.body697, %vector.ph693
  %index698 = phi i64 [ 0, %vector.ph693 ], [ %index.next701, %vector.body697 ]
  %145 = getelementptr inbounds i8, ptr %.pre.i.i.i521, i64 %index698
  %wide.load699 = load <16 x i8>, ptr %145, align 1
  %146 = getelementptr inbounds i8, ptr %145, i64 16
  %wide.load700 = load <16 x i8>, ptr %146, align 1
  %147 = getelementptr inbounds i8, ptr %call.i.i.i535, i64 %index698
  store <16 x i8> %wide.load699, ptr %147, align 1
  %148 = getelementptr inbounds i8, ptr %147, i64 16
  store <16 x i8> %wide.load700, ptr %148, align 1
  %index.next701 = add nuw i64 %index698, 32
  %149 = icmp eq i64 %index.next701, %n.vec695
  br i1 %149, label %middle.block687, label %vector.body697

middle.block687:                                  ; preds = %vector.body697
  %cmp.n696 = icmp eq i64 %n.vec695, %wide.trip.count.i.i.i527
  br i1 %cmp.n696, label %delete.notnull.i.i.i524, label %vec.epilog.iter.check704

vec.epilog.iter.check704:                         ; preds = %middle.block687
  %n.vec.remaining706 = and i64 %wide.trip.count.i.i.i527, 24
  %min.epilog.iters.check707 = icmp eq i64 %n.vec.remaining706, 0
  br i1 %min.epilog.iters.check707, label %for.body.i.i.i528.preheader, label %vec.epilog.ph705

vec.epilog.ph705:                                 ; preds = %vector.main.loop.iter.check692, %vec.epilog.iter.check704
  %vec.epilog.resume.val708 = phi i64 [ %n.vec695, %vec.epilog.iter.check704 ], [ 0, %vector.main.loop.iter.check692 ]
  %n.vec710 = and i64 %wide.trip.count.i.i.i527, 4294967288
  br label %vec.epilog.vector.body713

vec.epilog.vector.body713:                        ; preds = %vec.epilog.vector.body713, %vec.epilog.ph705
  %index714 = phi i64 [ %vec.epilog.resume.val708, %vec.epilog.ph705 ], [ %index.next716, %vec.epilog.vector.body713 ]
  %150 = getelementptr inbounds i8, ptr %.pre.i.i.i521, i64 %index714
  %wide.load715 = load <8 x i8>, ptr %150, align 1
  %151 = getelementptr inbounds i8, ptr %call.i.i.i535, i64 %index714
  store <8 x i8> %wide.load715, ptr %151, align 1
  %index.next716 = add nuw i64 %index714, 8
  %152 = icmp eq i64 %index.next716, %n.vec710
  br i1 %152, label %vec.epilog.middle.block702, label %vec.epilog.vector.body713

vec.epilog.middle.block702:                       ; preds = %vec.epilog.vector.body713
  %cmp.n712 = icmp eq i64 %n.vec710, %wide.trip.count.i.i.i527
  br i1 %cmp.n712, label %delete.notnull.i.i.i524, label %for.body.i.i.i528.preheader

for.body.i.i.i528.preheader:                      ; preds = %iter.check690, %vec.epilog.iter.check704, %vec.epilog.middle.block702
  %indvars.iv.i.i.i529.ph = phi i64 [ 0, %iter.check690 ], [ %n.vec695, %vec.epilog.iter.check704 ], [ %n.vec710, %vec.epilog.middle.block702 ]
  %153 = xor i64 %indvars.iv.i.i.i529.ph, -1
  %154 = add nsw i64 %153, %wide.trip.count.i.i.i527
  %xtraiter732 = and i64 %wide.trip.count.i.i.i527, 3
  %lcmp.mod733.not = icmp eq i64 %xtraiter732, 0
  br i1 %lcmp.mod733.not, label %for.body.i.i.i528.prol.loopexit, label %for.body.i.i.i528.prol

for.body.i.i.i528.prol:                           ; preds = %for.body.i.i.i528.preheader, %for.body.i.i.i528.prol
  %indvars.iv.i.i.i529.prol = phi i64 [ %indvars.iv.next.i.i.i532.prol, %for.body.i.i.i528.prol ], [ %indvars.iv.i.i.i529.ph, %for.body.i.i.i528.preheader ]
  %prol.iter734 = phi i64 [ %prol.iter734.next, %for.body.i.i.i528.prol ], [ 0, %for.body.i.i.i528.preheader ]
  %arrayidx.i.i.i530.prol = getelementptr inbounds i8, ptr %.pre.i.i.i521, i64 %indvars.iv.i.i.i529.prol
  %155 = load i8, ptr %arrayidx.i.i.i530.prol, align 1
  %arrayidx7.i.i.i531.prol = getelementptr inbounds i8, ptr %call.i.i.i535, i64 %indvars.iv.i.i.i529.prol
  store i8 %155, ptr %arrayidx7.i.i.i531.prol, align 1
  %indvars.iv.next.i.i.i532.prol = add nuw nsw i64 %indvars.iv.i.i.i529.prol, 1
  %prol.iter734.next = add i64 %prol.iter734, 1
  %prol.iter734.cmp.not = icmp eq i64 %prol.iter734.next, %xtraiter732
  br i1 %prol.iter734.cmp.not, label %for.body.i.i.i528.prol.loopexit, label %for.body.i.i.i528.prol

for.body.i.i.i528.prol.loopexit:                  ; preds = %for.body.i.i.i528.prol, %for.body.i.i.i528.preheader
  %indvars.iv.i.i.i529.unr = phi i64 [ %indvars.iv.i.i.i529.ph, %for.body.i.i.i528.preheader ], [ %indvars.iv.next.i.i.i532.prol, %for.body.i.i.i528.prol ]
  %156 = icmp ult i64 %154, 3
  br i1 %156, label %delete.notnull.i.i.i524, label %for.body.i.i.i528

for.cond.cleanup.i.i.i522:                        ; preds = %for.cond.preheader.i.i.i519
  %isnull.i.i.i523 = icmp eq ptr %.pre.i.i.i521, null
  br i1 %isnull.i.i.i523, label %if.end9.i.i.i516, label %delete.notnull.i.i.i524

for.body.i.i.i528:                                ; preds = %for.body.i.i.i528.prol.loopexit, %for.body.i.i.i528
  %indvars.iv.i.i.i529 = phi i64 [ %indvars.iv.next.i.i.i532.3, %for.body.i.i.i528 ], [ %indvars.iv.i.i.i529.unr, %for.body.i.i.i528.prol.loopexit ]
  %arrayidx.i.i.i530 = getelementptr inbounds i8, ptr %.pre.i.i.i521, i64 %indvars.iv.i.i.i529
  %157 = load i8, ptr %arrayidx.i.i.i530, align 1
  %arrayidx7.i.i.i531 = getelementptr inbounds i8, ptr %call.i.i.i535, i64 %indvars.iv.i.i.i529
  store i8 %157, ptr %arrayidx7.i.i.i531, align 1
  %indvars.iv.next.i.i.i532 = add nuw nsw i64 %indvars.iv.i.i.i529, 1
  %arrayidx.i.i.i530.1 = getelementptr inbounds i8, ptr %.pre.i.i.i521, i64 %indvars.iv.next.i.i.i532
  %158 = load i8, ptr %arrayidx.i.i.i530.1, align 1
  %arrayidx7.i.i.i531.1 = getelementptr inbounds i8, ptr %call.i.i.i535, i64 %indvars.iv.next.i.i.i532
  store i8 %158, ptr %arrayidx7.i.i.i531.1, align 1
  %indvars.iv.next.i.i.i532.1 = add nuw nsw i64 %indvars.iv.i.i.i529, 2
  %arrayidx.i.i.i530.2 = getelementptr inbounds i8, ptr %.pre.i.i.i521, i64 %indvars.iv.next.i.i.i532.1
  %159 = load i8, ptr %arrayidx.i.i.i530.2, align 1
  %arrayidx7.i.i.i531.2 = getelementptr inbounds i8, ptr %call.i.i.i535, i64 %indvars.iv.next.i.i.i532.1
  store i8 %159, ptr %arrayidx7.i.i.i531.2, align 1
  %indvars.iv.next.i.i.i532.2 = add nuw nsw i64 %indvars.iv.i.i.i529, 3
  %arrayidx.i.i.i530.3 = getelementptr inbounds i8, ptr %.pre.i.i.i521, i64 %indvars.iv.next.i.i.i532.2
  %160 = load i8, ptr %arrayidx.i.i.i530.3, align 1
  %arrayidx7.i.i.i531.3 = getelementptr inbounds i8, ptr %call.i.i.i535, i64 %indvars.iv.next.i.i.i532.2
  store i8 %160, ptr %arrayidx7.i.i.i531.3, align 1
  %indvars.iv.next.i.i.i532.3 = add nuw nsw i64 %indvars.iv.i.i.i529, 4
  %exitcond.not.i.i.i533.3 = icmp eq i64 %indvars.iv.next.i.i.i532.3, %wide.trip.count.i.i.i527
  br i1 %exitcond.not.i.i.i533.3, label %delete.notnull.i.i.i524, label %for.body.i.i.i528

delete.notnull.i.i.i524:                          ; preds = %for.body.i.i.i528.prol.loopexit, %for.body.i.i.i528, %middle.block687, %vec.epilog.middle.block702, %for.cond.cleanup.i.i.i522
  call void @_ZdaPv(ptr noundef nonnull %.pre.i.i.i521) #23
  %.pre.i.i525 = load i32, ptr %_length.i.i487, align 8
  br label %if.end9.i.i.i516

if.end9.i.i.i516:                                 ; preds = %delete.notnull.i.i.i524, %for.cond.cleanup.i.i.i522, %call.i.i.i.noexc534
  %161 = phi i32 [ %.pre.i.i525, %delete.notnull.i.i.i524 ], [ %142, %for.cond.cleanup.i.i.i522 ], [ %142, %call.i.i.i.noexc534 ]
  store ptr %call.i.i.i535, ptr %method, align 8
  %idxprom13.i.i.i517 = sext i32 %161 to i64
  %arrayidx14.i.i.i518 = getelementptr inbounds i8, ptr %call.i.i.i535, i64 %idxprom13.i.i.i517
  store i8 0, ptr %arrayidx14.i.i.i518, align 1
  store i32 %add.i.i.i511, ptr %_capacity.i, align 4
  br label %_ZN11CStringBaseIcE10GrowLengthEi.exit.i490

_ZN11CStringBaseIcE10GrowLengthEi.exit.i490:      ; preds = %if.end9.i.i.i516, %if.end.i.i500, %_Z11MyStringLenIcEiPKT_.exit.i485
  %162 = phi i32 [ %142, %_Z11MyStringLenIcEiPKT_.exit.i485 ], [ %142, %if.end.i.i500 ], [ %161, %if.end9.i.i.i516 ]
  %163 = load ptr, ptr %method, align 8
  %idx.ext.i491 = sext i32 %162 to i64
  %add.ptr.i492 = getelementptr inbounds i8, ptr %163, i64 %idx.ext.i491
  br label %while.cond.i.i493

while.cond.i.i493:                                ; preds = %while.cond.i.i493, %_ZN11CStringBaseIcE10GrowLengthEi.exit.i490
  %src.addr.0.i.i494 = phi ptr [ %138, %_ZN11CStringBaseIcE10GrowLengthEi.exit.i490 ], [ %incdec.ptr.i.i496, %while.cond.i.i493 ]
  %dest.addr.0.i.i495 = phi ptr [ %add.ptr.i492, %_ZN11CStringBaseIcE10GrowLengthEi.exit.i490 ], [ %incdec.ptr1.i.i497, %while.cond.i.i493 ]
  %incdec.ptr.i.i496 = getelementptr inbounds i8, ptr %src.addr.0.i.i494, i64 1
  %164 = load i8, ptr %src.addr.0.i.i494, align 1
  %incdec.ptr1.i.i497 = getelementptr inbounds i8, ptr %dest.addr.0.i.i495, i64 1
  store i8 %164, ptr %dest.addr.0.i.i495, align 1
  %cmp.not.i7.i498 = icmp eq i8 %164, 0
  br i1 %cmp.not.i7.i498, label %_ZN11CStringBaseIcEpLEPKc.exit536, label %while.cond.i.i493

_ZN11CStringBaseIcEpLEPKc.exit536:                ; preds = %while.cond.i.i493
  %165 = load i32, ptr %_length.i.i487, align 8
  %add.i499 = add nsw i32 %165, %140
  store i32 %add.i499, ptr %_length.i.i487, align 8
  br label %if.end236

if.else204:                                       ; preds = %if.end196
  switch i16 %methodId.1, label %sw.default [
    i16 14, label %sw.bb206
    i16 12, label %sw.bb224.invoke
    i16 96, label %sw.bb218
    i16 97, label %sw.bb221
    i16 98, label %sw.bb224
  ]

sw.bb206:                                         ; preds = %if.else204
  %call208 = invoke noundef nonnull align 8 dereferenceable(16) ptr @_ZN11CStringBaseIcEpLEPKc(ptr noundef nonnull align 8 dereferenceable(16) %method, ptr noundef nonnull @.str.26)
          to label %invoke.cont207 unwind label %lpad131

invoke.cont207:                                   ; preds = %sw.bb206
  %166 = load i16, ptr %Flags.i466, align 2
  %167 = and i16 %166, 2
  %cmp.i538.not = icmp eq i16 %167, 0
  br i1 %cmp.i538.not, label %if.end236, label %sw.bb224.invoke

sw.bb218:                                         ; preds = %if.else204
  br label %sw.bb224.invoke

sw.bb221:                                         ; preds = %if.else204
  br label %sw.bb224.invoke

sw.bb224:                                         ; preds = %if.else204
  br label %sw.bb224.invoke

sw.bb224.invoke:                                  ; preds = %if.else204, %invoke.cont207, %sw.bb218, %sw.bb221, %sw.bb224
  %168 = phi ptr [ @.str.30, %sw.bb224 ], [ @.str.29, %sw.bb221 ], [ @.str.28, %sw.bb218 ], [ @.str, %invoke.cont207 ], [ @.str.27, %if.else204 ]
  %169 = invoke noundef nonnull align 8 dereferenceable(16) ptr @_ZN11CStringBaseIcEpLEPKc(ptr noundef nonnull align 8 dereferenceable(16) %method, ptr noundef nonnull %168)
          to label %if.end236 unwind label %lpad131

sw.default:                                       ; preds = %if.else204
  call void @llvm.lifetime.start.p0(i64 32, ptr nonnull %s227) #22
  invoke void @_Z21ConvertUInt64ToStringyPcj(i64 noundef %conv197, ptr noundef nonnull %s227, i32 noundef 10)
          to label %invoke.cont231 unwind label %lpad230

invoke.cont231:                                   ; preds = %sw.default
  %call234 = invoke noundef nonnull align 8 dereferenceable(16) ptr @_ZN11CStringBaseIcEpLEPKc(ptr noundef nonnull align 8 dereferenceable(16) %method, ptr noundef nonnull %s227)
          to label %invoke.cont233 unwind label %lpad230

invoke.cont233:                                   ; preds = %invoke.cont231
  call void @llvm.lifetime.end.p0(i64 32, ptr nonnull %s227) #22
  br label %if.end236

lpad230:                                          ; preds = %invoke.cont231, %sw.default
  %170 = landingpad { ptr, i32 }
          catch ptr @_ZTIPKc
          catch ptr null
  call void @llvm.lifetime.end.p0(i64 32, ptr nonnull %s227) #22
  br label %ehcleanup242

if.end236:                                        ; preds = %sw.bb224.invoke, %_ZN11CStringBaseIcEpLEPKc.exit536, %invoke.cont233, %invoke.cont207
  %171 = load ptr, ptr %method, align 8
  %call240 = invoke noundef nonnull align 8 dereferenceable(16) ptr @_ZN8NWindows4NCOM12CPropVariantaSEPKc(ptr noundef nonnull align 8 dereferenceable(16) %prop, ptr noundef %171)
          to label %invoke.cont239 unwind label %lpad131

invoke.cont239:                                   ; preds = %if.end236
  %172 = load ptr, ptr %method, align 8
  %isnull.i539 = icmp eq ptr %172, null
  br i1 %isnull.i539, label %_ZN11CStringBaseIcED2Ev.exit541, label %delete.notnull.i540

delete.notnull.i540:                              ; preds = %invoke.cont239
  call void @_ZdaPv(ptr noundef nonnull %172) #23
  br label %_ZN11CStringBaseIcED2Ev.exit541

_ZN11CStringBaseIcED2Ev.exit541:                  ; preds = %invoke.cont239, %delete.notnull.i540
  call void @llvm.lifetime.end.p0(i64 16, ptr nonnull %method) #22
  br label %sw.epilog260

ehcleanup242:                                     ; preds = %lpad230, %ehcleanup187, %ehcleanup157, %lpad131
  %.pn317 = phi { ptr, i32 } [ %102, %lpad131 ], [ %170, %lpad230 ], [ %.pn315, %ehcleanup157 ], [ %.pn, %ehcleanup187 ]
  %173 = load ptr, ptr %method, align 8
  %isnull.i542 = icmp eq ptr %173, null
  br i1 %isnull.i542, label %ehcleanup244, label %delete.notnull.i543

delete.notnull.i543:                              ; preds = %ehcleanup242
  call void @_ZdaPv(ptr noundef nonnull %173) #23
  br label %ehcleanup244

ehcleanup244:                                     ; preds = %delete.notnull.i543, %ehcleanup242, %lpad129
  %.pn317.pn = phi { ptr, i32 } [ %101, %lpad129 ], [ %.pn317, %ehcleanup242 ], [ %.pn317, %delete.notnull.i543 ]
  call void @llvm.lifetime.end.p0(i64 16, ptr nonnull %method) #22
  br label %ehcleanup264

sw.bb247:                                         ; preds = %invoke.cont3
  %HostOS = getelementptr inbounds %"class.NArchive::NZip::CItem", ptr %1, i64 0, i32 1, i32 1
  %174 = load i8, ptr %HostOS, align 1
  %cmp249 = icmp ult i8 %174, 20
  br i1 %cmp249, label %cond.true, label %cond.end

cond.true:                                        ; preds = %sw.bb247
  %conv248 = zext i8 %174 to i64
  %reltable.shift = shl i64 %conv248, 2
  %reltable.intrinsic = call ptr @llvm.load.relative.i64(ptr @reltable._ZN8NArchive4NZip8CHandler11GetPropertyEjjP14tagPROPVARIANT, i64 %reltable.shift)
  br label %cond.end

cond.end:                                         ; preds = %sw.bb247, %cond.true
  %cond = phi ptr [ %reltable.intrinsic, %cond.true ], [ @.str.51, %sw.bb247 ]
  %call255 = invoke noundef nonnull align 8 dereferenceable(16) ptr @_ZN8NWindows4NCOM12CPropVariantaSEPKc(ptr noundef nonnull align 8 dereferenceable(16) %prop, ptr noundef %cond)
          to label %sw.epilog260 unwind label %lpad2

sw.bb256:                                         ; preds = %invoke.cont3
  %175 = load i8, ptr %1, align 8
  %conv257 = zext i8 %175 to i32
  br label %sw.bb256.invoke

sw.bb256.invoke:                                  ; preds = %sw.bb95, %if.then124, %sw.bb256
  %176 = phi i32 [ %conv257, %sw.bb256 ], [ %94, %if.then124 ], [ %call97, %sw.bb95 ]
  %177 = invoke noundef nonnull align 8 dereferenceable(16) ptr @_ZN8NWindows4NCOM12CPropVariantaSEj(ptr noundef nonnull align 8 dereferenceable(16) %prop, i32 noundef %176)
          to label %sw.epilog260 unwind label %lpad2

sw.epilog260:                                     ; preds = %sw.bb24.invoke, %sw.bb100.invoke, %sw.bb256.invoke, %cleanup.i, %cond.end, %invoke.cont122, %invoke.cont3, %_ZN11CStringBaseIcED2Ev.exit541, %_ZN11CStringBaseIcED2Ev.exit, %invoke.cont92, %if.end65, %if.end54, %if.end42, %_ZN11CStringBaseIwED2Ev.exit334
  %call262 = invoke noundef i32 @_ZN8NWindows4NCOM12CPropVariant6DetachEP14tagPROPVARIANT(ptr noundef nonnull align 8 dereferenceable(16) %prop, ptr noundef %value)
          to label %invoke.cont261 unwind label %lpad2

invoke.cont261:                                   ; preds = %sw.epilog260
  %call.i = invoke noundef i32 @_ZN8NWindows4NCOM12CPropVariant5ClearEv(ptr noundef nonnull align 8 dereferenceable(16) %prop)
          to label %_ZN8NWindows4NCOM12CPropVariantD2Ev.exit unwind label %terminate.lpad.i

terminate.lpad.i:                                 ; preds = %invoke.cont261
  %178 = landingpad { ptr, i32 }
          catch ptr null
  %179 = extractvalue { ptr, i32 } %178, 0
  call void @__clang_call_terminate(ptr %179) #21
  unreachable

_ZN8NWindows4NCOM12CPropVariantD2Ev.exit:         ; preds = %invoke.cont261
  call void @llvm.lifetime.end.p0(i64 16, ptr nonnull %prop) #22
  br label %return

ehcleanup264:                                     ; preds = %ehcleanup244, %ehcleanup119, %ehcleanup94, %lpad59, %lpad48, %lpad28, %ehcleanup14, %lpad2
  %.pn330 = phi { ptr, i32 } [ %2, %lpad2 ], [ %.pn317.pn, %ehcleanup244 ], [ %.pn320.pn, %ehcleanup119 ], [ %.pn325, %ehcleanup94 ], [ %44, %lpad59 ], [ %36, %lpad48 ], [ %20, %lpad28 ], [ %.pn327.pn, %ehcleanup14 ]
  %call.i545 = invoke noundef i32 @_ZN8NWindows4NCOM12CPropVariant5ClearEv(ptr noundef nonnull align 8 dereferenceable(16) %prop)
          to label %_ZN8NWindows4NCOM12CPropVariantD2Ev.exit547 unwind label %terminate.lpad.i546

terminate.lpad.i546:                              ; preds = %ehcleanup264
  %180 = landingpad { ptr, i32 }
          catch ptr null
  %181 = extractvalue { ptr, i32 } %180, 0
  call void @__clang_call_terminate(ptr %181) #21
  unreachable

_ZN8NWindows4NCOM12CPropVariantD2Ev.exit547:      ; preds = %ehcleanup264
  %exn.slot.10 = extractvalue { ptr, i32 } %.pn330, 0
  %ehselector.slot.10 = extractvalue { ptr, i32 } %.pn330, 1
  call void @llvm.lifetime.end.p0(i64 16, ptr nonnull %prop) #22
  %182 = call i32 @llvm.eh.typeid.for(ptr nonnull @_ZTIPKc) #22
  %matches = icmp eq i32 %ehselector.slot.10, %182
  %183 = call ptr @__cxa_begin_catch(ptr %exn.slot.10) #22
  br i1 %matches, label %catch270, label %catch

catch270:                                         ; preds = %_ZN8NWindows4NCOM12CPropVariantD2Ev.exit547
  %exception = call ptr @__cxa_allocate_exception(i64 8) #22
  store ptr %183, ptr %exception, align 16
  invoke void @__cxa_throw(ptr nonnull %exception, ptr nonnull @_ZTIPKc, ptr null) #25
          to label %unreachable unwind label %lpad273

catch:                                            ; preds = %_ZN8NWindows4NCOM12CPropVariantD2Ev.exit547
  call void @__cxa_end_catch()
  br label %return

lpad273:                                          ; preds = %catch270
  %184 = landingpad { ptr, i32 }
          cleanup
  call void @__cxa_end_catch() #22
  resume { ptr, i32 } %184

return:                                           ; preds = %catch, %_ZN8NWindows4NCOM12CPropVariantD2Ev.exit
  %retval.0 = phi i32 [ 0, %_ZN8NWindows4NCOM12CPropVariantD2Ev.exit ], [ -2147024882, %catch ]
  ret i32 %retval.0

unreachable:                                      ; preds = %catch270
  unreachable
}

declare void @_ZN8NArchive9NItemName10GetOSName2ERK11CStringBaseIwE(ptr sret(%class.CStringBase) align 8, ptr noundef nonnull align 8 dereferenceable(16)) local_unnamed_addr #5

; Function Attrs: uwtable
define linkonce_odr dso_local void @_ZNK8NArchive4NZip10CLocalItem16GetUnicodeStringERK11CStringBaseIcE(ptr noalias sret(%class.CStringBase) align 8 %agg.result, ptr noundef nonnull align 8 dereferenceable(80) %this, ptr noundef nonnull align 8 dereferenceable(16) %s) local_unnamed_addr #0 comdat align 2 personality ptr @__gxx_personality_v0 {
entry:
  %ref.tmp = alloca %class.CStringBase, align 8
  %_capacity.i = getelementptr inbounds %class.CStringBase, ptr %agg.result, i64 0, i32 2
  tail call void @llvm.memset.p0.i64(ptr noundef nonnull align 8 dereferenceable(16) %agg.result, i8 0, i64 16, i1 false)
  %call.i.i = tail call noalias noundef nonnull dereferenceable(16) ptr @_Znam(i64 noundef 16) #24
  store ptr %call.i.i, ptr %agg.result, align 8
  store i32 0, ptr %call.i.i, align 4
  store i32 4, ptr %_capacity.i, align 4
  %Flags.i = getelementptr inbounds %"class.NArchive::NZip::CLocalItem", ptr %this, i64 0, i32 1
  %0 = load i16, ptr %Flags.i, align 2
  %1 = and i16 %0, 2048
  %cmp.i.not = icmp eq i16 %1, 0
  br i1 %cmp.i.not, label %if.then9, label %if.then

if.then:                                          ; preds = %entry
  %call3 = invoke noundef zeroext i1 @_Z20ConvertUTF8ToUnicodeRK11CStringBaseIcERS_IwE(ptr noundef nonnull align 8 dereferenceable(16) %s, ptr noundef nonnull align 8 dereferenceable(16) %agg.result)
          to label %invoke.cont2 unwind label %lpad

invoke.cont2:                                     ; preds = %if.then
  %_length.i23.phi.trans.insert = getelementptr inbounds %class.CStringBase, ptr %agg.result, i64 0, i32 1
  br i1 %call3, label %if.end6, label %if.then4

if.then4:                                         ; preds = %invoke.cont2
  store i32 0, ptr %_length.i23.phi.trans.insert, align 8
  %2 = load ptr, ptr %agg.result, align 8
  store i32 0, ptr %2, align 4
  br label %if.then9

lpad:                                             ; preds = %if.then
  %3 = landingpad { ptr, i32 }
          cleanup
  br label %ehcleanup18

if.end6:                                          ; preds = %invoke.cont2
  %.pre = load i32, ptr %_length.i23.phi.trans.insert, align 8
  %4 = icmp eq i32 %.pre, 0
  br i1 %4, label %if.then9, label %nrvo.skipdtor

if.then9:                                         ; preds = %entry, %if.then4, %if.end6
  %_length.i2338 = getelementptr inbounds %class.CStringBase, ptr %agg.result, i64 0, i32 1
  call void @llvm.lifetime.start.p0(i64 16, ptr nonnull %ref.tmp) #22
  invoke void @_Z24MultiByteToUnicodeStringRK11CStringBaseIcEj(ptr nonnull sret(%class.CStringBase) align 8 %ref.tmp, ptr noundef nonnull align 8 dereferenceable(16) %s, i32 noundef 1)
          to label %invoke.cont13 unwind label %lpad10

invoke.cont13:                                    ; preds = %if.then9
  %cmp.i25 = icmp eq ptr %ref.tmp, %agg.result
  br i1 %cmp.i25, label %invoke.cont13.invoke.cont15_crit_edge, label %if.end.i

invoke.cont13.invoke.cont15_crit_edge:            ; preds = %invoke.cont13
  %.pre35 = load ptr, ptr %agg.result, align 8
  br label %invoke.cont15

if.end.i:                                         ; preds = %invoke.cont13
  store i32 0, ptr %_length.i2338, align 8
  %5 = load ptr, ptr %agg.result, align 8
  store i32 0, ptr %5, align 4
  %_length.i26 = getelementptr inbounds %class.CStringBase, ptr %ref.tmp, i64 0, i32 1
  %6 = load i32, ptr %_length.i26, align 8
  %add.i.i = add nsw i32 %6, 1
  %7 = load i32, ptr %_capacity.i, align 4
  %cmp.i.i = icmp eq i32 %add.i.i, %7
  br i1 %cmp.i.i, label %_ZN11CStringBaseIwE11SetCapacityEi.exit.i, label %if.end.i.i

if.end.i.i:                                       ; preds = %if.end.i
  %conv.i.i = zext i32 %add.i.i to i64
  %8 = icmp slt i32 %6, -1
  %9 = shl nuw nsw i64 %conv.i.i, 2
  %10 = select i1 %8, i64 -1, i64 %9
  %call.i.i2728 = invoke noalias noundef nonnull ptr @_Znam(i64 noundef %10) #24
          to label %call.i.i27.noexc unwind label %lpad14

call.i.i27.noexc:                                 ; preds = %if.end.i.i
  %cmp3.i.i = icmp sgt i32 %7, 0
  br i1 %cmp3.i.i, label %delete.notnull.i.i, label %if.end9.i.i

delete.notnull.i.i:                               ; preds = %call.i.i27.noexc
  call void @_ZdaPv(ptr noundef nonnull %5) #23
  %.pre.i = load i32, ptr %_length.i2338, align 8
  %11 = sext i32 %.pre.i to i64
  br label %if.end9.i.i

if.end9.i.i:                                      ; preds = %delete.notnull.i.i, %call.i.i27.noexc
  %idxprom13.i.i = phi i64 [ %11, %delete.notnull.i.i ], [ 0, %call.i.i27.noexc ]
  store ptr %call.i.i2728, ptr %agg.result, align 8
  %arrayidx14.i.i = getelementptr inbounds i32, ptr %call.i.i2728, i64 %idxprom13.i.i
  store i32 0, ptr %arrayidx14.i.i, align 4
  store i32 %add.i.i, ptr %_capacity.i, align 4
  br label %_ZN11CStringBaseIwE11SetCapacityEi.exit.i

_ZN11CStringBaseIwE11SetCapacityEi.exit.i:        ; preds = %if.end9.i.i, %if.end.i
  %12 = phi ptr [ %5, %if.end.i ], [ %call.i.i2728, %if.end9.i.i ]
  %13 = load ptr, ptr %ref.tmp, align 8
  br label %while.cond.i.i

while.cond.i.i:                                   ; preds = %while.cond.i.i, %_ZN11CStringBaseIwE11SetCapacityEi.exit.i
  %src.addr.0.i.i = phi ptr [ %13, %_ZN11CStringBaseIwE11SetCapacityEi.exit.i ], [ %incdec.ptr.i.i, %while.cond.i.i ]
  %dest.addr.0.i.i = phi ptr [ %12, %_ZN11CStringBaseIwE11SetCapacityEi.exit.i ], [ %incdec.ptr1.i.i, %while.cond.i.i ]
  %incdec.ptr.i.i = getelementptr inbounds i32, ptr %src.addr.0.i.i, i64 1
  %14 = load i32, ptr %src.addr.0.i.i, align 4
  %incdec.ptr1.i.i = getelementptr inbounds i32, ptr %dest.addr.0.i.i, i64 1
  store i32 %14, ptr %dest.addr.0.i.i, align 4
  %cmp.not.i.i = icmp eq i32 %14, 0
  br i1 %cmp.not.i.i, label %_Z12MyStringCopyIwEPT_S1_PKS0_.exit.i, label %while.cond.i.i

_Z12MyStringCopyIwEPT_S1_PKS0_.exit.i:            ; preds = %while.cond.i.i
  %15 = load i32, ptr %_length.i26, align 8
  store i32 %15, ptr %_length.i2338, align 8
  br label %invoke.cont15

invoke.cont15:                                    ; preds = %invoke.cont13.invoke.cont15_crit_edge, %_Z12MyStringCopyIwEPT_S1_PKS0_.exit.i
  %16 = phi ptr [ %.pre35, %invoke.cont13.invoke.cont15_crit_edge ], [ %13, %_Z12MyStringCopyIwEPT_S1_PKS0_.exit.i ]
  %isnull.i = icmp eq ptr %16, null
  br i1 %isnull.i, label %_ZN11CStringBaseIwED2Ev.exit, label %delete.notnull.i

delete.notnull.i:                                 ; preds = %invoke.cont15
  call void @_ZdaPv(ptr noundef nonnull %16) #23
  br label %_ZN11CStringBaseIwED2Ev.exit

_ZN11CStringBaseIwED2Ev.exit:                     ; preds = %invoke.cont15, %delete.notnull.i
  call void @llvm.lifetime.end.p0(i64 16, ptr nonnull %ref.tmp) #22
  br label %nrvo.skipdtor

lpad10:                                           ; preds = %if.then9
  %17 = landingpad { ptr, i32 }
          cleanup
  br label %ehcleanup

lpad14:                                           ; preds = %if.end.i.i
  %18 = landingpad { ptr, i32 }
          cleanup
  %19 = load ptr, ptr %ref.tmp, align 8
  %isnull.i29 = icmp eq ptr %19, null
  br i1 %isnull.i29, label %ehcleanup, label %delete.notnull.i30

delete.notnull.i30:                               ; preds = %lpad14
  call void @_ZdaPv(ptr noundef nonnull %19) #23
  br label %ehcleanup

ehcleanup:                                        ; preds = %delete.notnull.i30, %lpad14, %lpad10
  %.pn = phi { ptr, i32 } [ %17, %lpad10 ], [ %18, %lpad14 ], [ %18, %delete.notnull.i30 ]
  call void @llvm.lifetime.end.p0(i64 16, ptr nonnull %ref.tmp) #22
  br label %ehcleanup18

nrvo.skipdtor:                                    ; preds = %if.end6, %_ZN11CStringBaseIwED2Ev.exit
  ret void

ehcleanup18:                                      ; preds = %ehcleanup, %lpad
  %.pn.pn = phi { ptr, i32 } [ %.pn, %ehcleanup ], [ %3, %lpad ]
  %20 = load ptr, ptr %agg.result, align 8
  %isnull.i32 = icmp eq ptr %20, null
  br i1 %isnull.i32, label %_ZN11CStringBaseIwED2Ev.exit34, label %delete.notnull.i33

delete.notnull.i33:                               ; preds = %ehcleanup18
  call void @_ZdaPv(ptr noundef nonnull %20) #23
  br label %_ZN11CStringBaseIwED2Ev.exit34

_ZN11CStringBaseIwED2Ev.exit34:                   ; preds = %ehcleanup18, %delete.notnull.i33
  resume { ptr, i32 } %.pn.pn
}

declare noundef zeroext i1 @_ZNK8NArchive4NZip5CItem5IsDirEv(ptr noundef nonnull align 8 dereferenceable(179)) local_unnamed_addr #5

declare noundef nonnull align 8 dereferenceable(16) ptr @_ZN8NWindows4NCOM12CPropVariantaSEj(ptr noundef nonnull align 8 dereferenceable(16), i32 noundef) local_unnamed_addr #5

declare noundef nonnull align 8 dereferenceable(16) ptr @_ZN8NWindows4NCOM12CPropVariantaSERK9_FILETIME(ptr noundef nonnull align 8 dereferenceable(16), ptr noundef nonnull align 4 dereferenceable(8)) local_unnamed_addr #5

declare void @_ZN8NWindows5NTime18UnixTimeToFileTimeEjR9_FILETIME(i32 noundef, ptr noundef nonnull align 4 dereferenceable(8)) local_unnamed_addr #5

declare noundef zeroext i1 @_ZN8NWindows5NTime17DosTimeToFileTimeEjR9_FILETIME(i32 noundef, ptr noundef nonnull align 4 dereferenceable(8)) local_unnamed_addr #5

declare i32 @LocalFileTimeToFileTime(ptr noundef, ptr noundef) local_unnamed_addr #5

declare noundef i32 @_ZNK8NArchive4NZip5CItem16GetWinAttributesEv(ptr noundef nonnull align 8 dereferenceable(179)) local_unnamed_addr #5

; Function Attrs: mustprogress uwtable
define linkonce_odr dso_local noundef nonnull align 8 dereferenceable(16) ptr @_ZN11CStringBaseIcEaSEPKc(ptr noundef nonnull align 8 dereferenceable(16) %this, ptr noundef %chars) local_unnamed_addr #8 comdat align 2 {
entry:
  %_length.i = getelementptr inbounds %class.CStringBase.1, ptr %this, i64 0, i32 1
  store i32 0, ptr %_length.i, align 8
  %0 = load ptr, ptr %this, align 8
  store i8 0, ptr %0, align 1
  br label %for.cond.i

for.cond.i:                                       ; preds = %for.cond.i, %entry
  %indvars.iv.i = phi i64 [ %indvars.iv.next.i, %for.cond.i ], [ 0, %entry ]
  %arrayidx.i = getelementptr inbounds i8, ptr %chars, i64 %indvars.iv.i
  %1 = load i8, ptr %arrayidx.i, align 1
  %cmp.not.i = icmp eq i8 %1, 0
  %indvars.iv.next.i = add nuw i64 %indvars.iv.i, 1
  br i1 %cmp.not.i, label %_Z11MyStringLenIcEiPKT_.exit, label %for.cond.i

_Z11MyStringLenIcEiPKT_.exit:                     ; preds = %for.cond.i
  %2 = trunc i64 %indvars.iv.i to i32
  %add.i = add nsw i32 %2, 1
  %_capacity.i = getelementptr inbounds %class.CStringBase.1, ptr %this, i64 0, i32 2
  %3 = load i32, ptr %_capacity.i, align 4
  %cmp.i = icmp eq i32 %add.i, %3
  br i1 %cmp.i, label %_Z11MyStringLenIcEiPKT_.exit._ZN11CStringBaseIcE11SetCapacityEi.exit_crit_edge, label %if.end.i

_Z11MyStringLenIcEiPKT_.exit._ZN11CStringBaseIcE11SetCapacityEi.exit_crit_edge: ; preds = %_Z11MyStringLenIcEiPKT_.exit
  %.pre11 = load ptr, ptr %this, align 8
  br label %while.cond.i.preheader

if.end.i:                                         ; preds = %_Z11MyStringLenIcEiPKT_.exit
  %conv.i = sext i32 %add.i to i64
  %call.i = tail call noalias noundef nonnull ptr @_Znam(i64 noundef %conv.i) #24
  %call.i12 = ptrtoint ptr %call.i to i64
  %cmp3.i = icmp sgt i32 %3, 0
  %.pre10 = load i32, ptr %_length.i, align 8
  br i1 %cmp3.i, label %for.cond.preheader.i, label %if.end9.i

for.cond.preheader.i:                             ; preds = %if.end.i
  %cmp522.i = icmp sgt i32 %.pre10, 0
  %.pre.i = load ptr, ptr %this, align 8
  br i1 %cmp522.i, label %iter.check, label %for.cond.cleanup.i

iter.check:                                       ; preds = %for.cond.preheader.i
  %.pre.i13 = ptrtoint ptr %.pre.i to i64
  %wide.trip.count.i = zext i32 %.pre10 to i64
  %min.iters.check = icmp ult i32 %.pre10, 8
  %4 = sub i64 %call.i12, %.pre.i13
  %diff.check = icmp ult i64 %4, 32
  %or.cond = select i1 %min.iters.check, i1 true, i1 %diff.check
  br i1 %or.cond, label %for.body.i.preheader, label %vector.main.loop.iter.check

vector.main.loop.iter.check:                      ; preds = %iter.check
  %min.iters.check14 = icmp ult i32 %.pre10, 32
  br i1 %min.iters.check14, label %vec.epilog.ph, label %vector.ph

vector.ph:                                        ; preds = %vector.main.loop.iter.check
  %n.vec = and i64 %wide.trip.count.i, 4294967264
  br label %vector.body

vector.body:                                      ; preds = %vector.body, %vector.ph
  %index = phi i64 [ 0, %vector.ph ], [ %index.next, %vector.body ]
  %5 = getelementptr inbounds i8, ptr %.pre.i, i64 %index
  %wide.load = load <16 x i8>, ptr %5, align 1
  %6 = getelementptr inbounds i8, ptr %5, i64 16
  %wide.load15 = load <16 x i8>, ptr %6, align 1
  %7 = getelementptr inbounds i8, ptr %call.i, i64 %index
  store <16 x i8> %wide.load, ptr %7, align 1
  %8 = getelementptr inbounds i8, ptr %7, i64 16
  store <16 x i8> %wide.load15, ptr %8, align 1
  %index.next = add nuw i64 %index, 32
  %9 = icmp eq i64 %index.next, %n.vec
  br i1 %9, label %middle.block, label %vector.body

middle.block:                                     ; preds = %vector.body
  %cmp.n = icmp eq i64 %n.vec, %wide.trip.count.i
  br i1 %cmp.n, label %delete.notnull.i, label %vec.epilog.iter.check

vec.epilog.iter.check:                            ; preds = %middle.block
  %n.vec.remaining = and i64 %wide.trip.count.i, 24
  %min.epilog.iters.check = icmp eq i64 %n.vec.remaining, 0
  br i1 %min.epilog.iters.check, label %for.body.i.preheader, label %vec.epilog.ph

vec.epilog.ph:                                    ; preds = %vector.main.loop.iter.check, %vec.epilog.iter.check
  %vec.epilog.resume.val = phi i64 [ %n.vec, %vec.epilog.iter.check ], [ 0, %vector.main.loop.iter.check ]
  %n.vec17 = and i64 %wide.trip.count.i, 4294967288
  br label %vec.epilog.vector.body

vec.epilog.vector.body:                           ; preds = %vec.epilog.vector.body, %vec.epilog.ph
  %index19 = phi i64 [ %vec.epilog.resume.val, %vec.epilog.ph ], [ %index.next21, %vec.epilog.vector.body ]
  %10 = getelementptr inbounds i8, ptr %.pre.i, i64 %index19
  %wide.load20 = load <8 x i8>, ptr %10, align 1
  %11 = getelementptr inbounds i8, ptr %call.i, i64 %index19
  store <8 x i8> %wide.load20, ptr %11, align 1
  %index.next21 = add nuw i64 %index19, 8
  %12 = icmp eq i64 %index.next21, %n.vec17
  br i1 %12, label %vec.epilog.middle.block, label %vec.epilog.vector.body

vec.epilog.middle.block:                          ; preds = %vec.epilog.vector.body
  %cmp.n18 = icmp eq i64 %n.vec17, %wide.trip.count.i
  br i1 %cmp.n18, label %delete.notnull.i, label %for.body.i.preheader

for.body.i.preheader:                             ; preds = %iter.check, %vec.epilog.iter.check, %vec.epilog.middle.block
  %indvars.iv.i6.ph = phi i64 [ 0, %iter.check ], [ %n.vec, %vec.epilog.iter.check ], [ %n.vec17, %vec.epilog.middle.block ]
  %13 = xor i64 %indvars.iv.i6.ph, -1
  %14 = add nsw i64 %13, %wide.trip.count.i
  %xtraiter = and i64 %wide.trip.count.i, 3
  %lcmp.mod.not = icmp eq i64 %xtraiter, 0
  br i1 %lcmp.mod.not, label %for.body.i.prol.loopexit, label %for.body.i.prol

for.body.i.prol:                                  ; preds = %for.body.i.preheader, %for.body.i.prol
  %indvars.iv.i6.prol = phi i64 [ %indvars.iv.next.i8.prol, %for.body.i.prol ], [ %indvars.iv.i6.ph, %for.body.i.preheader ]
  %prol.iter = phi i64 [ %prol.iter.next, %for.body.i.prol ], [ 0, %for.body.i.preheader ]
  %arrayidx.i7.prol = getelementptr inbounds i8, ptr %.pre.i, i64 %indvars.iv.i6.prol
  %15 = load i8, ptr %arrayidx.i7.prol, align 1
  %arrayidx7.i.prol = getelementptr inbounds i8, ptr %call.i, i64 %indvars.iv.i6.prol
  store i8 %15, ptr %arrayidx7.i.prol, align 1
  %indvars.iv.next.i8.prol = add nuw nsw i64 %indvars.iv.i6.prol, 1
  %prol.iter.next = add i64 %prol.iter, 1
  %prol.iter.cmp.not = icmp eq i64 %prol.iter.next, %xtraiter
  br i1 %prol.iter.cmp.not, label %for.body.i.prol.loopexit, label %for.body.i.prol

for.body.i.prol.loopexit:                         ; preds = %for.body.i.prol, %for.body.i.preheader
  %indvars.iv.i6.unr = phi i64 [ %indvars.iv.i6.ph, %for.body.i.preheader ], [ %indvars.iv.next.i8.prol, %for.body.i.prol ]
  %16 = icmp ult i64 %14, 3
  br i1 %16, label %delete.notnull.i, label %for.body.i

for.cond.cleanup.i:                               ; preds = %for.cond.preheader.i
  %isnull.i = icmp eq ptr %.pre.i, null
  br i1 %isnull.i, label %if.end9.i, label %delete.notnull.i

for.body.i:                                       ; preds = %for.body.i.prol.loopexit, %for.body.i
  %indvars.iv.i6 = phi i64 [ %indvars.iv.next.i8.3, %for.body.i ], [ %indvars.iv.i6.unr, %for.body.i.prol.loopexit ]
  %arrayidx.i7 = getelementptr inbounds i8, ptr %.pre.i, i64 %indvars.iv.i6
  %17 = load i8, ptr %arrayidx.i7, align 1
  %arrayidx7.i = getelementptr inbounds i8, ptr %call.i, i64 %indvars.iv.i6
  store i8 %17, ptr %arrayidx7.i, align 1
  %indvars.iv.next.i8 = add nuw nsw i64 %indvars.iv.i6, 1
  %arrayidx.i7.1 = getelementptr inbounds i8, ptr %.pre.i, i64 %indvars.iv.next.i8
  %18 = load i8, ptr %arrayidx.i7.1, align 1
  %arrayidx7.i.1 = getelementptr inbounds i8, ptr %call.i, i64 %indvars.iv.next.i8
  store i8 %18, ptr %arrayidx7.i.1, align 1
  %indvars.iv.next.i8.1 = add nuw nsw i64 %indvars.iv.i6, 2
  %arrayidx.i7.2 = getelementptr inbounds i8, ptr %.pre.i, i64 %indvars.iv.next.i8.1
  %19 = load i8, ptr %arrayidx.i7.2, align 1
  %arrayidx7.i.2 = getelementptr inbounds i8, ptr %call.i, i64 %indvars.iv.next.i8.1
  store i8 %19, ptr %arrayidx7.i.2, align 1
  %indvars.iv.next.i8.2 = add nuw nsw i64 %indvars.iv.i6, 3
  %arrayidx.i7.3 = getelementptr inbounds i8, ptr %.pre.i, i64 %indvars.iv.next.i8.2
  %20 = load i8, ptr %arrayidx.i7.3, align 1
  %arrayidx7.i.3 = getelementptr inbounds i8, ptr %call.i, i64 %indvars.iv.next.i8.2
  store i8 %20, ptr %arrayidx7.i.3, align 1
  %indvars.iv.next.i8.3 = add nuw nsw i64 %indvars.iv.i6, 4
  %exitcond.not.i.3 = icmp eq i64 %indvars.iv.next.i8.3, %wide.trip.count.i
  br i1 %exitcond.not.i.3, label %delete.notnull.i, label %for.body.i

delete.notnull.i:                                 ; preds = %for.body.i.prol.loopexit, %for.body.i, %middle.block, %vec.epilog.middle.block, %for.cond.cleanup.i
  tail call void @_ZdaPv(ptr noundef nonnull %.pre.i) #23
  %.pre = load i32, ptr %_length.i, align 8
  br label %if.end9.i

if.end9.i:                                        ; preds = %delete.notnull.i, %for.cond.cleanup.i, %if.end.i
  %21 = phi i32 [ %.pre, %delete.notnull.i ], [ %.pre10, %for.cond.cleanup.i ], [ %.pre10, %if.end.i ]
  store ptr %call.i, ptr %this, align 8
  %idxprom13.i = sext i32 %21 to i64
  %arrayidx14.i = getelementptr inbounds i8, ptr %call.i, i64 %idxprom13.i
  store i8 0, ptr %arrayidx14.i, align 1
  store i32 %add.i, ptr %_capacity.i, align 4
  br label %while.cond.i.preheader

while.cond.i.preheader:                           ; preds = %_Z11MyStringLenIcEiPKT_.exit._ZN11CStringBaseIcE11SetCapacityEi.exit_crit_edge, %if.end9.i
  %dest.addr.0.i.ph = phi ptr [ %call.i, %if.end9.i ], [ %.pre11, %_Z11MyStringLenIcEiPKT_.exit._ZN11CStringBaseIcE11SetCapacityEi.exit_crit_edge ]
  br label %while.cond.i

while.cond.i:                                     ; preds = %while.cond.i.preheader, %while.cond.i
  %src.addr.0.i = phi ptr [ %incdec.ptr.i, %while.cond.i ], [ %chars, %while.cond.i.preheader ]
  %dest.addr.0.i = phi ptr [ %incdec.ptr1.i, %while.cond.i ], [ %dest.addr.0.i.ph, %while.cond.i.preheader ]
  %incdec.ptr.i = getelementptr inbounds i8, ptr %src.addr.0.i, i64 1
  %22 = load i8, ptr %src.addr.0.i, align 1
  %incdec.ptr1.i = getelementptr inbounds i8, ptr %dest.addr.0.i, i64 1
  store i8 %22, ptr %dest.addr.0.i, align 1
  %cmp.not.i9 = icmp eq i8 %22, 0
  br i1 %cmp.not.i9, label %_Z12MyStringCopyIcEPT_S1_PKS0_.exit, label %while.cond.i

_Z12MyStringCopyIcEPT_S1_PKS0_.exit:              ; preds = %while.cond.i
  store i32 %2, ptr %_length.i, align 8
  ret ptr %this
}

; Function Attrs: mustprogress uwtable
define linkonce_odr dso_local noundef zeroext i1 @_ZNK8NArchive4NZip11CExtraBlock13GetWzAesFieldERNS0_16CWzAesExtraFieldE(ptr noundef nonnull align 8 dereferenceable(32) %this, ptr noundef nonnull align 2 dereferenceable(6) %aesField) local_unnamed_addr #8 comdat align 2 {
entry:
  %_size.i = getelementptr inbounds %class.CBaseRecordVector, ptr %this, i64 0, i32 2
  %0 = load i32, ptr %_size.i, align 4
  %cmp.not11 = icmp sgt i32 %0, 0
  br i1 %cmp.not11, label %for.body.lr.ph, label %cleanup

for.body.lr.ph:                                   ; preds = %entry
  %_items.i.i = getelementptr inbounds %class.CBaseRecordVector, ptr %this, i64 0, i32 3
  %1 = load ptr, ptr %_items.i.i, align 8
  %2 = zext i32 %0 to i64
  %wide.trip.count = zext i32 %0 to i64
  br label %for.body

for.body:                                         ; preds = %for.body.lr.ph, %for.inc
  %indvars.iv = phi i64 [ 0, %for.body.lr.ph ], [ %indvars.iv.next, %for.inc ]
  %cmp.not13 = phi i1 [ true, %for.body.lr.ph ], [ %cmp.not, %for.inc ]
  %arrayidx.i.i = getelementptr inbounds ptr, ptr %1, i64 %indvars.iv
  %3 = load ptr, ptr %arrayidx.i.i, align 8
  %4 = load i16, ptr %3, align 8
  %cmp.not.i = icmp ne i16 %4, -26367
  %_capacity.i.i = getelementptr inbounds %"struct.NArchive::NZip::CExtraSubBlock", ptr %3, i64 0, i32 1, i32 1
  %5 = load i64, ptr %_capacity.i.i, align 8
  %cmp2.i = icmp ult i64 %5, 7
  %or.cond.i = select i1 %cmp.not.i, i1 true, i1 %cmp2.i
  br i1 %or.cond.i, label %for.inc, label %if.end4.i

if.end4.i:                                        ; preds = %for.body
  %_items.i.i7 = getelementptr inbounds %"struct.NArchive::NZip::CExtraSubBlock", ptr %3, i64 0, i32 1, i32 2
  %6 = load ptr, ptr %_items.i.i7, align 8
  %7 = load i16, ptr %6, align 1
  store i16 %7, ptr %aesField, align 2
  %arrayidx12.i = getelementptr inbounds i8, ptr %6, i64 2
  %8 = load i8, ptr %arrayidx12.i, align 1
  %cmp14.not.i = icmp eq i8 %8, 65
  br i1 %cmp14.not.i, label %lor.lhs.false.i, label %for.inc

lor.lhs.false.i:                                  ; preds = %if.end4.i
  %arrayidx15.i = getelementptr inbounds i8, ptr %6, i64 3
  %9 = load i8, ptr %arrayidx15.i, align 1
  %cmp17.not.i = icmp eq i8 %9, 69
  br i1 %cmp17.not.i, label %_ZN8NArchive4NZip16CWzAesExtraField17ParseFromSubBlockERKNS0_14CExtraSubBlockE.exit, label %for.inc

_ZN8NArchive4NZip16CWzAesExtraField17ParseFromSubBlockERKNS0_14CExtraSubBlockE.exit: ; preds = %lor.lhs.false.i
  %arrayidx20.i = getelementptr inbounds i8, ptr %6, i64 4
  %10 = load i8, ptr %arrayidx20.i, align 1
  %Strength.i = getelementptr inbounds %"struct.NArchive::NZip::CWzAesExtraField", ptr %aesField, i64 0, i32 1
  store i8 %10, ptr %Strength.i, align 2
  %arrayidx25.i = getelementptr inbounds i8, ptr %6, i64 5
  %11 = load i8, ptr %arrayidx25.i, align 1
  %conv28.i = zext i8 %11 to i16
  %Method.i = getelementptr inbounds %"struct.NArchive::NZip::CWzAesExtraField", ptr %aesField, i64 0, i32 2
  store i16 %conv28.i, ptr %Method.i, align 2
  br label %cleanup

for.inc:                                          ; preds = %for.body, %lor.lhs.false.i, %if.end4.i
  %indvars.iv.next = add nuw nsw i64 %indvars.iv, 1
  %cmp.not = icmp ult i64 %indvars.iv.next, %2
  %exitcond.not = icmp eq i64 %indvars.iv.next, %wide.trip.count
  br i1 %exitcond.not, label %cleanup, label %for.body

cleanup:                                          ; preds = %for.inc, %entry, %_ZN8NArchive4NZip16CWzAesExtraField17ParseFromSubBlockERKNS0_14CExtraSubBlockE.exit
  %cmp.not10 = phi i1 [ %cmp.not13, %_ZN8NArchive4NZip16CWzAesExtraField17ParseFromSubBlockERKNS0_14CExtraSubBlockE.exit ], [ false, %entry ], [ %cmp.not, %for.inc ]
  ret i1 %cmp.not10
}

; Function Attrs: mustprogress uwtable
define linkonce_odr dso_local noundef nonnull align 8 dereferenceable(16) ptr @_ZN11CStringBaseIcEpLEc(ptr noundef nonnull align 8 dereferenceable(16) %this, i8 noundef signext %c) local_unnamed_addr #8 comdat align 2 {
entry:
  %_capacity.i = getelementptr inbounds %class.CStringBase.1, ptr %this, i64 0, i32 2
  %0 = load i32, ptr %_capacity.i, align 4
  %_length.i = getelementptr inbounds %class.CStringBase.1, ptr %this, i64 0, i32 1
  %1 = load i32, ptr %_length.i, align 8
  %2 = xor i32 %1, -1
  %sub2.i = add i32 %0, %2
  %cmp.not.i = icmp slt i32 %sub2.i, 1
  br i1 %cmp.not.i, label %if.end.i, label %_ZN11CStringBaseIcE10GrowLengthEi.exit

if.end.i:                                         ; preds = %entry
  %cmp4.i = icmp sgt i32 %0, 64
  %div24.i = lshr i32 %0, 1
  %cmp8.i = icmp sgt i32 %0, 8
  %..i = select i1 %cmp8.i, i32 16, i32 4
  %delta.0.i = select i1 %cmp4.i, i32 %div24.i, i32 %..i
  %add.i = add nsw i32 %delta.0.i, %sub2.i
  %cmp13.i = icmp slt i32 %add.i, 1
  %sub15.i = sub nsw i32 1, %sub2.i
  %delta.1.i = select i1 %cmp13.i, i32 %sub15.i, i32 %delta.0.i
  %add18.i = add i32 %0, 1
  %add.i.i = add i32 %add18.i, %delta.1.i
  %cmp.i.i = icmp eq i32 %add.i.i, %0
  br i1 %cmp.i.i, label %_ZN11CStringBaseIcE10GrowLengthEi.exit, label %if.end.i.i

if.end.i.i:                                       ; preds = %if.end.i
  %conv.i.i = sext i32 %add.i.i to i64
  %call.i.i = tail call noalias noundef nonnull ptr @_Znam(i64 noundef %conv.i.i) #24
  %call.i.i6 = ptrtoint ptr %call.i.i to i64
  %cmp3.i.i = icmp sgt i32 %0, 0
  br i1 %cmp3.i.i, label %for.cond.preheader.i.i, label %if.end9.i.i

for.cond.preheader.i.i:                           ; preds = %if.end.i.i
  %cmp522.i.i = icmp sgt i32 %1, 0
  %.pre.i.i = load ptr, ptr %this, align 8
  br i1 %cmp522.i.i, label %iter.check, label %for.cond.cleanup.i.i

iter.check:                                       ; preds = %for.cond.preheader.i.i
  %.pre.i.i7 = ptrtoint ptr %.pre.i.i to i64
  %wide.trip.count.i.i = zext i32 %1 to i64
  %min.iters.check = icmp ult i32 %1, 8
  %3 = sub i64 %call.i.i6, %.pre.i.i7
  %diff.check = icmp ult i64 %3, 32
  %or.cond = select i1 %min.iters.check, i1 true, i1 %diff.check
  br i1 %or.cond, label %for.body.i.i.preheader, label %vector.main.loop.iter.check

vector.main.loop.iter.check:                      ; preds = %iter.check
  %min.iters.check8 = icmp ult i32 %1, 32
  br i1 %min.iters.check8, label %vec.epilog.ph, label %vector.ph

vector.ph:                                        ; preds = %vector.main.loop.iter.check
  %n.vec = and i64 %wide.trip.count.i.i, 4294967264
  br label %vector.body

vector.body:                                      ; preds = %vector.body, %vector.ph
  %index = phi i64 [ 0, %vector.ph ], [ %index.next, %vector.body ]
  %4 = getelementptr inbounds i8, ptr %.pre.i.i, i64 %index
  %wide.load = load <16 x i8>, ptr %4, align 1
  %5 = getelementptr inbounds i8, ptr %4, i64 16
  %wide.load9 = load <16 x i8>, ptr %5, align 1
  %6 = getelementptr inbounds i8, ptr %call.i.i, i64 %index
  store <16 x i8> %wide.load, ptr %6, align 1
  %7 = getelementptr inbounds i8, ptr %6, i64 16
  store <16 x i8> %wide.load9, ptr %7, align 1
  %index.next = add nuw i64 %index, 32
  %8 = icmp eq i64 %index.next, %n.vec
  br i1 %8, label %middle.block, label %vector.body

middle.block:                                     ; preds = %vector.body
  %cmp.n = icmp eq i64 %n.vec, %wide.trip.count.i.i
  br i1 %cmp.n, label %delete.notnull.i.i, label %vec.epilog.iter.check

vec.epilog.iter.check:                            ; preds = %middle.block
  %n.vec.remaining = and i64 %wide.trip.count.i.i, 24
  %min.epilog.iters.check = icmp eq i64 %n.vec.remaining, 0
  br i1 %min.epilog.iters.check, label %for.body.i.i.preheader, label %vec.epilog.ph

vec.epilog.ph:                                    ; preds = %vector.main.loop.iter.check, %vec.epilog.iter.check
  %vec.epilog.resume.val = phi i64 [ %n.vec, %vec.epilog.iter.check ], [ 0, %vector.main.loop.iter.check ]
  %n.vec11 = and i64 %wide.trip.count.i.i, 4294967288
  br label %vec.epilog.vector.body

vec.epilog.vector.body:                           ; preds = %vec.epilog.vector.body, %vec.epilog.ph
  %index13 = phi i64 [ %vec.epilog.resume.val, %vec.epilog.ph ], [ %index.next15, %vec.epilog.vector.body ]
  %9 = getelementptr inbounds i8, ptr %.pre.i.i, i64 %index13
  %wide.load14 = load <8 x i8>, ptr %9, align 1
  %10 = getelementptr inbounds i8, ptr %call.i.i, i64 %index13
  store <8 x i8> %wide.load14, ptr %10, align 1
  %index.next15 = add nuw i64 %index13, 8
  %11 = icmp eq i64 %index.next15, %n.vec11
  br i1 %11, label %vec.epilog.middle.block, label %vec.epilog.vector.body

vec.epilog.middle.block:                          ; preds = %vec.epilog.vector.body
  %cmp.n12 = icmp eq i64 %n.vec11, %wide.trip.count.i.i
  br i1 %cmp.n12, label %delete.notnull.i.i, label %for.body.i.i.preheader

for.body.i.i.preheader:                           ; preds = %iter.check, %vec.epilog.iter.check, %vec.epilog.middle.block
  %indvars.iv.i.i.ph = phi i64 [ 0, %iter.check ], [ %n.vec, %vec.epilog.iter.check ], [ %n.vec11, %vec.epilog.middle.block ]
  %12 = xor i64 %indvars.iv.i.i.ph, -1
  %13 = add nsw i64 %12, %wide.trip.count.i.i
  %xtraiter = and i64 %wide.trip.count.i.i, 3
  %lcmp.mod.not = icmp eq i64 %xtraiter, 0
  br i1 %lcmp.mod.not, label %for.body.i.i.prol.loopexit, label %for.body.i.i.prol

for.body.i.i.prol:                                ; preds = %for.body.i.i.preheader, %for.body.i.i.prol
  %indvars.iv.i.i.prol = phi i64 [ %indvars.iv.next.i.i.prol, %for.body.i.i.prol ], [ %indvars.iv.i.i.ph, %for.body.i.i.preheader ]
  %prol.iter = phi i64 [ %prol.iter.next, %for.body.i.i.prol ], [ 0, %for.body.i.i.preheader ]
  %arrayidx.i.i.prol = getelementptr inbounds i8, ptr %.pre.i.i, i64 %indvars.iv.i.i.prol
  %14 = load i8, ptr %arrayidx.i.i.prol, align 1
  %arrayidx7.i.i.prol = getelementptr inbounds i8, ptr %call.i.i, i64 %indvars.iv.i.i.prol
  store i8 %14, ptr %arrayidx7.i.i.prol, align 1
  %indvars.iv.next.i.i.prol = add nuw nsw i64 %indvars.iv.i.i.prol, 1
  %prol.iter.next = add i64 %prol.iter, 1
  %prol.iter.cmp.not = icmp eq i64 %prol.iter.next, %xtraiter
  br i1 %prol.iter.cmp.not, label %for.body.i.i.prol.loopexit, label %for.body.i.i.prol

for.body.i.i.prol.loopexit:                       ; preds = %for.body.i.i.prol, %for.body.i.i.preheader
  %indvars.iv.i.i.unr = phi i64 [ %indvars.iv.i.i.ph, %for.body.i.i.preheader ], [ %indvars.iv.next.i.i.prol, %for.body.i.i.prol ]
  %15 = icmp ult i64 %13, 3
  br i1 %15, label %delete.notnull.i.i, label %for.body.i.i

for.cond.cleanup.i.i:                             ; preds = %for.cond.preheader.i.i
  %isnull.i.i = icmp eq ptr %.pre.i.i, null
  br i1 %isnull.i.i, label %if.end9.i.i, label %delete.notnull.i.i

for.body.i.i:                                     ; preds = %for.body.i.i.prol.loopexit, %for.body.i.i
  %indvars.iv.i.i = phi i64 [ %indvars.iv.next.i.i.3, %for.body.i.i ], [ %indvars.iv.i.i.unr, %for.body.i.i.prol.loopexit ]
  %arrayidx.i.i = getelementptr inbounds i8, ptr %.pre.i.i, i64 %indvars.iv.i.i
  %16 = load i8, ptr %arrayidx.i.i, align 1
  %arrayidx7.i.i = getelementptr inbounds i8, ptr %call.i.i, i64 %indvars.iv.i.i
  store i8 %16, ptr %arrayidx7.i.i, align 1
  %indvars.iv.next.i.i = add nuw nsw i64 %indvars.iv.i.i, 1
  %arrayidx.i.i.1 = getelementptr inbounds i8, ptr %.pre.i.i, i64 %indvars.iv.next.i.i
  %17 = load i8, ptr %arrayidx.i.i.1, align 1
  %arrayidx7.i.i.1 = getelementptr inbounds i8, ptr %call.i.i, i64 %indvars.iv.next.i.i
  store i8 %17, ptr %arrayidx7.i.i.1, align 1
  %indvars.iv.next.i.i.1 = add nuw nsw i64 %indvars.iv.i.i, 2
  %arrayidx.i.i.2 = getelementptr inbounds i8, ptr %.pre.i.i, i64 %indvars.iv.next.i.i.1
  %18 = load i8, ptr %arrayidx.i.i.2, align 1
  %arrayidx7.i.i.2 = getelementptr inbounds i8, ptr %call.i.i, i64 %indvars.iv.next.i.i.1
  store i8 %18, ptr %arrayidx7.i.i.2, align 1
  %indvars.iv.next.i.i.2 = add nuw nsw i64 %indvars.iv.i.i, 3
  %arrayidx.i.i.3 = getelementptr inbounds i8, ptr %.pre.i.i, i64 %indvars.iv.next.i.i.2
  %19 = load i8, ptr %arrayidx.i.i.3, align 1
  %arrayidx7.i.i.3 = getelementptr inbounds i8, ptr %call.i.i, i64 %indvars.iv.next.i.i.2
  store i8 %19, ptr %arrayidx7.i.i.3, align 1
  %indvars.iv.next.i.i.3 = add nuw nsw i64 %indvars.iv.i.i, 4
  %exitcond.not.i.i.3 = icmp eq i64 %indvars.iv.next.i.i.3, %wide.trip.count.i.i
  br i1 %exitcond.not.i.i.3, label %delete.notnull.i.i, label %for.body.i.i

delete.notnull.i.i:                               ; preds = %for.body.i.i.prol.loopexit, %for.body.i.i, %middle.block, %vec.epilog.middle.block, %for.cond.cleanup.i.i
  tail call void @_ZdaPv(ptr noundef nonnull %.pre.i.i) #23
  %.pre.i = load i32, ptr %_length.i, align 8
  br label %if.end9.i.i

if.end9.i.i:                                      ; preds = %delete.notnull.i.i, %for.cond.cleanup.i.i, %if.end.i.i
  %20 = phi i32 [ %.pre.i, %delete.notnull.i.i ], [ %1, %for.cond.cleanup.i.i ], [ %1, %if.end.i.i ]
  store ptr %call.i.i, ptr %this, align 8
  %idxprom13.i.i = sext i32 %20 to i64
  %arrayidx14.i.i = getelementptr inbounds i8, ptr %call.i.i, i64 %idxprom13.i.i
  store i8 0, ptr %arrayidx14.i.i, align 1
  store i32 %add.i.i, ptr %_capacity.i, align 4
  br label %_ZN11CStringBaseIcE10GrowLengthEi.exit

_ZN11CStringBaseIcE10GrowLengthEi.exit:           ; preds = %entry, %if.end.i, %if.end9.i.i
  %21 = phi i32 [ %1, %entry ], [ %1, %if.end.i ], [ %20, %if.end9.i.i ]
  %22 = load ptr, ptr %this, align 8
  %idxprom = sext i32 %21 to i64
  %arrayidx = getelementptr inbounds i8, ptr %22, i64 %idxprom
  store i8 %c, ptr %arrayidx, align 1
  %23 = load ptr, ptr %this, align 8
  %24 = load i32, ptr %_length.i, align 8
  %inc = add nsw i32 %24, 1
  store i32 %inc, ptr %_length.i, align 8
  %idxprom4 = sext i32 %inc to i64
  %arrayidx5 = getelementptr inbounds i8, ptr %23, i64 %idxprom4
  store i8 0, ptr %arrayidx5, align 1
  ret ptr %this
}

declare void @_Z21ConvertUInt64ToStringyPcj(i64 noundef, ptr noundef, i32 noundef) local_unnamed_addr #5

; Function Attrs: mustprogress uwtable
define linkonce_odr dso_local noundef nonnull align 8 dereferenceable(16) ptr @_ZN11CStringBaseIcEpLEPKc(ptr noundef nonnull align 8 dereferenceable(16) %this, ptr noundef %s) local_unnamed_addr #8 comdat align 2 {
entry:
  br label %for.cond.i

for.cond.i:                                       ; preds = %for.cond.i, %entry
  %indvars.iv.i = phi i64 [ %indvars.iv.next.i, %for.cond.i ], [ 0, %entry ]
  %arrayidx.i = getelementptr inbounds i8, ptr %s, i64 %indvars.iv.i
  %0 = load i8, ptr %arrayidx.i, align 1
  %cmp.not.i = icmp eq i8 %0, 0
  %indvars.iv.next.i = add nuw i64 %indvars.iv.i, 1
  br i1 %cmp.not.i, label %_Z11MyStringLenIcEiPKT_.exit, label %for.cond.i

_Z11MyStringLenIcEiPKT_.exit:                     ; preds = %for.cond.i
  %1 = trunc i64 %indvars.iv.i to i32
  %_capacity.i = getelementptr inbounds %class.CStringBase.1, ptr %this, i64 0, i32 2
  %2 = load i32, ptr %_capacity.i, align 4
  %_length.i = getelementptr inbounds %class.CStringBase.1, ptr %this, i64 0, i32 1
  %3 = load i32, ptr %_length.i, align 8
  %4 = xor i32 %3, -1
  %sub2.i = add i32 %2, %4
  %cmp.not.i6 = icmp slt i32 %sub2.i, %1
  br i1 %cmp.not.i6, label %if.end.i, label %_ZN11CStringBaseIcE10GrowLengthEi.exit

if.end.i:                                         ; preds = %_Z11MyStringLenIcEiPKT_.exit
  %cmp4.i = icmp sgt i32 %2, 64
  %div24.i = lshr i32 %2, 1
  %cmp8.i = icmp sgt i32 %2, 8
  %..i = select i1 %cmp8.i, i32 16, i32 4
  %delta.0.i = select i1 %cmp4.i, i32 %div24.i, i32 %..i
  %add.i = add nsw i32 %delta.0.i, %sub2.i
  %cmp13.i = icmp slt i32 %add.i, %1
  %sub15.i = sub nsw i32 %1, %sub2.i
  %delta.1.i = select i1 %cmp13.i, i32 %sub15.i, i32 %delta.0.i
  %add18.i = add i32 %2, 1
  %add.i.i = add i32 %add18.i, %delta.1.i
  %cmp.i.i = icmp eq i32 %add.i.i, %2
  br i1 %cmp.i.i, label %_ZN11CStringBaseIcE10GrowLengthEi.exit, label %if.end.i.i

if.end.i.i:                                       ; preds = %if.end.i
  %conv.i.i = sext i32 %add.i.i to i64
  %call.i.i = tail call noalias noundef nonnull ptr @_Znam(i64 noundef %conv.i.i) #24
  %call.i.i8 = ptrtoint ptr %call.i.i to i64
  %cmp3.i.i = icmp sgt i32 %2, 0
  br i1 %cmp3.i.i, label %for.cond.preheader.i.i, label %if.end9.i.i

for.cond.preheader.i.i:                           ; preds = %if.end.i.i
  %cmp522.i.i = icmp sgt i32 %3, 0
  %.pre.i.i = load ptr, ptr %this, align 8
  br i1 %cmp522.i.i, label %iter.check, label %for.cond.cleanup.i.i

iter.check:                                       ; preds = %for.cond.preheader.i.i
  %.pre.i.i9 = ptrtoint ptr %.pre.i.i to i64
  %wide.trip.count.i.i = zext i32 %3 to i64
  %min.iters.check = icmp ult i32 %3, 8
  %5 = sub i64 %call.i.i8, %.pre.i.i9
  %diff.check = icmp ult i64 %5, 32
  %or.cond = select i1 %min.iters.check, i1 true, i1 %diff.check
  br i1 %or.cond, label %for.body.i.i.preheader, label %vector.main.loop.iter.check

vector.main.loop.iter.check:                      ; preds = %iter.check
  %min.iters.check10 = icmp ult i32 %3, 32
  br i1 %min.iters.check10, label %vec.epilog.ph, label %vector.ph

vector.ph:                                        ; preds = %vector.main.loop.iter.check
  %n.vec = and i64 %wide.trip.count.i.i, 4294967264
  br label %vector.body

vector.body:                                      ; preds = %vector.body, %vector.ph
  %index = phi i64 [ 0, %vector.ph ], [ %index.next, %vector.body ]
  %6 = getelementptr inbounds i8, ptr %.pre.i.i, i64 %index
  %wide.load = load <16 x i8>, ptr %6, align 1
  %7 = getelementptr inbounds i8, ptr %6, i64 16
  %wide.load11 = load <16 x i8>, ptr %7, align 1
  %8 = getelementptr inbounds i8, ptr %call.i.i, i64 %index
  store <16 x i8> %wide.load, ptr %8, align 1
  %9 = getelementptr inbounds i8, ptr %8, i64 16
  store <16 x i8> %wide.load11, ptr %9, align 1
  %index.next = add nuw i64 %index, 32
  %10 = icmp eq i64 %index.next, %n.vec
  br i1 %10, label %middle.block, label %vector.body

middle.block:                                     ; preds = %vector.body
  %cmp.n = icmp eq i64 %n.vec, %wide.trip.count.i.i
  br i1 %cmp.n, label %delete.notnull.i.i, label %vec.epilog.iter.check

vec.epilog.iter.check:                            ; preds = %middle.block
  %n.vec.remaining = and i64 %wide.trip.count.i.i, 24
  %min.epilog.iters.check = icmp eq i64 %n.vec.remaining, 0
  br i1 %min.epilog.iters.check, label %for.body.i.i.preheader, label %vec.epilog.ph

vec.epilog.ph:                                    ; preds = %vector.main.loop.iter.check, %vec.epilog.iter.check
  %vec.epilog.resume.val = phi i64 [ %n.vec, %vec.epilog.iter.check ], [ 0, %vector.main.loop.iter.check ]
  %n.vec13 = and i64 %wide.trip.count.i.i, 4294967288
  br label %vec.epilog.vector.body

vec.epilog.vector.body:                           ; preds = %vec.epilog.vector.body, %vec.epilog.ph
  %index15 = phi i64 [ %vec.epilog.resume.val, %vec.epilog.ph ], [ %index.next17, %vec.epilog.vector.body ]
  %11 = getelementptr inbounds i8, ptr %.pre.i.i, i64 %index15
  %wide.load16 = load <8 x i8>, ptr %11, align 1
  %12 = getelementptr inbounds i8, ptr %call.i.i, i64 %index15
  store <8 x i8> %wide.load16, ptr %12, align 1
  %index.next17 = add nuw i64 %index15, 8
  %13 = icmp eq i64 %index.next17, %n.vec13
  br i1 %13, label %vec.epilog.middle.block, label %vec.epilog.vector.body

vec.epilog.middle.block:                          ; preds = %vec.epilog.vector.body
  %cmp.n14 = icmp eq i64 %n.vec13, %wide.trip.count.i.i
  br i1 %cmp.n14, label %delete.notnull.i.i, label %for.body.i.i.preheader

for.body.i.i.preheader:                           ; preds = %iter.check, %vec.epilog.iter.check, %vec.epilog.middle.block
  %indvars.iv.i.i.ph = phi i64 [ 0, %iter.check ], [ %n.vec, %vec.epilog.iter.check ], [ %n.vec13, %vec.epilog.middle.block ]
  %14 = xor i64 %indvars.iv.i.i.ph, -1
  %15 = add nsw i64 %14, %wide.trip.count.i.i
  %xtraiter = and i64 %wide.trip.count.i.i, 3
  %lcmp.mod.not = icmp eq i64 %xtraiter, 0
  br i1 %lcmp.mod.not, label %for.body.i.i.prol.loopexit, label %for.body.i.i.prol

for.body.i.i.prol:                                ; preds = %for.body.i.i.preheader, %for.body.i.i.prol
  %indvars.iv.i.i.prol = phi i64 [ %indvars.iv.next.i.i.prol, %for.body.i.i.prol ], [ %indvars.iv.i.i.ph, %for.body.i.i.preheader ]
  %prol.iter = phi i64 [ %prol.iter.next, %for.body.i.i.prol ], [ 0, %for.body.i.i.preheader ]
  %arrayidx.i.i.prol = getelementptr inbounds i8, ptr %.pre.i.i, i64 %indvars.iv.i.i.prol
  %16 = load i8, ptr %arrayidx.i.i.prol, align 1
  %arrayidx7.i.i.prol = getelementptr inbounds i8, ptr %call.i.i, i64 %indvars.iv.i.i.prol
  store i8 %16, ptr %arrayidx7.i.i.prol, align 1
  %indvars.iv.next.i.i.prol = add nuw nsw i64 %indvars.iv.i.i.prol, 1
  %prol.iter.next = add i64 %prol.iter, 1
  %prol.iter.cmp.not = icmp eq i64 %prol.iter.next, %xtraiter
  br i1 %prol.iter.cmp.not, label %for.body.i.i.prol.loopexit, label %for.body.i.i.prol

for.body.i.i.prol.loopexit:                       ; preds = %for.body.i.i.prol, %for.body.i.i.preheader
  %indvars.iv.i.i.unr = phi i64 [ %indvars.iv.i.i.ph, %for.body.i.i.preheader ], [ %indvars.iv.next.i.i.prol, %for.body.i.i.prol ]
  %17 = icmp ult i64 %15, 3
  br i1 %17, label %delete.notnull.i.i, label %for.body.i.i

for.cond.cleanup.i.i:                             ; preds = %for.cond.preheader.i.i
  %isnull.i.i = icmp eq ptr %.pre.i.i, null
  br i1 %isnull.i.i, label %if.end9.i.i, label %delete.notnull.i.i

for.body.i.i:                                     ; preds = %for.body.i.i.prol.loopexit, %for.body.i.i
  %indvars.iv.i.i = phi i64 [ %indvars.iv.next.i.i.3, %for.body.i.i ], [ %indvars.iv.i.i.unr, %for.body.i.i.prol.loopexit ]
  %arrayidx.i.i = getelementptr inbounds i8, ptr %.pre.i.i, i64 %indvars.iv.i.i
  %18 = load i8, ptr %arrayidx.i.i, align 1
  %arrayidx7.i.i = getelementptr inbounds i8, ptr %call.i.i, i64 %indvars.iv.i.i
  store i8 %18, ptr %arrayidx7.i.i, align 1
  %indvars.iv.next.i.i = add nuw nsw i64 %indvars.iv.i.i, 1
  %arrayidx.i.i.1 = getelementptr inbounds i8, ptr %.pre.i.i, i64 %indvars.iv.next.i.i
  %19 = load i8, ptr %arrayidx.i.i.1, align 1
  %arrayidx7.i.i.1 = getelementptr inbounds i8, ptr %call.i.i, i64 %indvars.iv.next.i.i
  store i8 %19, ptr %arrayidx7.i.i.1, align 1
  %indvars.iv.next.i.i.1 = add nuw nsw i64 %indvars.iv.i.i, 2
  %arrayidx.i.i.2 = getelementptr inbounds i8, ptr %.pre.i.i, i64 %indvars.iv.next.i.i.1
  %20 = load i8, ptr %arrayidx.i.i.2, align 1
  %arrayidx7.i.i.2 = getelementptr inbounds i8, ptr %call.i.i, i64 %indvars.iv.next.i.i.1
  store i8 %20, ptr %arrayidx7.i.i.2, align 1
  %indvars.iv.next.i.i.2 = add nuw nsw i64 %indvars.iv.i.i, 3
  %arrayidx.i.i.3 = getelementptr inbounds i8, ptr %.pre.i.i, i64 %indvars.iv.next.i.i.2
  %21 = load i8, ptr %arrayidx.i.i.3, align 1
  %arrayidx7.i.i.3 = getelementptr inbounds i8, ptr %call.i.i, i64 %indvars.iv.next.i.i.2
  store i8 %21, ptr %arrayidx7.i.i.3, align 1
  %indvars.iv.next.i.i.3 = add nuw nsw i64 %indvars.iv.i.i, 4
  %exitcond.not.i.i.3 = icmp eq i64 %indvars.iv.next.i.i.3, %wide.trip.count.i.i
  br i1 %exitcond.not.i.i.3, label %delete.notnull.i.i, label %for.body.i.i

delete.notnull.i.i:                               ; preds = %for.body.i.i.prol.loopexit, %for.body.i.i, %middle.block, %vec.epilog.middle.block, %for.cond.cleanup.i.i
  tail call void @_ZdaPv(ptr noundef nonnull %.pre.i.i) #23
  %.pre.i = load i32, ptr %_length.i, align 8
  br label %if.end9.i.i

if.end9.i.i:                                      ; preds = %delete.notnull.i.i, %for.cond.cleanup.i.i, %if.end.i.i
  %22 = phi i32 [ %.pre.i, %delete.notnull.i.i ], [ %3, %for.cond.cleanup.i.i ], [ %3, %if.end.i.i ]
  store ptr %call.i.i, ptr %this, align 8
  %idxprom13.i.i = sext i32 %22 to i64
  %arrayidx14.i.i = getelementptr inbounds i8, ptr %call.i.i, i64 %idxprom13.i.i
  store i8 0, ptr %arrayidx14.i.i, align 1
  store i32 %add.i.i, ptr %_capacity.i, align 4
  br label %_ZN11CStringBaseIcE10GrowLengthEi.exit

_ZN11CStringBaseIcE10GrowLengthEi.exit:           ; preds = %_Z11MyStringLenIcEiPKT_.exit, %if.end.i, %if.end9.i.i
  %23 = phi i32 [ %3, %_Z11MyStringLenIcEiPKT_.exit ], [ %3, %if.end.i ], [ %22, %if.end9.i.i ]
  %24 = load ptr, ptr %this, align 8
  %idx.ext = sext i32 %23 to i64
  %add.ptr = getelementptr inbounds i8, ptr %24, i64 %idx.ext
  br label %while.cond.i

while.cond.i:                                     ; preds = %while.cond.i, %_ZN11CStringBaseIcE10GrowLengthEi.exit
  %src.addr.0.i = phi ptr [ %s, %_ZN11CStringBaseIcE10GrowLengthEi.exit ], [ %incdec.ptr.i, %while.cond.i ]
  %dest.addr.0.i = phi ptr [ %add.ptr, %_ZN11CStringBaseIcE10GrowLengthEi.exit ], [ %incdec.ptr1.i, %while.cond.i ]
  %incdec.ptr.i = getelementptr inbounds i8, ptr %src.addr.0.i, i64 1
  %25 = load i8, ptr %src.addr.0.i, align 1
  %incdec.ptr1.i = getelementptr inbounds i8, ptr %dest.addr.0.i, i64 1
  store i8 %25, ptr %dest.addr.0.i, align 1
  %cmp.not.i7 = icmp eq i8 %25, 0
  br i1 %cmp.not.i7, label %_Z12MyStringCopyIcEPT_S1_PKS0_.exit, label %while.cond.i

_Z12MyStringCopyIcEPT_S1_PKS0_.exit:              ; preds = %while.cond.i
  %26 = load i32, ptr %_length.i, align 8
  %add = add nsw i32 %26, %1
  store i32 %add, ptr %_length.i, align 8
  ret ptr %this
}

; Function Attrs: mustprogress uwtable
define linkonce_odr dso_local noundef zeroext i1 @_ZNK8NArchive4NZip11CExtraBlock20GetStrongCryptoFieldERNS0_18CStrongCryptoFieldE(ptr noundef nonnull align 8 dereferenceable(32) %this, ptr noundef nonnull align 2 dereferenceable(8) %f) local_unnamed_addr #8 comdat align 2 {
entry:
  %_size.i = getelementptr inbounds %class.CBaseRecordVector, ptr %this, i64 0, i32 2
  %0 = load i32, ptr %_size.i, align 4
  %cmp.not9 = icmp sgt i32 %0, 0
  br i1 %cmp.not9, label %for.body.lr.ph, label %cleanup

for.body.lr.ph:                                   ; preds = %entry
  %_items.i.i = getelementptr inbounds %class.CBaseRecordVector, ptr %this, i64 0, i32 3
  %1 = load ptr, ptr %_items.i.i, align 8
  %AlgId.i = getelementptr inbounds %"struct.NArchive::NZip::CStrongCryptoField", ptr %f, i64 0, i32 1
  %BitLen.i = getelementptr inbounds %"struct.NArchive::NZip::CStrongCryptoField", ptr %f, i64 0, i32 2
  %Flags.i = getelementptr inbounds %"struct.NArchive::NZip::CStrongCryptoField", ptr %f, i64 0, i32 3
  %2 = zext i32 %0 to i64
  %wide.trip.count = zext i32 %0 to i64
  br label %for.body

for.body:                                         ; preds = %for.body.lr.ph, %for.inc
  %indvars.iv = phi i64 [ 0, %for.body.lr.ph ], [ %indvars.iv.next, %for.inc ]
  %cmp.not11 = phi i1 [ true, %for.body.lr.ph ], [ %cmp.not, %for.inc ]
  %arrayidx.i.i = getelementptr inbounds ptr, ptr %1, i64 %indvars.iv
  %3 = load ptr, ptr %arrayidx.i.i, align 8
  %4 = load i16, ptr %3, align 8
  %cmp.not.i = icmp ne i16 %4, 23
  %_capacity.i.i = getelementptr inbounds %"struct.NArchive::NZip::CExtraSubBlock", ptr %3, i64 0, i32 1, i32 1
  %5 = load i64, ptr %_capacity.i.i, align 8
  %cmp4.i = icmp ult i64 %5, 8
  %or.cond.i = select i1 %cmp.not.i, i1 true, i1 %cmp4.i
  br i1 %or.cond.i, label %for.inc, label %_ZN8NArchive4NZip18CStrongCryptoField17ParseFromSubBlockERKNS0_14CExtraSubBlockE.exit

_ZN8NArchive4NZip18CStrongCryptoField17ParseFromSubBlockERKNS0_14CExtraSubBlockE.exit: ; preds = %for.body
  %_items.i.i7 = getelementptr inbounds %"struct.NArchive::NZip::CExtraSubBlock", ptr %3, i64 0, i32 1, i32 2
  %6 = load ptr, ptr %_items.i.i7, align 8
  %arrayidx.i = getelementptr inbounds i8, ptr %6, i64 1
  %7 = load i8, ptr %arrayidx.i, align 1
  %conv8.i = zext i8 %7 to i16
  %shl.i = shl nuw i16 %conv8.i, 8
  %8 = load i8, ptr %6, align 1
  %conv10.i = zext i8 %8 to i16
  %or.i = or i16 %shl.i, %conv10.i
  store i16 %or.i, ptr %f, align 2
  %9 = getelementptr i8, ptr %6, i64 2
  %10 = load i16, ptr %9, align 1
  store i16 %10, ptr %AlgId.i, align 2
  %11 = getelementptr i8, ptr %6, i64 4
  %12 = load i16, ptr %11, align 1
  store i16 %12, ptr %BitLen.i, align 2
  %13 = getelementptr i8, ptr %6, i64 6
  %14 = load i16, ptr %13, align 1
  store i16 %14, ptr %Flags.i, align 2
  %cmp38.i = icmp eq i16 %or.i, 2
  br i1 %cmp38.i, label %cleanup, label %for.inc

for.inc:                                          ; preds = %for.body, %_ZN8NArchive4NZip18CStrongCryptoField17ParseFromSubBlockERKNS0_14CExtraSubBlockE.exit
  %indvars.iv.next = add nuw nsw i64 %indvars.iv, 1
  %cmp.not = icmp ult i64 %indvars.iv.next, %2
  %exitcond.not = icmp eq i64 %indvars.iv.next, %wide.trip.count
  br i1 %exitcond.not, label %cleanup, label %for.body

cleanup:                                          ; preds = %for.inc, %_ZN8NArchive4NZip18CStrongCryptoField17ParseFromSubBlockERKNS0_14CExtraSubBlockE.exit, %entry
  %cmp.not.lcssa = phi i1 [ false, %entry ], [ %cmp.not11, %_ZN8NArchive4NZip18CStrongCryptoField17ParseFromSubBlockERKNS0_14CExtraSubBlockE.exit ], [ %cmp.not, %for.inc ]
  ret i1 %cmp.not.lcssa
}

declare noundef nonnull align 8 dereferenceable(16) ptr @_ZN8NWindows4NCOM12CPropVariantaSEPKc(ptr noundef nonnull align 8 dereferenceable(16), ptr noundef) local_unnamed_addr #5

; Function Attrs: mustprogress uwtable
define dso_local noundef i32 @_ZN8NArchive4NZip12CProgressImp8SetTotalEy(ptr nocapture noundef nonnull readonly align 8 dereferenceable(16) %this, i64 noundef %numFiles) unnamed_addr #8 align 2 {
entry:
  %numFiles.addr = alloca i64, align 8
  store i64 %numFiles, ptr %numFiles.addr, align 8
  %_callback = getelementptr inbounds %"class.NArchive::NZip::CProgressImp", ptr %this, i64 0, i32 1
  %0 = load ptr, ptr %_callback, align 8
  %tobool.not = icmp eq ptr %0, null
  br i1 %tobool.not, label %return, label %if.then

if.then:                                          ; preds = %entry
  %vtable = load ptr, ptr %0, align 8
  %vfn = getelementptr inbounds ptr, ptr %vtable, i64 5
  %1 = load ptr, ptr %vfn, align 8
  %call4 = call noundef i32 %1(ptr noundef nonnull align 8 dereferenceable(8) %0, ptr noundef nonnull %numFiles.addr, ptr noundef null)
  br label %return

return:                                           ; preds = %entry, %if.then
  %retval.0 = phi i32 [ %call4, %if.then ], [ 0, %entry ]
  ret i32 %retval.0
}

; Function Attrs: mustprogress uwtable
define dso_local noundef i32 @_ZN8NArchive4NZip12CProgressImp12SetCompletedEy(ptr nocapture noundef nonnull readonly align 8 dereferenceable(16) %this, i64 noundef %numFiles) unnamed_addr #8 align 2 {
entry:
  %numFiles.addr = alloca i64, align 8
  store i64 %numFiles, ptr %numFiles.addr, align 8
  %_callback = getelementptr inbounds %"class.NArchive::NZip::CProgressImp", ptr %this, i64 0, i32 1
  %0 = load ptr, ptr %_callback, align 8
  %tobool.not = icmp eq ptr %0, null
  br i1 %tobool.not, label %return, label %if.then

if.then:                                          ; preds = %entry
  %vtable = load ptr, ptr %0, align 8
  %vfn = getelementptr inbounds ptr, ptr %vtable, i64 6
  %1 = load ptr, ptr %vfn, align 8
  %call4 = call noundef i32 %1(ptr noundef nonnull align 8 dereferenceable(8) %0, ptr noundef nonnull %numFiles.addr, ptr noundef null)
  br label %return

return:                                           ; preds = %entry, %if.then
  %retval.0 = phi i32 [ %call4, %if.then ], [ 0, %entry ]
  ret i32 %retval.0
}

; Function Attrs: uwtable
define dso_local noundef i32 @_ZN8NArchive4NZip8CHandler4OpenEP9IInStreamPKyP20IArchiveOpenCallback(ptr noundef nonnull align 8 dereferenceable(256) %this, ptr noundef %inStream, ptr noundef %maxCheckStartPosition, ptr noundef %callback) unnamed_addr #0 align 2 personality ptr @__gxx_personality_v0 {
entry:
  %progressImp = alloca %"class.NArchive::NZip::CProgressImp", align 8
  %vtable = load ptr, ptr %this, align 8
  %vfn = getelementptr inbounds ptr, ptr %vtable, i64 6
  %0 = load ptr, ptr %vfn, align 8
  %call = invoke noundef i32 %0(ptr noundef nonnull align 8 dereferenceable(256) %this)
          to label %invoke.cont unwind label %lpad

invoke.cont:                                      ; preds = %entry
  %vtable2 = load ptr, ptr %inStream, align 8
  %vfn3 = getelementptr inbounds ptr, ptr %vtable2, i64 6
  %1 = load ptr, ptr %vfn3, align 8
  %call6 = invoke noundef i32 %1(ptr noundef nonnull align 8 dereferenceable(8) %inStream, i64 noundef 0, i32 noundef 0, ptr noundef null)
          to label %invoke.cont5 unwind label %lpad4

invoke.cont5:                                     ; preds = %invoke.cont
  %cmp.not.not = icmp eq i32 %call6, 0
  br i1 %cmp.not.not, label %cleanup.cont, label %return

lpad:                                             ; preds = %entry
  %2 = landingpad { ptr, i32 }
          catch ptr @_ZTIN8NArchive4NZip19CInArchiveExceptionE
          catch ptr null
  br label %catch.dispatch

lpad4:                                            ; preds = %invoke.cont
  %3 = landingpad { ptr, i32 }
          catch ptr @_ZTIN8NArchive4NZip19CInArchiveExceptionE
          catch ptr null
  br label %catch.dispatch

cleanup.cont:                                     ; preds = %invoke.cont5
  %m_Archive = getelementptr inbounds %"class.NArchive::NZip::CHandler", ptr %this, i64 0, i32 5
  %call10 = invoke noundef i32 @_ZN8NArchive4NZip10CInArchive4OpenEP9IInStreamPKy(ptr noundef nonnull align 8 dereferenceable(138) %m_Archive, ptr noundef nonnull %inStream, ptr noundef %maxCheckStartPosition)
          to label %invoke.cont9 unwind label %lpad8

invoke.cont9:                                     ; preds = %cleanup.cont
  %cmp11.not.not = icmp eq i32 %call10, 0
  br i1 %cmp11.not.not, label %cleanup.cont16, label %return

lpad8:                                            ; preds = %cleanup.cont
  %4 = landingpad { ptr, i32 }
          catch ptr @_ZTIN8NArchive4NZip19CInArchiveExceptionE
          catch ptr null
  br label %catch.dispatch

cleanup.cont16:                                   ; preds = %invoke.cont9
  call void @llvm.lifetime.start.p0(i64 16, ptr nonnull %progressImp) #22
  store ptr getelementptr inbounds ({ [4 x ptr] }, ptr @_ZTVN8NArchive4NZip12CProgressImpE, i64 0, inrange i32 0, i64 2), ptr %progressImp, align 8
  %_callback.i = getelementptr inbounds %"class.NArchive::NZip::CProgressImp", ptr %progressImp, i64 0, i32 1
  store ptr %callback, ptr %_callback.i, align 8
  %cmp.not.i.i = icmp eq ptr %callback, null
  br i1 %cmp.not.i.i, label %invoke.cont18, label %if.then.i.i

if.then.i.i:                                      ; preds = %cleanup.cont16
  %vtable.i.i = load ptr, ptr %callback, align 8
  %vfn.i.i = getelementptr inbounds ptr, ptr %vtable.i.i, i64 1
  %5 = load ptr, ptr %vfn.i.i, align 8
  %call.i.i73 = invoke noundef i32 %5(ptr noundef nonnull align 8 dereferenceable(8) %callback)
          to label %invoke.cont18 unwind label %lpad17

invoke.cont18:                                    ; preds = %cleanup.cont16, %if.then.i.i
  %m_Items = getelementptr inbounds %"class.NArchive::NZip::CHandler", ptr %this, i64 0, i32 4
  %call22 = invoke noundef i32 @_ZN8NArchive4NZip10CInArchive11ReadHeadersER13CObjectVectorINS0_7CItemExEEPNS0_13CProgressVirtE(ptr noundef nonnull align 8 dereferenceable(138) %m_Archive, ptr noundef nonnull align 8 dereferenceable(32) %m_Items, ptr noundef nonnull %progressImp)
          to label %invoke.cont21 unwind label %lpad20

invoke.cont21:                                    ; preds = %invoke.cont18
  store ptr getelementptr inbounds ({ [4 x ptr] }, ptr @_ZTVN8NArchive4NZip12CProgressImpE, i64 0, inrange i32 0, i64 2), ptr %progressImp, align 8
  %6 = load ptr, ptr %_callback.i, align 8
  %tobool.not.i.i = icmp eq ptr %6, null
  br i1 %tobool.not.i.i, label %_ZN8NArchive4NZip12CProgressImpD2Ev.exit, label %if.then.i.i75

if.then.i.i75:                                    ; preds = %invoke.cont21
  %vtable.i.i76 = load ptr, ptr %6, align 8
  %vfn.i.i77 = getelementptr inbounds ptr, ptr %vtable.i.i76, i64 2
  %7 = load ptr, ptr %vfn.i.i77, align 8
  %call.i.i = invoke noundef i32 %7(ptr noundef nonnull align 8 dereferenceable(8) %6)
          to label %_ZN8NArchive4NZip12CProgressImpD2Ev.exit unwind label %terminate.lpad.i.i

terminate.lpad.i.i:                               ; preds = %if.then.i.i75
  %8 = landingpad { ptr, i32 }
          catch ptr null
  %9 = extractvalue { ptr, i32 } %8, 0
  call void @__clang_call_terminate(ptr %9) #21
  unreachable

_ZN8NArchive4NZip12CProgressImpD2Ev.exit:         ; preds = %invoke.cont21, %if.then.i.i75
  call void @llvm.lifetime.end.p0(i64 16, ptr nonnull %progressImp) #22
  br label %return

lpad17:                                           ; preds = %if.then.i.i
  %10 = landingpad { ptr, i32 }
          catch ptr @_ZTIN8NArchive4NZip19CInArchiveExceptionE
          catch ptr null
  br label %ehcleanup

lpad20:                                           ; preds = %invoke.cont18
  %11 = landingpad { ptr, i32 }
          catch ptr @_ZTIN8NArchive4NZip19CInArchiveExceptionE
          catch ptr null
  store ptr getelementptr inbounds ({ [4 x ptr] }, ptr @_ZTVN8NArchive4NZip12CProgressImpE, i64 0, inrange i32 0, i64 2), ptr %progressImp, align 8
  %12 = load ptr, ptr %_callback.i, align 8
  %tobool.not.i.i79 = icmp eq ptr %12, null
  br i1 %tobool.not.i.i79, label %ehcleanup, label %if.then.i.i80

if.then.i.i80:                                    ; preds = %lpad20
  %vtable.i.i81 = load ptr, ptr %12, align 8
  %vfn.i.i82 = getelementptr inbounds ptr, ptr %vtable.i.i81, i64 2
  %13 = load ptr, ptr %vfn.i.i82, align 8
  %call.i.i83 = invoke noundef i32 %13(ptr noundef nonnull align 8 dereferenceable(8) %12)
          to label %ehcleanup unwind label %terminate.lpad.i.i84

terminate.lpad.i.i84:                             ; preds = %if.then.i.i80
  %14 = landingpad { ptr, i32 }
          catch ptr null
  %15 = extractvalue { ptr, i32 } %14, 0
  call void @__clang_call_terminate(ptr %15) #21
  unreachable

ehcleanup:                                        ; preds = %if.then.i.i80, %lpad20, %lpad17
  %.pn = phi { ptr, i32 } [ %10, %lpad17 ], [ %11, %lpad20 ], [ %11, %if.then.i.i80 ]
  call void @llvm.lifetime.end.p0(i64 16, ptr nonnull %progressImp) #22
  br label %catch.dispatch

catch.dispatch:                                   ; preds = %ehcleanup, %lpad8, %lpad4, %lpad
  %.pn.pn = phi { ptr, i32 } [ %.pn, %ehcleanup ], [ %4, %lpad8 ], [ %3, %lpad4 ], [ %2, %lpad ]
  %exn.slot.1 = extractvalue { ptr, i32 } %.pn.pn, 0
  %ehselector.slot.1 = extractvalue { ptr, i32 } %.pn.pn, 1
  %16 = call i32 @llvm.eh.typeid.for(ptr nonnull @_ZTIN8NArchive4NZip19CInArchiveExceptionE) #22
  %matches = icmp eq i32 %ehselector.slot.1, %16
  %17 = call ptr @__cxa_begin_catch(ptr %exn.slot.1) #22
  %vtable34 = load ptr, ptr %this, align 8
  %vfn35 = getelementptr inbounds ptr, ptr %vtable34, i64 6
  %18 = load ptr, ptr %vfn35, align 8
  br i1 %matches, label %catch32, label %catch

catch32:                                          ; preds = %catch.dispatch
  %call38 = invoke noundef i32 %18(ptr noundef nonnull align 8 dereferenceable(256) %this)
          to label %invoke.cont37 unwind label %lpad36

invoke.cont37:                                    ; preds = %catch32
  invoke void @__cxa_end_catch()
          to label %return unwind label %lpad40

catch:                                            ; preds = %catch.dispatch
  %call29 = invoke noundef i32 %18(ptr noundef nonnull align 8 dereferenceable(256) %this)
          to label %invoke.cont28 unwind label %lpad27

invoke.cont28:                                    ; preds = %catch
  invoke void @__cxa_rethrow() #25
          to label %unreachable unwind label %lpad27

lpad27:                                           ; preds = %invoke.cont28, %catch
  %19 = landingpad { ptr, i32 }
          catch ptr @_ZTIPKc
          catch ptr null
  invoke void @__cxa_end_catch()
          to label %catch.dispatch46 unwind label %terminate.lpad

lpad36:                                           ; preds = %catch32
  %20 = landingpad { ptr, i32 }
          catch ptr @_ZTIPKc
          catch ptr null
  invoke void @__cxa_end_catch()
          to label %catch.dispatch46 unwind label %terminate.lpad

lpad40:                                           ; preds = %invoke.cont37
  %21 = landingpad { ptr, i32 }
          catch ptr @_ZTIPKc
          catch ptr null
  br label %catch.dispatch46

catch.dispatch46:                                 ; preds = %lpad40, %lpad36, %lpad27
  %.pn69.pn = phi { ptr, i32 } [ %19, %lpad27 ], [ %21, %lpad40 ], [ %20, %lpad36 ]
  %exn.slot.3 = extractvalue { ptr, i32 } %.pn69.pn, 0
  %ehselector.slot.3 = extractvalue { ptr, i32 } %.pn69.pn, 1
  %22 = call i32 @llvm.eh.typeid.for(ptr nonnull @_ZTIPKc) #22
  %matches48 = icmp eq i32 %ehselector.slot.3, %22
  %23 = call ptr @__cxa_begin_catch(ptr %exn.slot.3) #22
  br i1 %matches48, label %catch52, label %catch49

catch52:                                          ; preds = %catch.dispatch46
  %exception = call ptr @__cxa_allocate_exception(i64 8) #22
  store ptr %23, ptr %exception, align 16
  invoke void @__cxa_throw(ptr nonnull %exception, ptr nonnull @_ZTIPKc, ptr null) #25
          to label %unreachable unwind label %lpad54

catch49:                                          ; preds = %catch.dispatch46
  call void @__cxa_end_catch()
  br label %return

lpad54:                                           ; preds = %catch52
  %24 = landingpad { ptr, i32 }
          cleanup
  call void @__cxa_end_catch() #22
  resume { ptr, i32 } %24

return:                                           ; preds = %invoke.cont9, %invoke.cont5, %invoke.cont37, %catch49, %_ZN8NArchive4NZip12CProgressImpD2Ev.exit
  %retval.2 = phi i32 [ %call6, %invoke.cont5 ], [ %call10, %invoke.cont9 ], [ %call22, %_ZN8NArchive4NZip12CProgressImpD2Ev.exit ], [ -2147024882, %catch49 ], [ 1, %invoke.cont37 ]
  ret i32 %retval.2

terminate.lpad:                                   ; preds = %lpad36, %lpad27
  %25 = landingpad { ptr, i32 }
          catch ptr null
  %26 = extractvalue { ptr, i32 } %25, 0
  call void @__clang_call_terminate(ptr %26) #21
  unreachable

unreachable:                                      ; preds = %catch52, %invoke.cont28
  unreachable
}

declare noundef i32 @_ZN8NArchive4NZip10CInArchive4OpenEP9IInStreamPKy(ptr noundef nonnull align 8 dereferenceable(138), ptr noundef, ptr noundef) local_unnamed_addr #5

declare noundef i32 @_ZN8NArchive4NZip10CInArchive11ReadHeadersER13CObjectVectorINS0_7CItemExEEPNS0_13CProgressVirtE(ptr noundef nonnull align 8 dereferenceable(138), ptr noundef nonnull align 8 dereferenceable(32), ptr noundef) local_unnamed_addr #5

declare void @__cxa_rethrow() local_unnamed_addr

; Function Attrs: noinline noreturn nounwind uwtable
define linkonce_odr hidden void @__clang_call_terminate(ptr noundef %0) local_unnamed_addr #9 comdat {
  %2 = tail call ptr @__cxa_begin_catch(ptr %0) #22
  tail call void @_ZSt9terminatev() #21
  unreachable
}

declare void @_ZSt9terminatev() local_unnamed_addr

; Function Attrs: mustprogress uwtable
define dso_local noundef i32 @_ZN8NArchive4NZip8CHandler5CloseEv(ptr noundef nonnull align 8 dereferenceable(256) %this) unnamed_addr #8 align 2 {
entry:
  %m_Items = getelementptr inbounds %"class.NArchive::NZip::CHandler", ptr %this, i64 0, i32 4
  tail call void @_ZN17CBaseRecordVector5ClearEv(ptr noundef nonnull align 8 dereferenceable(32) %m_Items)
  %m_Archive = getelementptr inbounds %"class.NArchive::NZip::CHandler", ptr %this, i64 0, i32 5
  tail call void @_ZN8NArchive4NZip10CInArchive5CloseEv(ptr noundef nonnull align 8 dereferenceable(138) %m_Archive)
  ret i32 0
}

declare void @_ZN17CBaseRecordVector5ClearEv(ptr noundef nonnull align 8 dereferenceable(32)) local_unnamed_addr #5

declare void @_ZN8NArchive4NZip10CInArchive5CloseEv(ptr noundef nonnull align 8 dereferenceable(138)) local_unnamed_addr #5

; Function Attrs: uwtable
define dso_local void @_ZN8NArchive4NZip12CLzmaDecoderC2Ev(ptr nocapture noundef nonnull align 8 dereferenceable(32) %this) unnamed_addr #0 align 2 personality ptr @__gxx_personality_v0 {
entry:
  %0 = getelementptr inbounds i8, ptr %this, i64 8
  store i32 0, ptr %0, align 8
  store ptr getelementptr inbounds ({ [8 x ptr] }, ptr @_ZTVN8NArchive4NZip12CLzmaDecoderE, i64 0, inrange i32 0, i64 2), ptr %this, align 8
  %Decoder = getelementptr inbounds %"class.NArchive::NZip::CLzmaDecoder", ptr %this, i64 0, i32 3
  store ptr null, ptr %Decoder, align 8
  %call = invoke noalias noundef nonnull dereferenceable(280) ptr @_Znwm(i64 noundef 280) #24
          to label %invoke.cont4 unwind label %lpad3

invoke.cont4:                                     ; preds = %entry
  invoke void @_ZN9NCompress5NLzma8CDecoderC1Ev(ptr noundef nonnull align 8 dereferenceable(273) %call)
          to label %invoke.cont6 unwind label %lpad5

invoke.cont6:                                     ; preds = %invoke.cont4
  %DecoderSpec = getelementptr inbounds %"class.NArchive::NZip::CLzmaDecoder", ptr %this, i64 0, i32 2
  store ptr %call, ptr %DecoderSpec, align 8
  %vtable.i = load ptr, ptr %call, align 8
  %vfn.i = getelementptr inbounds ptr, ptr %vtable.i, i64 1
  %1 = load ptr, ptr %vfn.i, align 8
  %call.i14 = invoke noundef i32 %1(ptr noundef nonnull align 8 dereferenceable(8) %call)
          to label %call.i.noexc unwind label %lpad3

call.i.noexc:                                     ; preds = %invoke.cont6
  %2 = load ptr, ptr %Decoder, align 8
  %tobool.not.i = icmp eq ptr %2, null
  br i1 %tobool.not.i, label %invoke.cont9, label %if.then2.i

if.then2.i:                                       ; preds = %call.i.noexc
  %vtable4.i = load ptr, ptr %2, align 8
  %vfn5.i = getelementptr inbounds ptr, ptr %vtable4.i, i64 2
  %3 = load ptr, ptr %vfn5.i, align 8
  %call6.i15 = invoke noundef i32 %3(ptr noundef nonnull align 8 dereferenceable(8) %2)
          to label %invoke.cont9 unwind label %lpad3

invoke.cont9:                                     ; preds = %call.i.noexc, %if.then2.i
  store ptr %call, ptr %Decoder, align 8
  ret void

lpad3:                                            ; preds = %if.then2.i, %invoke.cont6, %entry
  %4 = landingpad { ptr, i32 }
          cleanup
  br label %ehcleanup

lpad5:                                            ; preds = %invoke.cont4
  %5 = landingpad { ptr, i32 }
          cleanup
  tail call void @_ZdlPv(ptr noundef nonnull %call) #23
  br label %ehcleanup

ehcleanup:                                        ; preds = %lpad5, %lpad3
  %.pn = phi { ptr, i32 } [ %4, %lpad3 ], [ %5, %lpad5 ]
  %6 = load ptr, ptr %Decoder, align 8
  %tobool.not.i16 = icmp eq ptr %6, null
  br i1 %tobool.not.i16, label %_ZN9CMyComPtrI14ICompressCoderED2Ev.exit, label %if.then.i

if.then.i:                                        ; preds = %ehcleanup
  %vtable.i17 = load ptr, ptr %6, align 8
  %vfn.i18 = getelementptr inbounds ptr, ptr %vtable.i17, i64 2
  %7 = load ptr, ptr %vfn.i18, align 8
  %call.i = invoke noundef i32 %7(ptr noundef nonnull align 8 dereferenceable(8) %6)
          to label %_ZN9CMyComPtrI14ICompressCoderED2Ev.exit unwind label %terminate.lpad.i

terminate.lpad.i:                                 ; preds = %if.then.i
  %8 = landingpad { ptr, i32 }
          catch ptr null
  %9 = extractvalue { ptr, i32 } %8, 0
  tail call void @__clang_call_terminate(ptr %9) #21
  unreachable

_ZN9CMyComPtrI14ICompressCoderED2Ev.exit:         ; preds = %ehcleanup, %if.then.i
  resume { ptr, i32 } %.pn
}

; Function Attrs: nobuiltin allocsize(0)
declare noundef nonnull ptr @_Znwm(i64 noundef) local_unnamed_addr #10

declare void @_ZN9NCompress5NLzma8CDecoderC1Ev(ptr noundef nonnull align 8 dereferenceable(273)) unnamed_addr #5

; Function Attrs: nobuiltin nounwind
declare void @_ZdlPv(ptr noundef) local_unnamed_addr #11

; Function Attrs: mustprogress uwtable
define dso_local noundef i32 @_ZN8NArchive4NZip12CLzmaDecoder4CodeEP19ISequentialInStreamP20ISequentialOutStreamPKyS7_P21ICompressProgressInfo(ptr nocapture noundef nonnull readonly align 8 dereferenceable(32) %this, ptr noundef %inStream, ptr noundef %outStream, ptr nocapture readnone %0, ptr noundef %outSize, ptr noundef %progress) unnamed_addr #8 align 2 {
entry:
  %buf = alloca [9 x i8], align 1
  call void @llvm.lifetime.start.p0(i64 9, ptr nonnull %buf) #22
  %call = call noundef i32 @_Z16ReadStream_FALSEP19ISequentialInStreamPvm(ptr noundef %inStream, ptr noundef nonnull %buf, i64 noundef 9)
  %cmp.not = icmp eq i32 %call, 0
  br i1 %cmp.not, label %cleanup.cont, label %cleanup21

cleanup.cont:                                     ; preds = %entry
  %arrayidx = getelementptr inbounds [9 x i8], ptr %buf, i64 0, i64 2
  %1 = load i8, ptr %arrayidx, align 1
  %cmp2 = icmp ne i8 %1, 5
  %arrayidx3 = getelementptr inbounds [9 x i8], ptr %buf, i64 0, i64 3
  %2 = load i8, ptr %arrayidx3, align 1
  %cmp5 = icmp ne i8 %2, 0
  %or.cond = select i1 %cmp2, i1 true, i1 %cmp5
  br i1 %or.cond, label %cleanup21, label %if.end7

if.end7:                                          ; preds = %cleanup.cont
  %DecoderSpec = getelementptr inbounds %"class.NArchive::NZip::CLzmaDecoder", ptr %this, i64 0, i32 2
  %3 = load ptr, ptr %DecoderSpec, align 8
  %add.ptr = getelementptr inbounds i8, ptr %buf, i64 4
  %vtable = load ptr, ptr %3, align 8
  %vfn = getelementptr inbounds ptr, ptr %vtable, i64 6
  %4 = load ptr, ptr %vfn, align 8
  %call10 = call noundef i32 %4(ptr noundef nonnull align 8 dereferenceable(273) %3, ptr noundef nonnull %add.ptr, i32 noundef 5)
  %cmp11.not = icmp eq i32 %call10, 0
  br i1 %cmp11.not, label %cleanup.cont16, label %cleanup21

cleanup.cont16:                                   ; preds = %if.end7
  %Decoder = getelementptr inbounds %"class.NArchive::NZip::CLzmaDecoder", ptr %this, i64 0, i32 3
  %5 = load ptr, ptr %Decoder, align 8
  %vtable18 = load ptr, ptr %5, align 8
  %vfn19 = getelementptr inbounds ptr, ptr %vtable18, i64 5
  %6 = load ptr, ptr %vfn19, align 8
  %call20 = call noundef i32 %6(ptr noundef nonnull align 8 dereferenceable(8) %5, ptr noundef %inStream, ptr noundef %outStream, ptr noundef null, ptr noundef %outSize, ptr noundef %progress)
  br label %cleanup21

cleanup21:                                        ; preds = %cleanup.cont, %if.end7, %entry, %cleanup.cont16
  %retval.2 = phi i32 [ %call20, %cleanup.cont16 ], [ %call10, %if.end7 ], [ %call, %entry ], [ -2147467263, %cleanup.cont ]
  call void @llvm.lifetime.end.p0(i64 9, ptr nonnull %buf) #22
  ret i32 %retval.2
}

declare noundef i32 @_Z16ReadStream_FALSEP19ISequentialInStreamPvm(ptr noundef, ptr noundef, i64 noundef) local_unnamed_addr #5

; Function Attrs: uwtable
define dso_local noundef i32 @_ZN8NArchive4NZip11CZipDecoder6DecodeERNS0_10CInArchiveERKNS0_7CItemExEP20ISequentialOutStreamP23IArchiveExtractCallbackP21ICompressProgressInfojRi(ptr noundef nonnull align 8 dereferenceable(104) %this, ptr noundef nonnull align 8 dereferenceable(138) %archive, ptr noundef nonnull align 8 dereferenceable(186) %item, ptr noundef %realOutStream, ptr noundef %extractCallback, ptr noundef %compressProgress, i32 noundef %numThreads, ptr nocapture noundef nonnull writeonly align 4 dereferenceable(4) %res) local_unnamed_addr #0 align 2 personality ptr @__gxx_personality_v0 {
entry:
  %properties = alloca i8, align 1
  %cryptoSetPassword = alloca %class.CMyComPtr.9, align 8
  %password = alloca %class.CMyComBSTR, align 8
  %charPassword = alloca %class.CStringBase.1, align 8
  %ref.tmp = alloca %class.CStringBase.1, align 8
  %ref.tmp191 = alloca %class.CStringBase, align 8
  %ref.tmp206 = alloca %class.CStringBase.1, align 8
  %ref.tmp207 = alloca %class.CStringBase, align 8
  %mi = alloca %"struct.NArchive::NZip::CMethodItem", align 8
  %setDecoderProperties = alloca %class.CMyComPtr.11, align 8
  %properties422 = alloca i8, align 1
  %setCoderMt = alloca %class.CMyComPtr.12, align 8
  %passwOK = alloca i8, align 1
  %authOk = alloca i8, align 1
  store i32 2, ptr %res, align 4
  %CompressionMethod = getelementptr inbounds %"class.NArchive::NZip::CLocalItem", ptr %item, i64 0, i32 2
  %0 = load i16, ptr %CompressionMethod, align 4
  %Flags.i = getelementptr inbounds %"class.NArchive::NZip::CLocalItem", ptr %item, i64 0, i32 1
  %1 = load i16, ptr %Flags.i, align 2
  %2 = and i16 %1, 1
  %cmp.i.not = icmp eq i16 %2, 0
  br i1 %cmp.i.not, label %if.end23, label %if.then

if.then:                                          ; preds = %entry
  %3 = and i16 %1, 65
  %4 = icmp eq i16 %3, 65
  br i1 %4, label %if.then4, label %if.end11

if.then4:                                         ; preds = %if.then
  %_size.i.i = getelementptr inbounds %"class.NArchive::NZip::CItem", ptr %item, i64 0, i32 8, i32 0, i32 0, i32 0, i32 2
  %5 = load i32, ptr %_size.i.i, align 4
  %cmp.not9.i = icmp sgt i32 %5, 0
  br i1 %cmp.not9.i, label %for.body.lr.ph.i, label %cleanup660.thread

for.body.lr.ph.i:                                 ; preds = %if.then4
  %_items.i.i.i = getelementptr inbounds %"class.NArchive::NZip::CItem", ptr %item, i64 0, i32 8, i32 0, i32 0, i32 0, i32 3
  %6 = load ptr, ptr %_items.i.i.i, align 8
  %7 = zext i32 %5 to i64
  br label %for.body.i

for.body.i:                                       ; preds = %for.inc.i, %for.body.lr.ph.i
  %indvars.iv.i = phi i64 [ 0, %for.body.lr.ph.i ], [ %indvars.iv.next.i, %for.inc.i ]
  %cmp.not11.i = phi i1 [ true, %for.body.lr.ph.i ], [ %cmp.not.i, %for.inc.i ]
  %arrayidx.i.i.i = getelementptr inbounds ptr, ptr %6, i64 %indvars.iv.i
  %8 = load ptr, ptr %arrayidx.i.i.i, align 8
  %9 = load i16, ptr %8, align 8
  %cmp.not.i.i = icmp ne i16 %9, 23
  %_capacity.i.i.i = getelementptr inbounds %"struct.NArchive::NZip::CExtraSubBlock", ptr %8, i64 0, i32 1, i32 1
  %10 = load i64, ptr %_capacity.i.i.i, align 8
  %cmp4.i.i = icmp ult i64 %10, 8
  %or.cond.i.i = select i1 %cmp.not.i.i, i1 true, i1 %cmp4.i.i
  br i1 %or.cond.i.i, label %for.inc.i, label %_ZN8NArchive4NZip18CStrongCryptoField17ParseFromSubBlockERKNS0_14CExtraSubBlockE.exit.i

_ZN8NArchive4NZip18CStrongCryptoField17ParseFromSubBlockERKNS0_14CExtraSubBlockE.exit.i: ; preds = %for.body.i
  %_items.i.i7.i = getelementptr inbounds %"struct.NArchive::NZip::CExtraSubBlock", ptr %8, i64 0, i32 1, i32 2
  %11 = load ptr, ptr %_items.i.i7.i, align 8
  %12 = load i16, ptr %11, align 1
  %cmp38.i.i = icmp eq i16 %12, 2
  br i1 %cmp38.i.i, label %invoke.cont6, label %for.inc.i

for.inc.i:                                        ; preds = %_ZN8NArchive4NZip18CStrongCryptoField17ParseFromSubBlockERKNS0_14CExtraSubBlockE.exit.i, %for.body.i
  %indvars.iv.next.i = add nuw nsw i64 %indvars.iv.i, 1
  %cmp.not.i = icmp ult i64 %indvars.iv.next.i, %7
  %exitcond.not.i = icmp eq i64 %indvars.iv.next.i, %7
  br i1 %exitcond.not.i, label %invoke.cont6, label %for.body.i

invoke.cont6:                                     ; preds = %for.inc.i, %_ZN8NArchive4NZip18CStrongCryptoField17ParseFromSubBlockERKNS0_14CExtraSubBlockE.exit.i
  %cmp.not.lcssa.i = phi i1 [ %cmp.not11.i, %_ZN8NArchive4NZip18CStrongCryptoField17ParseFromSubBlockERKNS0_14CExtraSubBlockE.exit.i ], [ %cmp.not.i, %for.inc.i ]
  br i1 %cmp.not.lcssa.i, label %if.end11, label %cleanup660.thread

cleanup660.thread:                                ; preds = %invoke.cont6, %if.then4
  store i32 1, ptr %res, align 4
  br label %_ZN17CInStreamReleaserD2Ev.exit

if.end11:                                         ; preds = %invoke.cont6, %if.then
  %pkAesMode.1 = phi i8 [ 0, %if.then ], [ 1, %invoke.cont6 ]
  %cmp = icmp eq i16 %0, 99
  br i1 %cmp, label %if.then12, label %if.end23

if.then12:                                        ; preds = %if.end11
  %_size.i.i817 = getelementptr inbounds %"class.NArchive::NZip::CItem", ptr %item, i64 0, i32 8, i32 0, i32 0, i32 0, i32 2
  %13 = load i32, ptr %_size.i.i817, align 4
  %cmp.not11.i818 = icmp sgt i32 %13, 0
  br i1 %cmp.not11.i818, label %for.body.lr.ph.i819, label %if.end23

for.body.lr.ph.i819:                              ; preds = %if.then12
  %_items.i.i.i820 = getelementptr inbounds %"class.NArchive::NZip::CItem", ptr %item, i64 0, i32 8, i32 0, i32 0, i32 0, i32 3
  %14 = load ptr, ptr %_items.i.i.i820, align 8
  %15 = zext i32 %13 to i64
  br label %for.body.i822

for.body.i822:                                    ; preds = %for.inc.i829, %for.body.lr.ph.i819
  %indvars.iv.i823 = phi i64 [ 0, %for.body.lr.ph.i819 ], [ %indvars.iv.next.i830, %for.inc.i829 ]
  %cmp.not13.i = phi i1 [ true, %for.body.lr.ph.i819 ], [ %cmp.not.i831, %for.inc.i829 ]
  %arrayidx.i.i.i824 = getelementptr inbounds ptr, ptr %14, i64 %indvars.iv.i823
  %16 = load ptr, ptr %arrayidx.i.i.i824, align 8
  %17 = load i16, ptr %16, align 8
  %cmp.not.i.i825 = icmp ne i16 %17, -26367
  %_capacity.i.i.i826 = getelementptr inbounds %"struct.NArchive::NZip::CExtraSubBlock", ptr %16, i64 0, i32 1, i32 1
  %18 = load i64, ptr %_capacity.i.i.i826, align 8
  %cmp2.i.i = icmp ult i64 %18, 7
  %or.cond.i.i827 = select i1 %cmp.not.i.i825, i1 true, i1 %cmp2.i.i
  br i1 %or.cond.i.i827, label %for.inc.i829, label %if.end4.i.i

if.end4.i.i:                                      ; preds = %for.body.i822
  %_items.i.i7.i828 = getelementptr inbounds %"struct.NArchive::NZip::CExtraSubBlock", ptr %16, i64 0, i32 1, i32 2
  %19 = load ptr, ptr %_items.i.i7.i828, align 8
  %arrayidx12.i.i = getelementptr inbounds i8, ptr %19, i64 2
  %20 = load i8, ptr %arrayidx12.i.i, align 1
  %cmp14.not.i.i = icmp eq i8 %20, 65
  br i1 %cmp14.not.i.i, label %lor.lhs.false.i.i, label %for.inc.i829

lor.lhs.false.i.i:                                ; preds = %if.end4.i.i
  %arrayidx15.i.i = getelementptr inbounds i8, ptr %19, i64 3
  %21 = load i8, ptr %arrayidx15.i.i, align 1
  %cmp17.not.i.i = icmp eq i8 %21, 69
  br i1 %cmp17.not.i.i, label %_ZN8NArchive4NZip16CWzAesExtraField17ParseFromSubBlockERKNS0_14CExtraSubBlockE.exit.i, label %for.inc.i829

_ZN8NArchive4NZip16CWzAesExtraField17ParseFromSubBlockERKNS0_14CExtraSubBlockE.exit.i: ; preds = %lor.lhs.false.i.i
  %22 = load i16, ptr %19, align 1
  %cmp.i833 = icmp eq i16 %22, 1
  %not.cmp.not13.i = xor i1 %cmp.not13.i, true
  %spec.select1470 = select i1 %not.cmp.not13.i, i1 true, i1 %cmp.i833
  br label %if.end23

for.inc.i829:                                     ; preds = %lor.lhs.false.i.i, %if.end4.i.i, %for.body.i822
  %indvars.iv.next.i830 = add nuw nsw i64 %indvars.iv.i823, 1
  %cmp.not.i831 = icmp ult i64 %indvars.iv.next.i830, %15
  %exitcond.not.i832 = icmp eq i64 %indvars.iv.next.i830, %15
  br i1 %exitcond.not.i832, label %if.end23, label %for.body.i822

if.end23:                                         ; preds = %for.inc.i829, %_ZN8NArchive4NZip16CWzAesExtraField17ParseFromSubBlockERKNS0_14CExtraSubBlockE.exit.i, %if.then12, %if.end11, %entry
  %pkAesMode.2 = phi i8 [ %pkAesMode.1, %if.end11 ], [ 0, %entry ], [ %pkAesMode.1, %if.then12 ], [ %pkAesMode.1, %_ZN8NArchive4NZip16CWzAesExtraField17ParseFromSubBlockERKNS0_14CExtraSubBlockE.exit.i ], [ %pkAesMode.1, %for.inc.i829 ]
  %wzAesMode.1 = phi i1 [ false, %if.end11 ], [ false, %entry ], [ false, %if.then12 ], [ %cmp.not13.i, %_ZN8NArchive4NZip16CWzAesExtraField17ParseFromSubBlockERKNS0_14CExtraSubBlockE.exit.i ], [ false, %for.inc.i829 ]
  %needCRC.1 = phi i1 [ true, %if.end11 ], [ true, %entry ], [ true, %if.then12 ], [ %spec.select1470, %_ZN8NArchive4NZip16CWzAesExtraField17ParseFromSubBlockERKNS0_14CExtraSubBlockE.exit.i ], [ true, %for.inc.i829 ]
  %call26 = tail call noalias noundef nonnull dereferenceable(40) ptr @_Znwm(i64 noundef 40) #24
  %23 = getelementptr inbounds i8, ptr %call26, i64 8
  store i32 0, ptr %23, align 4
  store ptr getelementptr inbounds ({ [8 x ptr] }, ptr @_ZTV17COutStreamWithCRC, i64 0, inrange i32 0, i64 2), ptr %call26, align 8
  %_stream.i = getelementptr inbounds %class.COutStreamWithCRC, ptr %call26, i64 0, i32 3
  store ptr null, ptr %_stream.i, align 8
  %24 = load ptr, ptr getelementptr inbounds ({ [8 x ptr] }, ptr @_ZTV17COutStreamWithCRC, i64 0, inrange i32 0, i64 3), align 8
  %call.i834 = tail call noundef i32 %24(ptr noundef nonnull align 8 dereferenceable(8) %call26)
  %cmp.not.i.i836 = icmp eq ptr %realOutStream, null
  br i1 %cmp.not.i.i836, label %if.end.i.i, label %if.then.i.i

if.then.i.i:                                      ; preds = %if.end23
  %vtable.i.i = load ptr, ptr %realOutStream, align 8
  %vfn.i.i = getelementptr inbounds ptr, ptr %vtable.i.i, i64 1
  %25 = load ptr, ptr %vfn.i.i, align 8
  %call.i.i837 = invoke noundef i32 %25(ptr noundef nonnull align 8 dereferenceable(8) %realOutStream)
          to label %if.end.i.i unwind label %lpad31

if.end.i.i:                                       ; preds = %if.then.i.i, %if.end23
  %26 = load ptr, ptr %_stream.i, align 8
  %tobool.not.i.i = icmp eq ptr %26, null
  br i1 %tobool.not.i.i, label %invoke.cont32, label %if.then2.i.i

if.then2.i.i:                                     ; preds = %if.end.i.i
  %vtable4.i.i = load ptr, ptr %26, align 8
  %vfn5.i.i = getelementptr inbounds ptr, ptr %vtable4.i.i, i64 2
  %27 = load ptr, ptr %vfn5.i.i, align 8
  %call6.i.i838 = invoke noundef i32 %27(ptr noundef nonnull align 8 dereferenceable(8) %26)
          to label %invoke.cont32 unwind label %lpad31

invoke.cont32:                                    ; preds = %if.end.i.i, %if.then2.i.i
  store ptr %realOutStream, ptr %_stream.i, align 8
  %frombool.i = zext i1 %needCRC.1 to i8
  %_size.i = getelementptr inbounds %class.COutStreamWithCRC, ptr %call26, i64 0, i32 4
  store i64 0, ptr %_size.i, align 8
  %_calculate.i = getelementptr inbounds %class.COutStreamWithCRC, ptr %call26, i64 0, i32 6
  store i8 %frombool.i, ptr %_calculate.i, align 4
  %_crc.i = getelementptr inbounds %class.COutStreamWithCRC, ptr %call26, i64 0, i32 5
  store i32 -1, ptr %_crc.i, align 8
  %PackSize = getelementptr inbounds %"class.NArchive::NZip::CLocalItem", ptr %item, i64 0, i32 5
  %28 = load i64, ptr %PackSize, align 8
  br i1 %wzAesMode.1, label %if.then38, label %invoke.cont44

if.then38:                                        ; preds = %invoke.cont32
  %cmp39 = icmp ult i64 %28, 10
  br i1 %cmp39, label %if.then.i1218, label %if.end41

lpad31:                                           ; preds = %if.then2.i.i, %if.then.i.i
  %29 = landingpad { ptr, i32 }
          cleanup
  br label %if.then.i1231

if.end41:                                         ; preds = %if.then38
  %sub = add i64 %28, -10
  br label %invoke.cont44

invoke.cont44:                                    ; preds = %invoke.cont32, %if.end41
  %packSize.0 = phi i64 [ %sub, %if.end41 ], [ %28, %invoke.cont32 ]
  %LocalHeaderPosition.i.i = getelementptr inbounds %"class.NArchive::NZip::CItem", ptr %item, i64 0, i32 4
  %30 = load i64, ptr %LocalHeaderPosition.i.i, align 8
  %FileHeaderWithNameSize.i.i = getelementptr inbounds %"class.NArchive::NZip::CItemEx", ptr %item, i64 0, i32 2
  %31 = load i32, ptr %FileHeaderWithNameSize.i.i, align 4
  %conv.i.i = zext i32 %31 to i64
  %add.i.i = add i64 %30, %conv.i.i
  %LocalExtraSize.i = getelementptr inbounds %"class.NArchive::NZip::CItemEx", ptr %item, i64 0, i32 3
  %32 = load i16, ptr %LocalExtraSize.i, align 8
  %conv.i = zext i16 %32 to i64
  %add.i = add i64 %add.i.i, %conv.i
  %call47 = invoke noundef ptr @_ZN8NArchive4NZip10CInArchive19CreateLimitedStreamEyy(ptr noundef nonnull align 8 dereferenceable(138) %archive, i64 noundef %add.i, i64 noundef %packSize.0)
          to label %cleanup.cont51 unwind label %ehcleanup649.thread

cleanup.cont51:                                   ; preds = %invoke.cont44
  %add = add i64 %add.i, %packSize.0
  %33 = load i16, ptr %Flags.i, align 2
  %34 = and i16 %33, 1
  %cmp.i846.not = icmp eq i16 %34, 0
  br i1 %cmp.i846.not, label %if.end271, label %if.then57

if.then57:                                        ; preds = %cleanup.cont51
  br i1 %wzAesMode.1, label %if.then59, label %if.else

if.then59:                                        ; preds = %if.then57
  %_size.i.i849 = getelementptr inbounds %"class.NArchive::NZip::CItem", ptr %item, i64 0, i32 8, i32 0, i32 0, i32 0, i32 2
  %35 = load i32, ptr %_size.i.i849, align 4
  %cmp.not11.i850 = icmp sgt i32 %35, 0
  br i1 %cmp.not11.i850, label %for.body.lr.ph.i852, label %cleanup648

for.body.lr.ph.i852:                              ; preds = %if.then59
  %_items.i.i.i853 = getelementptr inbounds %"class.NArchive::NZip::CItem", ptr %item, i64 0, i32 8, i32 0, i32 0, i32 0, i32 3
  %36 = load ptr, ptr %_items.i.i.i853, align 8
  %37 = zext i32 %35 to i64
  br label %for.body.i855

for.body.i855:                                    ; preds = %for.inc.i867, %for.body.lr.ph.i852
  %indvars.iv.i856 = phi i64 [ 0, %for.body.lr.ph.i852 ], [ %indvars.iv.next.i868, %for.inc.i867 ]
  %cmp.not13.i857 = phi i1 [ true, %for.body.lr.ph.i852 ], [ %cmp.not.i869, %for.inc.i867 ]
  %arrayidx.i.i.i858 = getelementptr inbounds ptr, ptr %36, i64 %indvars.iv.i856
  %38 = load ptr, ptr %arrayidx.i.i.i858, align 8
  %39 = load i16, ptr %38, align 8
  %cmp.not.i.i859 = icmp ne i16 %39, -26367
  %_capacity.i.i.i860 = getelementptr inbounds %"struct.NArchive::NZip::CExtraSubBlock", ptr %38, i64 0, i32 1, i32 1
  %40 = load i64, ptr %_capacity.i.i.i860, align 8
  %cmp2.i.i861 = icmp ult i64 %40, 7
  %or.cond.i.i862 = select i1 %cmp.not.i.i859, i1 true, i1 %cmp2.i.i861
  br i1 %or.cond.i.i862, label %for.inc.i867, label %if.end4.i.i863

if.end4.i.i863:                                   ; preds = %for.body.i855
  %_items.i.i7.i864 = getelementptr inbounds %"struct.NArchive::NZip::CExtraSubBlock", ptr %38, i64 0, i32 1, i32 2
  %41 = load ptr, ptr %_items.i.i7.i864, align 8
  %arrayidx12.i.i865 = getelementptr inbounds i8, ptr %41, i64 2
  %42 = load i8, ptr %arrayidx12.i.i865, align 1
  %cmp14.not.i.i866 = icmp eq i8 %42, 65
  br i1 %cmp14.not.i.i866, label %lor.lhs.false.i.i871, label %for.inc.i867

lor.lhs.false.i.i871:                             ; preds = %if.end4.i.i863
  %arrayidx15.i.i872 = getelementptr inbounds i8, ptr %41, i64 3
  %43 = load i8, ptr %arrayidx15.i.i872, align 1
  %cmp17.not.i.i873 = icmp eq i8 %43, 69
  br i1 %cmp17.not.i.i873, label %_ZN8NArchive4NZip16CWzAesExtraField17ParseFromSubBlockERKNS0_14CExtraSubBlockE.exit.i874, label %for.inc.i867

_ZN8NArchive4NZip16CWzAesExtraField17ParseFromSubBlockERKNS0_14CExtraSubBlockE.exit.i874: ; preds = %lor.lhs.false.i.i871
  %arrayidx20.i.i875 = getelementptr inbounds i8, ptr %41, i64 4
  %44 = load i8, ptr %arrayidx20.i.i875, align 1
  %arrayidx25.i.i877 = getelementptr inbounds i8, ptr %41, i64 5
  %45 = load i8, ptr %arrayidx25.i.i877, align 1
  %conv28.i.i878 = zext i8 %45 to i16
  br i1 %cmp.not13.i857, label %if.end67, label %cleanup648

for.inc.i867:                                     ; preds = %lor.lhs.false.i.i871, %if.end4.i.i863, %for.body.i855
  %indvars.iv.next.i868 = add nuw nsw i64 %indvars.iv.i856, 1
  %cmp.not.i869 = icmp ult i64 %indvars.iv.next.i868, %37
  %exitcond.not.i870 = icmp eq i64 %indvars.iv.next.i868, %37
  br i1 %exitcond.not.i870, label %cleanup648, label %for.body.i855

ehcleanup649.thread:                              ; preds = %invoke.cont44
  %46 = landingpad { ptr, i32 }
          cleanup
  br label %if.then.i1231

lpad54:                                           ; preds = %if.then.i.i939, %if.then2.i930, %invoke.cont122, %if.then.i.i913, %if.then2.i904, %if.then118, %if.then101
  %47 = landingpad { ptr, i32 }
          cleanup
  br label %ehcleanup649

lpad61:                                           ; preds = %if.then.i.i887, %if.then2.i, %invoke.cont74, %if.then70
  %48 = landingpad { ptr, i32 }
          cleanup
  br label %ehcleanup649

if.end67:                                         ; preds = %_ZN8NArchive4NZip16CWzAesExtraField17ParseFromSubBlockERKNS0_14CExtraSubBlockE.exit.i874
  %_wzAesDecoder = getelementptr inbounds %"class.NArchive::NZip::CZipDecoder", ptr %this, i64 0, i32 5
  %49 = load ptr, ptr %_wzAesDecoder, align 8
  %cmp.i881 = icmp eq ptr %49, null
  br i1 %cmp.i881, label %if.then70, label %if.then.i.i887

if.then70:                                        ; preds = %if.end67
  %call72 = invoke noalias noundef nonnull dereferenceable(600) ptr @_Znwm(i64 noundef 600) #24
          to label %invoke.cont71 unwind label %lpad61

invoke.cont71:                                    ; preds = %if.then70
  %50 = getelementptr inbounds i8, ptr %call72, i64 8
  %51 = getelementptr inbounds i8, ptr %call72, i64 16
  store i32 0, ptr %51, align 4
  store ptr getelementptr inbounds ({ [10 x ptr], [8 x ptr] }, ptr @_ZTVN7NCrypto6NWzAes10CBaseCoderE, i64 0, inrange i32 0, i64 2), ptr %call72, align 8
  store ptr getelementptr inbounds ({ [10 x ptr], [8 x ptr] }, ptr @_ZTVN7NCrypto6NWzAes10CBaseCoderE, i64 0, inrange i32 1, i64 2), ptr %50, align 8
  %_key.i.i = getelementptr inbounds %"class.NCrypto::NWzAes::CBaseCoder", ptr %call72, i64 0, i32 3
  %Password.i.i.i = getelementptr inbounds %"class.NCrypto::NWzAes::CBaseCoder", ptr %call72, i64 0, i32 3, i32 3
  store ptr getelementptr inbounds ({ [4 x ptr] }, ptr @_ZTV7CBufferIhE, i64 0, inrange i32 0, i64 2), ptr %Password.i.i.i, align 8
  %_capacity.i.i.i.i = getelementptr inbounds %"class.NCrypto::NWzAes::CBaseCoder", ptr %call72, i64 0, i32 3, i32 3, i32 1
  tail call void @llvm.memset.p0.i64(ptr noundef nonnull align 8 dereferenceable(16) %_capacity.i.i.i.i, i8 0, i64 16, i1 false)
  store i32 3, ptr %_key.i.i, align 8
  %_aes.i.i = getelementptr inbounds %"class.NCrypto::NWzAes::CBaseCoder", ptr %call72, i64 0, i32 6
  invoke void @_ZN7NCrypto6NWzAes8CAesCtr2C1Ev(ptr noundef nonnull align 4 dereferenceable(308) %_aes.i.i)
          to label %invoke.cont74 unwind label %lpad2.i.i

lpad2.i.i:                                        ; preds = %invoke.cont71
  %52 = landingpad { ptr, i32 }
          cleanup
  store ptr getelementptr inbounds ({ [4 x ptr] }, ptr @_ZTV7CBufferIhE, i64 0, inrange i32 0, i64 2), ptr %Password.i.i.i, align 8
  %_items.i.i.i.i = getelementptr inbounds %"class.NCrypto::NWzAes::CBaseCoder", ptr %call72, i64 0, i32 3, i32 3, i32 2
  %53 = load ptr, ptr %_items.i.i.i.i, align 8
  %isnull.i.i.i.i = icmp eq ptr %53, null
  br i1 %isnull.i.i.i.i, label %lpad73.body, label %delete.notnull.i.i.i.i

delete.notnull.i.i.i.i:                           ; preds = %lpad2.i.i
  tail call void @_ZdaPv(ptr noundef nonnull %53) #23
  br label %lpad73.body

invoke.cont74:                                    ; preds = %invoke.cont71
  %54 = getelementptr inbounds i8, ptr %call72, i64 592
  store ptr getelementptr inbounds ({ [11 x ptr], [8 x ptr], [8 x ptr] }, ptr @_ZTVN7NCrypto6NWzAes8CDecoderE, i64 0, inrange i32 0, i64 2), ptr %call72, align 8
  store ptr getelementptr inbounds ({ [11 x ptr], [8 x ptr], [8 x ptr] }, ptr @_ZTVN7NCrypto6NWzAes8CDecoderE, i64 0, inrange i32 1, i64 2), ptr %50, align 8
  store ptr getelementptr inbounds ({ [11 x ptr], [8 x ptr], [8 x ptr] }, ptr @_ZTVN7NCrypto6NWzAes8CDecoderE, i64 0, inrange i32 2, i64 2), ptr %54, align 8
  %_wzAesDecoderSpec = getelementptr inbounds %"class.NArchive::NZip::CZipDecoder", ptr %this, i64 0, i32 2
  store ptr %call72, ptr %_wzAesDecoderSpec, align 8
  %55 = load ptr, ptr getelementptr inbounds ({ [11 x ptr], [8 x ptr], [8 x ptr] }, ptr @_ZTVN7NCrypto6NWzAes8CDecoderE, i64 0, inrange i32 0, i64 3), align 8
  %call.i884 = invoke noundef i32 %55(ptr noundef nonnull align 8 dereferenceable(8) %call72)
          to label %call.i.noexc unwind label %lpad61

call.i.noexc:                                     ; preds = %invoke.cont74
  %56 = load ptr, ptr %_wzAesDecoder, align 8
  %tobool.not.i = icmp eq ptr %56, null
  br i1 %tobool.not.i, label %_ZN9CMyComPtrI15ICompressFilterEaSEPS0_.exit, label %if.then2.i

if.then2.i:                                       ; preds = %call.i.noexc
  %vtable4.i = load ptr, ptr %56, align 8
  %vfn5.i = getelementptr inbounds ptr, ptr %vtable4.i, i64 2
  %57 = load ptr, ptr %vfn5.i, align 8
  %call6.i885 = invoke noundef i32 %57(ptr noundef nonnull align 8 dereferenceable(8) %56)
          to label %_ZN9CMyComPtrI15ICompressFilterEaSEPS0_.exit unwind label %lpad61

_ZN9CMyComPtrI15ICompressFilterEaSEPS0_.exit:     ; preds = %if.then2.i, %call.i.noexc
  store ptr %call72, ptr %_wzAesDecoder, align 8
  br label %if.then.i.i887

lpad73.body:                                      ; preds = %lpad2.i.i, %delete.notnull.i.i.i.i
  tail call void @_ZdlPv(ptr noundef nonnull %call72) #23
  br label %ehcleanup649

if.then.i.i887:                                   ; preds = %if.end67, %_ZN9CMyComPtrI15ICompressFilterEaSEPS0_.exit
  %58 = phi ptr [ %call72, %_ZN9CMyComPtrI15ICompressFilterEaSEPS0_.exit ], [ %49, %if.end67 ]
  %vtable.i.i888 = load ptr, ptr %58, align 8
  %vfn.i.i889 = getelementptr inbounds ptr, ptr %vtable.i.i888, i64 1
  %59 = load ptr, ptr %vfn.i.i889, align 8
  %call.i.i896 = invoke noundef i32 %59(ptr noundef nonnull align 8 dereferenceable(8) %58)
          to label %invoke.cont81 unwind label %lpad61

invoke.cont81:                                    ; preds = %if.then.i.i887
  call void @llvm.lifetime.start.p0(i64 1, ptr nonnull %properties) #22
  store i8 %44, ptr %properties, align 1
  %_wzAesDecoderSpec83 = getelementptr inbounds %"class.NArchive::NZip::CZipDecoder", ptr %this, i64 0, i32 2
  %60 = load ptr, ptr %_wzAesDecoderSpec83, align 8
  %vtable = load ptr, ptr %60, align 8
  %vfn = getelementptr inbounds ptr, ptr %vtable, i64 8
  %61 = load ptr, ptr %vfn, align 8
  %call86 = invoke noundef i32 %61(ptr noundef nonnull align 8 dereferenceable(600) %60, ptr noundef nonnull %properties, i32 noundef 1)
          to label %invoke.cont85 unwind label %lpad84

invoke.cont85:                                    ; preds = %invoke.cont81
  %cmp87.not = icmp eq i32 %call86, 0
  call void @llvm.lifetime.end.p0(i64 1, ptr nonnull %properties) #22
  br i1 %cmp87.not, label %if.end133, label %if.then.i1198

lpad84:                                           ; preds = %invoke.cont81
  %62 = landingpad { ptr, i32 }
          cleanup
  call void @llvm.lifetime.end.p0(i64 1, ptr nonnull %properties) #22
  br label %if.then.i1204

if.else:                                          ; preds = %if.then57
  %63 = and i8 %pkAesMode.2, 1
  %tobool97.not = icmp eq i8 %63, 0
  br i1 %tobool97.not, label %if.else115, label %if.then98

if.then98:                                        ; preds = %if.else
  %_pkAesDecoder = getelementptr inbounds %"class.NArchive::NZip::CZipDecoder", ptr %this, i64 0, i32 4
  %64 = load ptr, ptr %_pkAesDecoder, align 8
  %cmp.i899 = icmp eq ptr %64, null
  br i1 %cmp.i899, label %if.then101, label %if.then.i.i913

if.then101:                                       ; preds = %if.then98
  %call103 = invoke noalias noundef nonnull dereferenceable(432) ptr @_Znwm(i64 noundef 432) #24
          to label %invoke.cont102 unwind label %lpad54

invoke.cont102:                                   ; preds = %if.then101
  invoke void @_ZN7NCrypto14CAesCbcDecoderC2Ev(ptr noundef nonnull align 8 dereferenceable(328) %call103)
          to label %invoke.cont105 unwind label %lpad104

invoke.cont105:                                   ; preds = %invoke.cont102
  %65 = getelementptr inbounds i8, ptr %call103, i64 328
  %add.ptr.i.i = getelementptr inbounds i8, ptr %call103, i64 8
  %_buf.i.i = getelementptr inbounds %"class.NCrypto::NZipStrong::CBaseCoder", ptr %call103, i64 0, i32 3
  store ptr getelementptr inbounds ({ [4 x ptr] }, ptr @_ZTV7CBufferIhE, i64 0, inrange i32 0, i64 2), ptr %_buf.i.i, align 8
  %_capacity.i.i.i900 = getelementptr inbounds %"class.NCrypto::NZipStrong::CBaseCoder", ptr %call103, i64 0, i32 3, i32 1
  tail call void @llvm.memset.p0.i64(ptr noundef nonnull align 8 dereferenceable(16) %_capacity.i.i.i900, i8 0, i64 16, i1 false)
  store ptr getelementptr inbounds ({ [12 x ptr], [9 x ptr], [8 x ptr] }, ptr @_ZTVN7NCrypto10NZipStrong8CDecoderE, i64 0, inrange i32 0, i64 2), ptr %call103, align 8
  store ptr getelementptr inbounds ({ [12 x ptr], [9 x ptr], [8 x ptr] }, ptr @_ZTVN7NCrypto10NZipStrong8CDecoderE, i64 0, inrange i32 1, i64 2), ptr %add.ptr.i.i, align 8
  store ptr getelementptr inbounds ({ [12 x ptr], [9 x ptr], [8 x ptr] }, ptr @_ZTVN7NCrypto10NZipStrong8CDecoderE, i64 0, inrange i32 2, i64 2), ptr %65, align 8
  %_pkAesDecoderSpec = getelementptr inbounds %"class.NArchive::NZip::CZipDecoder", ptr %this, i64 0, i32 1
  store ptr %call103, ptr %_pkAesDecoderSpec, align 8
  %add.ptr.i = getelementptr inbounds i8, ptr %call103, i64 16
  %66 = load i32, ptr %add.ptr.i, align 8
  %inc.i = add i32 %66, 1
  store i32 %inc.i, ptr %add.ptr.i, align 8
  %67 = load ptr, ptr %_pkAesDecoder, align 8
  %tobool.not.i903 = icmp eq ptr %67, null
  br i1 %tobool.not.i903, label %_ZN9CMyComPtrI15ICompressFilterEaSEPS0_.exit911, label %if.then2.i904

if.then2.i904:                                    ; preds = %invoke.cont105
  %vtable4.i905 = load ptr, ptr %67, align 8
  %vfn5.i906 = getelementptr inbounds ptr, ptr %vtable4.i905, i64 2
  %68 = load ptr, ptr %vfn5.i906, align 8
  %call6.i910 = invoke noundef i32 %68(ptr noundef nonnull align 8 dereferenceable(8) %67)
          to label %_ZN9CMyComPtrI15ICompressFilterEaSEPS0_.exit911 unwind label %lpad54

_ZN9CMyComPtrI15ICompressFilterEaSEPS0_.exit911:  ; preds = %if.then2.i904, %invoke.cont105
