; ModuleID = '/home/npopov/repos/llvm-test-suite/CTMark/kimwitu++/main.cc'
source_filename = "/home/npopov/repos/llvm-test-suite/CTMark/kimwitu++/main.cc"
target datalayout = "e-m:e-p270:32:32-p271:32:32-p272:64:64-i64:64-f80:128-n8:16:32:64-S128"
target triple = "x86_64-unknown-linux-gnu"

module asm ".globl _ZSt21ios_base_library_initv"

%struct.cmdline_options = type <{ %"class.std::__cxx11::basic_string", %"class.std::__cxx11::basic_string", i8, i8, i8, i8, i8, i8, i8, i8, i8, i8, i8, [5 x i8], %"class.std::__cxx11::basic_string", i8, i8, i8, i8, [4 x i8], %"class.std::__cxx11::basic_string", %"class.std::__cxx11::basic_string", %"class.std::__cxx11::basic_string", %"class.std::__cxx11::basic_string", %"class.std::__cxx11::basic_string", %"class.std::__cxx11::basic_string", %"class.std::__cxx11::basic_string", i8, i8, i8, [5 x i8] }>
%"class.std::__cxx11::basic_string" = type { %"struct.std::__cxx11::basic_string<char>::_Alloc_hider", i64, %union.anon }
%"struct.std::__cxx11::basic_string<char>::_Alloc_hider" = type { ptr }
%union.anon = type { i64, [8 x i8] }
%"class.std::basic_ostream" = type { ptr, %"class.std::basic_ios" }
%"class.std::basic_ios" = type { %"class.std::ios_base", ptr, i8, i8, ptr, ptr, ptr, ptr }
%"class.std::ios_base" = type { ptr, i64, i64, i32, i32, i32, ptr, %"struct.std::ios_base::_Words", [8 x %"struct.std::ios_base::_Words"], i32, ptr, %"class.std::locale" }
%"struct.std::ios_base::_Words" = type { ptr, i64 }
%"class.std::locale" = type { ptr }
%"class.kc::printer_functor_class" = type { ptr }
%"struct.kc::view_check_count_class" = type { %"class.kc::uview_class" }
%"class.kc::uview_class" = type { i32 }
%"struct.kc::view_check_class" = type { %"class.kc::uview_class" }
%"struct.kc::view_check_viewnames_class" = type { %"class.kc::uview_class" }
%"struct.kc::view_check_uniq_class" = type { %"class.kc::uview_class" }
%"struct.kc::view_checklanguagenames_class" = type { %"class.kc::uview_class" }
%"struct.kc::view_make_patternreps_class" = type { %"class.kc::uview_class" }
%class.kc_filePrinter = type <{ %"class.kc::printer_functor_class", ptr, i32, [4 x i8], %"class.std::__cxx11::basic_string", i32, i8, i8, [2 x i8], i32, i32, i8, i8, i8, i8, i8, i8, [2 x i8], ptr, i8, i8, [6 x i8] }>
%"struct.kc::view_gen_k_h_class" = type { %"class.kc::uview_class" }
%"struct.kc::view_gen_k_c_class" = type { %"class.kc::uview_class" }
%"struct.kc::view_gen_enumphyla_h_class" = type { %"class.kc::uview_class" }
%"struct.kc::view_gen_enumoperators_h_class" = type { %"class.kc::uview_class" }
%"struct.kc::view_gen_classdecls1_h_class" = type { %"class.kc::uview_class" }
%"struct.kc::view_gen_nodetypedefs_h_class" = type { %"class.kc::uview_class" }
%"struct.kc::view_gen_operatormap_type_h_class" = type { %"class.kc::uview_class" }
%"struct.kc::view_gen_subphylumdefs_c_class" = type { %"class.kc::uview_class" }
%"struct.kc::view_gen_set_subphylumdefs_c_class" = type { %"class.kc::uview_class" }
%"struct.kc::view_gen_copy_attributes_c_class" = type { %"class.kc::uview_class" }
%"struct.kc::view_gen_phylummap_c_class" = type { %"class.kc::uview_class" }
%"struct.kc::view_gen_operatormap_c_class" = type { %"class.kc::uview_class" }
%"struct.kc::view_gen_uniqmap_c_class" = type { %"class.kc::uview_class" }
%"struct.kc::view_gen_nodetypes_h_class" = type { %"class.kc::uview_class" }
%"struct.kc::view_gen_noofoperators_h_class" = type { %"class.kc::uview_class" }
%"struct.kc::view_close_namespace_class" = type { %"class.kc::uview_class" }
%"struct.kc::view_gen_includes_class" = type { %"class.kc::uview_class" }
%"struct.kc::view_open_namespace_class" = type { %"class.kc::uview_class" }
%"struct.kc::view_gen_assertmacros_h_class" = type { %"class.kc::uview_class" }
%"struct.kc::view_gen_assertmacros_c_class" = type { %"class.kc::uview_class" }
%"struct.kc::view_gen_operatordecls_h_class" = type { %"class.kc::uview_class" }
%"struct.kc::view_gen_classdecls2_h_class" = type { %"class.kc::uview_class" }
%"struct.kc::view_gen_classdefs_c_class" = type { %"class.kc::uview_class" }
%"struct.kc::view_gen_alloc_h_class" = type { %"class.kc::uview_class" }
%"struct.kc::view_gen_alloc_c_class" = type { %"class.kc::uview_class" }
%"struct.kc::view_gen_hashtables_h_class" = type { %"class.kc::uview_class" }
%"struct.kc::view_gen_operatordefs_c_class" = type { %"class.kc::uview_class" }
%"struct.kc::view_gen_hashtables_c_class" = type { %"class.kc::uview_class" }
%"struct.kc::view_gen_error_decls_h_class" = type { %"class.kc::uview_class" }
%"struct.kc::view_gen_error_defs_c_class" = type { %"class.kc::uview_class" }
%"struct.kc::view_gen_printdotdecls_h_class" = type { %"class.kc::uview_class" }
%"struct.kc::view_gen_printdotdefs_c_class" = type { %"class.kc::uview_class" }
%"struct.kc::view_gen_listdefs_c_class" = type { %"class.kc::uview_class" }
%"struct.kc::view_gen_copydefs_c_class" = type { %"class.kc::uview_class" }
%"struct.kc::view_gen_end_k_h_class" = type { %"class.kc::uview_class" }
%"struct.kc::view_gen_csgio_start_h_class" = type { %"class.kc::uview_class" }
%"struct.kc::view_gen_csgio_h_class" = type { %"class.kc::uview_class" }
%"struct.kc::view_gen_csgio_end_h_class" = type { %"class.kc::uview_class" }
%"struct.kc::view_gen_csgio_start_c_class" = type { %"class.kc::uview_class" }
%"struct.kc::view_gen_csgio_c_class" = type { %"class.kc::uview_class" }
%"struct.kc::view_gen_unpk_h_class" = type { %"class.kc::uview_class" }
%"struct.kc::view_uview_class_decl_class" = type { %"class.kc::uview_class" }
%"struct.kc::view_gen_unparsedecls_h_class" = type { %"class.kc::uview_class" }
%"struct.kc::view_gen_end_unpk_h_class" = type { %"class.kc::uview_class" }
%"struct.kc::view_gen_unpk_c_class" = type { %"class.kc::uview_class" }
%"struct.kc::view_gen_default_types_unpk_c_class" = type { %"class.kc::uview_class" }
%"struct.kc::view_gen_unparsedefs_c_class" = type { %"class.kc::uview_class" }
%"struct.kc::view_gen_rewritek_h_class" = type { %"class.kc::uview_class" }
%"struct.kc::view_rview_class_decl_class" = type { %"class.kc::uview_class" }
%"struct.kc::view_gen_rewritedecls_h_class" = type { %"class.kc::uview_class" }
%"struct.kc::view_gen_end_rewritek_h_class" = type { %"class.kc::uview_class" }
%"struct.kc::view_gen_rewritek_c_class" = type { %"class.kc::uview_class" }
%"struct.kc::view_gen_rewritedefs_c_class" = type { %"class.kc::uview_class" }
%"struct.kc::view_gen_fns_start_h_class" = type { %"class.kc::uview_class" }
%"struct.kc::view_gen_fnk_h_class" = type { %"class.kc::uview_class" }
%"struct.kc::view_gen_fns_end_h_class" = type { %"class.kc::uview_class" }
%"struct.kc::view_gen_fns_start_c_class" = type { %"class.kc::uview_class" }
%"struct.kc::view_gen_fns_owninclude_c_class" = type { %"class.kc::uview_class" }
%"struct.kc::view_gen_fnkdecls_c_class" = type { %"class.kc::uview_class" }
%"struct.kc::view_gen_fnk_c_class" = type { %"class.kc::uview_class" }
%"struct.kc::view_gen_operatorcast_h_class" = type { %"class.kc::uview_class" }
%"struct.kc::view_gen_yaccstacktype_h_class" = type { %"class.kc::uview_class" }
%"struct.kc::view_gen_yxx_union_h_class" = type { %"class.kc::uview_class" }
%"class.kc::impl_casestring__Str" = type { %"class.kc::impl_abstract_phylum", ptr }
%"class.kc::impl_abstract_phylum" = type { ptr }
%"class.std::ctype" = type <{ %"class.std::locale::facet.base", [4 x i8], ptr, i8, [7 x i8], ptr, ptr, ptr, i8, [256 x i8], [256 x i8], i8, [6 x i8] }>
%"class.std::locale::facet.base" = type <{ ptr, i32 }>
%"class.std::vector" = type { %"struct.std::_Vector_base" }
%"struct.std::_Vector_base" = type { %"struct.std::_Vector_base<std::__cxx11::basic_string<char>, std::allocator<std::__cxx11::basic_string<char>>>::_Vector_impl" }
%"struct.std::_Vector_base<std::__cxx11::basic_string<char>, std::allocator<std::__cxx11::basic_string<char>>>::_Vector_impl" = type { %"struct.std::_Vector_base<std::__cxx11::basic_string<char>, std::allocator<std::__cxx11::basic_string<char>>>::_Vector_impl_data" }
%"struct.std::_Vector_base<std::__cxx11::basic_string<char>, std::allocator<std::__cxx11::basic_string<char>>>::_Vector_impl_data" = type { ptr, ptr, ptr }
%"class.kc::impl_includefile" = type { %"class.kc::impl_abstract_phylum", i32, %class.twoIncludedeclarations }
%class.twoIncludedeclarations = type { ptr, ptr }
%"class.kc::impl_fnfile" = type { %"class.kc::impl_abstract_phylum", ptr }
%"class.kc::impl_fnfiles" = type { %"class.kc::impl_abstract_list", ptr, ptr }
%"class.kc::impl_abstract_list" = type { %"class.kc::impl_abstract_phylum" }
%"class.kc::impl_phylumdeclarations" = type { %"class.kc::impl_abstract_list", ptr, ptr }
%"class.kc::impl_phylumdeclaration_PhylumDeclaration" = type { %"class.kc::impl_phylumdeclaration", ptr, ptr, ptr, ptr }
%"class.kc::impl_phylumdeclaration" = type { %"class.kc::impl_abstract_phylum", i32, ptr, ptr }
%"class.kc::impl_productionblock_NonlistAlternatives" = type { %"class.kc::impl_productionblock", ptr }
%"class.kc::impl_productionblock" = type { %"class.kc::impl_abstract_phylum" }
%"class.kc::impl_alternatives" = type { %"class.kc::impl_abstract_list", ptr, ptr }
%"class.kc::impl_unparseviewsinfo" = type { %"class.kc::impl_abstract_list", ptr, ptr }
%"class.kc::impl_unparseviewinfo_Unparseviewinfo" = type { %"class.kc::impl_unparseviewinfo", ptr, ptr }
%"class.kc::impl_unparseviewinfo" = type { %"class.kc::impl_abstract_phylum" }
%"class.kc::impl_rewriteviewsinfo" = type { %"class.kc::impl_abstract_list", ptr, ptr }
%"class.kc::impl_rewriteviewinfo_Rewriteviewinfo" = type { %"class.kc::impl_rewriteviewinfo", ptr, ptr }
%"class.kc::impl_rewriteviewinfo" = type { %"class.kc::impl_abstract_phylum" }
%"class.kc::impl_productionblock_ListAlternatives" = type { %"class.kc::impl_productionblock", ptr, ptr }
%"class.kc::impl_fnfile_FnFile" = type { %"class.kc::impl_fnfile", ptr }
%struct.stat = type { i64, i64, i64, i32, i32, i32, i32, i64, i64, i64, i64, %struct.timespec, %struct.timespec, %struct.timespec, [3 x i64] }
%struct.timespec = type { i64, i64 }

$_ZN15cmdline_optionsD2Ev = comdat any

$_ZStplIcSt11char_traitsIcESaIcEENSt7__cxx1112basic_stringIT_T0_T1_EERKS8_PKS5_ = comdat any

$_ZStplIcSt11char_traitsIcESaIcEENSt7__cxx1112basic_stringIT_T0_T1_EEOS8_RKS8_ = comdat any

$_ZStplIcSt11char_traitsIcESaIcEENSt7__cxx1112basic_stringIT_T0_T1_EEOS8_PKS5_ = comdat any

$_ZStplIcSt11char_traitsIcESaIcEENSt7__cxx1112basic_stringIT_T0_T1_EEPKS5_RKS8_ = comdat any

$_ZStneIcSt11char_traitsIcESaIcEEbRKNSt7__cxx1112basic_stringIT_T0_T1_EEPKS5_ = comdat any

$_ZStplIcSt11char_traitsIcESaIcEENSt7__cxx1112basic_stringIT_T0_T1_EERKS8_SA_ = comdat any

$_ZNSt6vectorINSt7__cxx1112basic_stringIcSt11char_traitsIcESaIcEEESaIS5_EED2Ev = comdat any

$_ZNSt6vectorINSt7__cxx1112basic_stringIcSt11char_traitsIcESaIcEEESaIS5_EE17_M_realloc_insertIJS5_EEEvN9__gnu_cxx17__normal_iteratorIPS5_S7_EEDpOT_ = comdat any

@kimwitu_copyright = dso_local local_unnamed_addr global [13 x i8] c"@(#)$Author$\00", align 1
@g_progname = dso_local local_unnamed_addr global ptr null, align 8
@.str = private unnamed_addr constant [7 x i8] c"#line \00", align 1
@pg_line = dso_local local_unnamed_addr global ptr @.str, align 8
@g_options = dso_local global %struct.cmdline_options zeroinitializer, align 8
@__dso_handle = external hidden global i8
@stderr = external local_unnamed_addr global ptr, align 8
@.str.1 = private unnamed_addr constant [37 x i8] c"%s: received signal %d, cleaning up\0A\00", align 1
@.str.2 = private unnamed_addr constant [30 x i8] c"kc++: segmentation violation\0A\00", align 1
@.str.3 = private unnamed_addr constant [35 x i8] c"kc++: something horrible happened\0A\00", align 1
@yydebug = external local_unnamed_addr global i32, align 4
@.str.4 = private unnamed_addr constant [6 x i8] c"stdin\00", align 1
@pg_filename = external local_unnamed_addr global ptr, align 8
@gp_no_fatal_problems = external local_unnamed_addr global i8, align 1
@pg_uviewshavebeendefined = external local_unnamed_addr global i8, align 1
@pg_rviewshavebeendefined = external local_unnamed_addr global i8, align 1
@pg_storageclasseshavebeendefined = external local_unnamed_addr global i8, align 1
@pg_lineno = external local_unnamed_addr global i32, align 4
@pg_column = external local_unnamed_addr global i32, align 4
@pg_charpos = external local_unnamed_addr global i32, align 4
@_ZSt4cout = external global %"class.std::basic_ostream", align 8
@.str.5 = private unnamed_addr constant [24 x i8] c"Reading input files ...\00", align 1
@.str.6 = private unnamed_addr constant [10 x i8] c" - done.\0A\00", align 1
@Thebindingidmarks = external local_unnamed_addr global ptr, align 8
@.str.7 = private unnamed_addr constant [17 x i8] c"Checking input.\0A\00", align 1
@Thephylumdeclarations = external local_unnamed_addr global ptr, align 8
@v_null_printer = external global %"class.kc::printer_functor_class", align 8
@_ZN2kc16view_check_countE = external global %"struct.kc::view_check_count_class", align 4
@_ZN2kc10view_checkE = external global %"struct.kc::view_check_class", align 4
@Therwdeclarations = external local_unnamed_addr global ptr, align 8
@Thefnfiles = external local_unnamed_addr global ptr, align 8
@Thebaseclasses = external local_unnamed_addr global ptr, align 8
@Theunparsedeclarations = external local_unnamed_addr global ptr, align 8
@_ZN2kc20view_check_viewnamesE = external global %"struct.kc::view_check_viewnames_class", align 4
@_ZN2kc15view_check_uniqE = external global %"struct.kc::view_check_uniq_class", align 4
@_ZN2kc23view_checklanguagenamesE = external global %"struct.kc::view_checklanguagenames_class", align 4
@_ZN2kc21view_make_patternrepsE = external global %"struct.kc::view_make_patternreps_class", align 4
@Theuviewnames = external local_unnamed_addr global ptr, align 8
@Therviewnames = external local_unnamed_addr global ptr, align 8
@pg_languageshavebeendefined = external local_unnamed_addr global i8, align 1
@Theargsnumbers = external local_unnamed_addr global ptr, align 8
@.str.8 = private unnamed_addr constant [25 x i8] c"Writing output files ...\00", align 1
@v_hfile_printer = external global %class.kc_filePrinter, align 8
@.str.9 = private unnamed_addr constant [10 x i8] c".k.h.temp\00", align 1
@.str.10 = private unnamed_addr constant [2 x i8] c"w\00", align 1
@.str.11 = private unnamed_addr constant [4 x i8] c"k.h\00", align 1
@v_ccfile_printer = external global %class.kc_filePrinter, align 8
@.str.12 = private unnamed_addr constant [12 x i8] c".kc.cc.temp\00", align 1
@.str.13 = private unnamed_addr constant [3 x i8] c"k.\00", align 1
@.str.14 = private unnamed_addr constant [2 x i8] c" \00", align 1
@.str.15 = private unnamed_addr constant [2 x i8] c"k\00", align 1
@_ZN2kc12view_gen_k_hE = external global %"struct.kc::view_gen_k_h_class", align 4
@_ZN2kc12view_gen_k_cE = external global %"struct.kc::view_gen_k_c_class", align 4
@_ZN2kc20view_gen_enumphyla_hE = external global %"struct.kc::view_gen_enumphyla_h_class", align 4
@_ZN2kc24view_gen_enumoperators_hE = external global %"struct.kc::view_gen_enumoperators_h_class", align 4
@_ZN2kc22view_gen_classdecls1_hE = external global %"struct.kc::view_gen_classdecls1_h_class", align 4
@_ZN2kc23view_gen_nodetypedefs_hE = external global %"struct.kc::view_gen_nodetypedefs_h_class", align 4
@_ZN2kc27view_gen_operatormap_type_hE = external global %"struct.kc::view_gen_operatormap_type_h_class", align 4
@_ZN2kc24view_gen_subphylumdefs_cE = external global %"struct.kc::view_gen_subphylumdefs_c_class", align 4
@_ZN2kc28view_gen_set_subphylumdefs_cE = external global %"struct.kc::view_gen_set_subphylumdefs_c_class", align 4
@_ZN2kc26view_gen_copy_attributes_cE = external global %"struct.kc::view_gen_copy_attributes_c_class", align 4
@_ZN2kc20view_gen_phylummap_cE = external global %"struct.kc::view_gen_phylummap_c_class", align 4
@_ZN2kc22view_gen_operatormap_cE = external global %"struct.kc::view_gen_operatormap_c_class", align 4
@Thestorageclasses = external local_unnamed_addr global ptr, align 8
@_ZN2kc18view_gen_uniqmap_cE = external global %"struct.kc::view_gen_uniqmap_c_class", align 4
@_ZN2kc20view_gen_nodetypes_hE = external global %"struct.kc::view_gen_nodetypes_h_class", align 4
@_ZN2kc24view_gen_noofoperators_hE = external global %"struct.kc::view_gen_noofoperators_h_class", align 4
@_ZN2kc20view_close_namespaceE = external global %"struct.kc::view_close_namespace_class", align 4
@.str.16 = private unnamed_addr constant [16 x i8] c"KC_TYPES_HEADER\00", align 1
@_ZN2kc17view_gen_includesE = external global %"struct.kc::view_gen_includes_class", align 4
@.str.17 = private unnamed_addr constant [9 x i8] c"KC_TYPES\00", align 1
@_ZN2kc19view_open_namespaceE = external global %"struct.kc::view_open_namespace_class", align 4
@_ZN2kc23view_gen_assertmacros_hE = external global %"struct.kc::view_gen_assertmacros_h_class", align 4
@_ZN2kc23view_gen_assertmacros_cE = external global %"struct.kc::view_gen_assertmacros_c_class", align 4
@_ZN2kc24view_gen_operatordecls_hE = external global %"struct.kc::view_gen_operatordecls_h_class", align 4
@_ZN2kc22view_gen_classdecls2_hE = external global %"struct.kc::view_gen_classdecls2_h_class", align 4
@_ZN2kc20view_gen_classdefs_cE = external global %"struct.kc::view_gen_classdefs_c_class", align 4
@_ZN2kc16view_gen_alloc_hE = external global %"struct.kc::view_gen_alloc_h_class", align 4
@_ZN2kc16view_gen_alloc_cE = external global %"struct.kc::view_gen_alloc_c_class", align 4
@_ZN2kc21view_gen_hashtables_hE = external global %"struct.kc::view_gen_hashtables_h_class", align 4
@_ZN2kc23view_gen_operatordefs_cE = external global %"struct.kc::view_gen_operatordefs_c_class", align 4
@_ZN2kc21view_gen_hashtables_cE = external global %"struct.kc::view_gen_hashtables_c_class", align 4
@_ZN2kc22view_gen_error_decls_hE = external global %"struct.kc::view_gen_error_decls_h_class", align 4
@_ZN2kc21view_gen_error_defs_cE = external global %"struct.kc::view_gen_error_defs_c_class", align 4
@_ZN2kc24view_gen_printdotdecls_hE = external global %"struct.kc::view_gen_printdotdecls_h_class", align 4
@_ZN2kc23view_gen_printdotdefs_cE = external global %"struct.kc::view_gen_printdotdefs_c_class", align 4
@_ZN2kc19view_gen_listdefs_cE = external global %"struct.kc::view_gen_listdefs_c_class", align 4
@_ZN2kc19view_gen_copydefs_cE = external global %"struct.kc::view_gen_copydefs_c_class", align 4
@_ZN2kc16view_gen_end_k_hE = external global %"struct.kc::view_gen_end_k_h_class", align 4
@.str.18 = private unnamed_addr constant [36 x i8] c"writing temporary k.cc file failed:\00", align 1
@.str.19 = private unnamed_addr constant [35 x i8] c"writing temporary k.h file failed:\00", align 1
@.str.20 = private unnamed_addr constant [9 x i8] c"csgiok.h\00", align 1
@.str.21 = private unnamed_addr constant [8 x i8] c"csgiok.\00", align 1
@.str.22 = private unnamed_addr constant [7 x i8] c"csgiok\00", align 1
@_ZN2kc22view_gen_csgio_start_hE = external global %"struct.kc::view_gen_csgio_start_h_class", align 4
@.str.23 = private unnamed_addr constant [16 x i8] c"KC_CSGIO_HEADER\00", align 1
@_ZN2kc16view_gen_csgio_hE = external global %"struct.kc::view_gen_csgio_h_class", align 4
@_ZN2kc20view_gen_csgio_end_hE = external global %"struct.kc::view_gen_csgio_end_h_class", align 4
@_ZN2kc22view_gen_csgio_start_cE = external global %"struct.kc::view_gen_csgio_start_c_class", align 4
@.str.24 = private unnamed_addr constant [9 x i8] c"KC_CSGIO\00", align 1
@_ZN2kc16view_gen_csgio_cE = external global %"struct.kc::view_gen_csgio_c_class", align 4
@.str.25 = private unnamed_addr constant [41 x i8] c"writing temporary csgiok.cc file failed:\00", align 1
@.str.26 = private unnamed_addr constant [40 x i8] c"writing temporary csgiok.h file failed:\00", align 1
@.str.27 = private unnamed_addr constant [7 x i8] c"unpk.h\00", align 1
@.str.28 = private unnamed_addr constant [6 x i8] c"unpk.\00", align 1
@.str.29 = private unnamed_addr constant [5 x i8] c"unpk\00", align 1
@_ZN2kc15view_gen_unpk_hE = external global %"struct.kc::view_gen_unpk_h_class", align 4
@.str.30 = private unnamed_addr constant [18 x i8] c"KC_UNPARSE_HEADER\00", align 1
@_ZN2kc21view_uview_class_declE = external global %"struct.kc::view_uview_class_decl_class", align 4
@_ZN2kc23view_gen_unparsedecls_hE = external global %"struct.kc::view_gen_unparsedecls_h_class", align 4
@_ZN2kc19view_gen_end_unpk_hE = external global %"struct.kc::view_gen_end_unpk_h_class", align 4
@_ZN2kc15view_gen_unpk_cE = external global %"struct.kc::view_gen_unpk_c_class", align 4
@.str.31 = private unnamed_addr constant [11 x i8] c"KC_UNPARSE\00", align 1
@_ZN2kc29view_gen_default_types_unpk_cE = external global %"struct.kc::view_gen_default_types_unpk_c_class", align 4
@_ZN2kc22view_gen_unparsedefs_cE = external global %"struct.kc::view_gen_unparsedefs_c_class", align 4
@.str.32 = private unnamed_addr constant [39 x i8] c"writing temporary unpk.cc file failed:\00", align 1
@.str.33 = private unnamed_addr constant [38 x i8] c"writing temporary unpk.h file failed:\00", align 1
@.str.34 = private unnamed_addr constant [5 x i8] c"rk.h\00", align 1
@.str.35 = private unnamed_addr constant [4 x i8] c"rk.\00", align 1
@.str.36 = private unnamed_addr constant [3 x i8] c"rk\00", align 1
@_ZN2kc19view_gen_rewritek_hE = external global %"struct.kc::view_gen_rewritek_h_class", align 4
@.str.37 = private unnamed_addr constant [18 x i8] c"KC_REWRITE_HEADER\00", align 1
@_ZN2kc21view_rview_class_declE = external global %"struct.kc::view_rview_class_decl_class", align 4
@_ZN2kc23view_gen_rewritedecls_hE = external global %"struct.kc::view_gen_rewritedecls_h_class", align 4
@_ZN2kc23view_gen_end_rewritek_hE = external global %"struct.kc::view_gen_end_rewritek_h_class", align 4
@_ZN2kc19view_gen_rewritek_cE = external global %"struct.kc::view_gen_rewritek_c_class", align 4
@.str.38 = private unnamed_addr constant [11 x i8] c"KC_REWRITE\00", align 1
@_ZN2kc22view_gen_rewritedefs_cE = external global %"struct.kc::view_gen_rewritedefs_c_class", align 4
@.str.39 = private unnamed_addr constant [37 x i8] c"writing temporary rk.cc file failed:\00", align 1
@.str.40 = private unnamed_addr constant [36 x i8] c"writing temporary rk.h file failed:\00", align 1
@.str.41 = private unnamed_addr constant [2 x i8] c"h\00", align 1
@.str.42 = private unnamed_addr constant [1 x i8] zeroinitializer, align 1
@_ZN2kc20view_gen_fns_start_hE = external global %"struct.kc::view_gen_fns_start_h_class", align 4
@.str.43 = private unnamed_addr constant [23 x i8] c"KC_FUNCTIONS_%s_HEADER\00", align 1
@_ZN2kc14view_gen_fnk_hE = external global %"struct.kc::view_gen_fnk_h_class", align 4
@_ZN2kc18view_gen_fns_end_hE = external global %"struct.kc::view_gen_fns_end_h_class", align 4
@_ZN2kc20view_gen_fns_start_cE = external global %"struct.kc::view_gen_fns_start_c_class", align 4
@_ZN2kc25view_gen_fns_owninclude_cE = external global %"struct.kc::view_gen_fns_owninclude_c_class", align 4
@.str.44 = private unnamed_addr constant [16 x i8] c"KC_FUNCTIONS_%s\00", align 1
@_ZN2kc19view_gen_fnkdecls_cE = external global %"struct.kc::view_gen_fnkdecls_c_class", align 4
@_ZN2kc14view_gen_fnk_cE = external global %"struct.kc::view_gen_fnk_c_class", align 4
@.str.45 = private unnamed_addr constant [19 x i8] c"writing temporary \00", align 1
@.str.46 = private unnamed_addr constant [14 x i8] c" file failed:\00", align 1
@.str.47 = private unnamed_addr constant [5 x i8] c"main\00", align 1
@.str.48 = private unnamed_addr constant [60 x i8] c"/home/npopov/repos/llvm-test-suite/CTMark/kimwitu++/main.cc\00", align 1
@.str.49 = private unnamed_addr constant [12 x i8] c"operatork.h\00", align 1
@_ZN2kc23view_gen_operatorcast_hE = external global %"struct.kc::view_gen_operatorcast_h_class", align 4
@.str.50 = private unnamed_addr constant [43 x i8] c"writing temporary operatork.h file failed:\00", align 1
@_ZN2kc24view_gen_yaccstacktype_hE = external global %"struct.kc::view_gen_yaccstacktype_h_class", align 4
@.str.51 = private unnamed_addr constant [12 x i8] c"yxx_union.h\00", align 1
@_ZN2kc20view_gen_yxx_union_hE = external global %"struct.kc::view_gen_yxx_union_h_class", align 4
@.str.52 = private unnamed_addr constant [43 x i8] c"writing temporary yxx_union.h file failed:\00", align 1
@.str.55 = private unnamed_addr constant [5 x i8] c"kc++\00", align 1
@.str.56 = private unnamed_addr constant [33 x i8] c"crudts:f:n:e:mwlb::yop:M:qvW::hV\00", align 1
@optarg = external local_unnamed_addr global ptr, align 8
@.str.57 = private unnamed_addr constant [41 x i8] c"Can't be quiet when asked to be verbose.\00", align 1
@.str.58 = private unnamed_addr constant [41 x i8] c"Can't be verbose when asked to be quiet.\00", align 1
@.str.59 = private unnamed_addr constant [5 x i8] c"drop\00", align 1
@.str.60 = private unnamed_addr constant [7 x i8] c"nodrop\00", align 1
@.str.61 = private unnamed_addr constant [6 x i8] c"equiv\00", align 1
@.str.62 = private unnamed_addr constant [8 x i8] c"noequiv\00", align 1
@.str.63 = private unnamed_addr constant [8 x i8] c"overlap\00", align 1
@.str.64 = private unnamed_addr constant [10 x i8] c"noverlapo\00", align 1
@.str.65 = private unnamed_addr constant [28 x i8] c"Unknown warning sub-option:\00", align 1
@.str.66 = private unnamed_addr constant [10 x i8] c"yystype.h\00", align 1
@.str.67 = private unnamed_addr constant [43 x i8] c"Covariant option must be yes or no or pre.\00", align 1
@.str.68 = private unnamed_addr constant [9 x i8] c"// line \00", align 1
@.str.69 = private unnamed_addr constant [9 x i8] c"stdafx.h\00", align 1
@.str.70 = private unnamed_addr constant [20 x i8] c"Do you really want \00", align 1
@.str.71 = private unnamed_addr constant [15 x i8] c" as dllexport?\00", align 1
@optind = external local_unnamed_addr global i32, align 4
@.str.72 = private unnamed_addr constant [34 x i8] c"input file must have '.k' suffix:\00", align 1
@.str.73 = private unnamed_addr constant [4 x i8] c"k.k\00", align 1
@.str.74 = private unnamed_addr constant [5 x i8] c"rk.k\00", align 1
@.str.75 = private unnamed_addr constant [7 x i8] c"unpk.k\00", align 1
@.str.76 = private unnamed_addr constant [9 x i8] c"csgiok.k\00", align 1
@.str.77 = private unnamed_addr constant [8 x i8] c"stdin.k\00", align 1
@.str.78 = private unnamed_addr constant [28 x i8] c"reserved file mybasenames '\00", align 1
@.str.79 = private unnamed_addr constant [8 x i8] c"k.k', '\00", align 1
@.str.80 = private unnamed_addr constant [9 x i8] c"rk.k', '\00", align 1
@.str.81 = private unnamed_addr constant [11 x i8] c"unpk.k', '\00", align 1
@.str.82 = private unnamed_addr constant [37 x i8] c"csgiok.k' and 'stdin.k' not allowed:\00", align 1
@.str.83 = private unnamed_addr constant [2 x i8] c"r\00", align 1
@yyin = external local_unnamed_addr global ptr, align 8
@.str.84 = private unnamed_addr constant [13 x i8] c"cannot open \00", align 1
@_ZL14inputfilenames = internal unnamed_addr global ptr null, align 8
@_ZL13no_inputfiles = internal unnamed_addr global i32 0, align 4
@_ZL17current_inputfile = internal unnamed_addr global i32 0, align 4
@.str.85 = private unnamed_addr constant [265 x i8] c"Kimwitu++ version %s\0A\0ACopyright (C) 1997-2003 Michael Piefel, Humboldt-University Berlin\0AKimwitu++ comes with ABSOLUTELY NO WARRANTY; for details see GPL.\0AThis is free software, and you are welcome to redistribute it under\0Acertain conditions; for details see GPL.\0A\00", align 1
@_ZL15kimwitu_version = internal global [6 x i8] c"2.3.8\00", align 1
@.str.86 = private unnamed_addr constant [30 x i8] c"Usage: %s [options] file...\0A\0A\00", align 1
@.str.91 = private unnamed_addr constant [924 x i8] c"  Other:\0A  -M, --msg-format=PAT    specifies format of (error) messages, PAT can contain:\0A                            %%p (program name), %%s (severity), %%f (file name),\0A                            %%d (current working directory), %%l (line number),\0A                            %%c (column); the actual message is appended\0A  -q, --quiet             quiet operation\0A  -v, --verbose           print additional status information while processing\0A  -W                      enable all warnings; use comma-seperated list for\0A                            detailed control (can be prefixed with 'no')\0A                            drop - dropped rule bodies (no code generated)\0A                            equiv - equivalent patterns (cannot match)\0A                            overlap - possibly overlapping patterns\0A  -h, --help              display this help and exit\0A  -V, --version           output version information and exit\0A\00", align 1
@.str.92 = private unnamed_addr constant [26 x i8] c"vector::_M_realloc_insert\00", align 1
@.str.93 = private unnamed_addr constant [7 x i8] c"HEADER\00", align 1
@.str.94 = private unnamed_addr constant [5 x i8] c"CODE\00", align 1
@.str.95 = private unnamed_addr constant [11 x i8] c"base_uview\00", align 1
@.str.96 = private unnamed_addr constant [11 x i8] c"base_rview\00", align 1
@.str.97 = private unnamed_addr constant [12 x i8] c"kc_not_uniq\00", align 1
@.str.98 = private unnamed_addr constant [5 x i8] c"uniq\00", align 1
@The_abstract_phylum_decl = external local_unnamed_addr global ptr, align 8
@The_abstract_phylum_ref_decl = external local_unnamed_addr global ptr, align 8
@The_abstract_list_decl = external local_unnamed_addr global ptr, align 8
@Thefndeclarations = external local_unnamed_addr global ptr, align 8
@Thelanguages = external local_unnamed_addr global ptr, align 8
@_ZTIi = external constant ptr
@.str.99 = private unnamed_addr constant [16 x i8] c"abstract_phylum\00", align 1
@.str.100 = private unnamed_addr constant [20 x i8] c"abstract_phylum_ref\00", align 1
@.str.101 = private unnamed_addr constant [14 x i8] c"abstract_list\00", align 1
@.str.102 = private unnamed_addr constant [8 x i8] c"voidptr\00", align 1
@.str.103 = private unnamed_addr constant [9 x i8] c"_VoidPtr\00", align 1
@.str.104 = private unnamed_addr constant [8 x i8] c"integer\00", align 1
@.str.105 = private unnamed_addr constant [5 x i8] c"_Int\00", align 1
@.str.106 = private unnamed_addr constant [5 x i8] c"real\00", align 1
@.str.107 = private unnamed_addr constant [6 x i8] c"_Real\00", align 1
@.str.108 = private unnamed_addr constant [11 x i8] c"casestring\00", align 1
@.str.109 = private unnamed_addr constant [5 x i8] c"_Str\00", align 1
@.str.110 = private unnamed_addr constant [13 x i8] c"nocasestring\00", align 1
@.str.111 = private unnamed_addr constant [10 x i8] c"NoCaseStr\00", align 1
@.str.112 = private unnamed_addr constant [45 x i8] c"kc++ error (in 'compare_and_delete_or_move')\00", align 1
@.str.113 = private unnamed_addr constant [30 x i8] c"could not open temporary file\00", align 1
@.str.114 = private unnamed_addr constant [20 x i8] c"error while closing\00", align 1
@.str.115 = private unnamed_addr constant [12 x i8] c"(unchanged:\00", align 1
@.str.116 = private unnamed_addr constant [26 x i8] c"kc++ error (in 'erename')\00", align 1
@.str.117 = private unnamed_addr constant [21 x i8] c"error while renaming\00", align 1
@.str.118 = private unnamed_addr constant [3 x i8] c"to\00", align 1
@.str.119 = private unnamed_addr constant [28 x i8] c"kc++ error (in 'different')\00", align 1
@.str.120 = private unnamed_addr constant [15 x i8] c"error stat'ing\00", align 1
@.str.121 = private unnamed_addr constant [25 x i8] c"error while reading from\00", align 1
@.str.122 = private unnamed_addr constant [26 x i8] c"kc++ error (in 'eremove')\00", align 1
@.str.123 = private unnamed_addr constant [21 x i8] c"error while removing\00", align 1
@.str.124 = private unnamed_addr constant [31 x i8] c"writing temporary file failed:\00", align 1
@.str.125 = private unnamed_addr constant [10 x i8] c"removing \00", align 1
@.str.126 = private unnamed_addr constant [21 x i8] c"basic_string::append\00", align 1
@llvm.global_ctors = appending global [1 x { i32, ptr, ptr }] [{ i32, ptr, ptr } { i32 65535, ptr @_GLOBAL__sub_I_main.cc, ptr null }]
@str = private unnamed_addr constant [551 x i8] c"Options:\0A  Kimwitu++ Features:\0A  -c, --no-csgio          no read/write functions (csgio.{h,cc}) are generated\0A  -r, --no-rewrite        no code for rewrite rules (rk.{h,cc}) is generated\0A  -u, --no-unparse        no code for unparse rules (unpk.{h,cc}) is generated\0A  -d, --no-printdot       no printdot functions are generated\0A  -t, --no-hashtables     no code for hashtables is generated (works only when\0A                            both --no-csgio and --no-printdot are specified)\0A      --operator-cast     generate operatork.h for operator_cast<>\00", align 1
@str.127 = private unnamed_addr constant [555 x i8] c"  C++ Compiler Options:\0A  -n, --covariant=C       use covariant return types: yes|no|pre\0A      --stdafx[=FILE]     include for Microsoft precompiled header files is\0A                            generated (default stdafx.h)\0A  -e, --dllexport=STRING  generates string between keyword class and the\0A                            class name of all operators and phyla\0A  -m, --smart-pointer     generates code for smart pointers (reference counting)\0A  -w, --weak-pointer      generates code for weak pointers\0A                            (implies --smart-pointer)\00", align 1
@str.128 = private unnamed_addr constant [404 x i8] c"  Files:\0A  -s, --suffix=EXT        extension for generated source files (default cc)\0A  -f, --file-prefix=PREF  prefix for generated files\0A  -o, --overwrite         always write generated files even if not changed.\0A  -b, --yystype[=FILE]    generates file (default yystype.h) containing YYSTYPE\0A                            for yacc or bison\0A  -y, --yxx-union         generates file yxx_union.h for yacc++\00", align 1
@str.129 = private unnamed_addr constant [402 x i8] c"  Advanced:\0A  -l, --no-linedirec      doesn't print line directives ('#line')\0A      --comment-line      print line comments ('//line') instead of directives\0A      --dir-line          prepends the current working directory to the file name in line directives\0A      --rw-loop           generates a non recursive rewrite function\0A  -p, --pipe=CMD          process all files while piping them through CMD.\00", align 1

; Function Attrs: inlinehint nounwind uwtable
define linkonce_odr dso_local void @_ZN15cmdline_optionsD2Ev(ptr noundef nonnull align 8 dereferenceable(347) %this) unnamed_addr #0 comdat align 2 personality ptr @__gxx_personality_v0 {
entry:
  %dir_line = getelementptr inbounds %struct.cmdline_options, ptr %this, i64 0, i32 26
  %0 = load ptr, ptr %dir_line, align 8, !tbaa !5
  %1 = getelementptr inbounds %struct.cmdline_options, ptr %this, i64 0, i32 26, i32 2
  %cmp.i.i.i = icmp eq ptr %0, %1
  br i1 %cmp.i.i.i, label %_ZNKSt7__cxx1112basic_stringIcSt11char_traitsIcESaIcEE11_M_is_localEv.exit.thread.i.i, label %if.then.i.i

_ZNKSt7__cxx1112basic_stringIcSt11char_traitsIcESaIcEE11_M_is_localEv.exit.thread.i.i: ; preds = %entry
  %_M_string_length.i.i.i = getelementptr inbounds %struct.cmdline_options, ptr %this, i64 0, i32 26, i32 1
  %2 = load i64, ptr %_M_string_length.i.i.i, align 8, !tbaa !12
  %cmp3.i.i.i = icmp ult i64 %2, 16
  tail call void @llvm.assume(i1 %cmp3.i.i.i)
  br label %_ZNSt7__cxx1112basic_stringIcSt11char_traitsIcESaIcEED2Ev.exit

if.then.i.i:                                      ; preds = %entry
  tail call void @_ZdlPv(ptr noundef %0) #31
  br label %_ZNSt7__cxx1112basic_stringIcSt11char_traitsIcESaIcEED2Ev.exit

_ZNSt7__cxx1112basic_stringIcSt11char_traitsIcESaIcEED2Ev.exit: ; preds = %_ZNKSt7__cxx1112basic_stringIcSt11char_traitsIcESaIcEE11_M_is_localEv.exit.thread.i.i, %if.then.i.i
  %msg_format = getelementptr inbounds %struct.cmdline_options, ptr %this, i64 0, i32 25
  %3 = load ptr, ptr %msg_format, align 8, !tbaa !5
  %4 = getelementptr inbounds %struct.cmdline_options, ptr %this, i64 0, i32 25, i32 2
  %cmp.i.i.i2 = icmp eq ptr %3, %4
  br i1 %cmp.i.i.i2, label %_ZNKSt7__cxx1112basic_stringIcSt11char_traitsIcESaIcEE11_M_is_localEv.exit.thread.i.i4, label %if.then.i.i3

_ZNKSt7__cxx1112basic_stringIcSt11char_traitsIcESaIcEE11_M_is_localEv.exit.thread.i.i4: ; preds = %_ZNSt7__cxx1112basic_stringIcSt11char_traitsIcESaIcEED2Ev.exit
  %_M_string_length.i.i.i5 = getelementptr inbounds %struct.cmdline_options, ptr %this, i64 0, i32 25, i32 1
  %5 = load i64, ptr %_M_string_length.i.i.i5, align 8, !tbaa !12
  %cmp3.i.i.i6 = icmp ult i64 %5, 16
  tail call void @llvm.assume(i1 %cmp3.i.i.i6)
  br label %_ZNSt7__cxx1112basic_stringIcSt11char_traitsIcESaIcEED2Ev.exit7

if.then.i.i3:                                     ; preds = %_ZNSt7__cxx1112basic_stringIcSt11char_traitsIcESaIcEED2Ev.exit
  tail call void @_ZdlPv(ptr noundef %3) #31
  br label %_ZNSt7__cxx1112basic_stringIcSt11char_traitsIcESaIcEED2Ev.exit7

_ZNSt7__cxx1112basic_stringIcSt11char_traitsIcESaIcEED2Ev.exit7: ; preds = %_ZNKSt7__cxx1112basic_stringIcSt11char_traitsIcESaIcEE11_M_is_localEv.exit.thread.i.i4, %if.then.i.i3
  %filter = getelementptr inbounds %struct.cmdline_options, ptr %this, i64 0, i32 24
  %6 = load ptr, ptr %filter, align 8, !tbaa !5
  %7 = getelementptr inbounds %struct.cmdline_options, ptr %this, i64 0, i32 24, i32 2
  %cmp.i.i.i8 = icmp eq ptr %6, %7
  br i1 %cmp.i.i.i8, label %_ZNKSt7__cxx1112basic_stringIcSt11char_traitsIcESaIcEE11_M_is_localEv.exit.thread.i.i10, label %if.then.i.i9

_ZNKSt7__cxx1112basic_stringIcSt11char_traitsIcESaIcEE11_M_is_localEv.exit.thread.i.i10: ; preds = %_ZNSt7__cxx1112basic_stringIcSt11char_traitsIcESaIcEED2Ev.exit7
  %_M_string_length.i.i.i11 = getelementptr inbounds %struct.cmdline_options, ptr %this, i64 0, i32 24, i32 1
  %8 = load i64, ptr %_M_string_length.i.i.i11, align 8, !tbaa !12
  %cmp3.i.i.i12 = icmp ult i64 %8, 16
  tail call void @llvm.assume(i1 %cmp3.i.i.i12)
  br label %_ZNSt7__cxx1112basic_stringIcSt11char_traitsIcESaIcEED2Ev.exit13

if.then.i.i9:                                     ; preds = %_ZNSt7__cxx1112basic_stringIcSt11char_traitsIcESaIcEED2Ev.exit7
  tail call void @_ZdlPv(ptr noundef %6) #31
  br label %_ZNSt7__cxx1112basic_stringIcSt11char_traitsIcESaIcEED2Ev.exit13

_ZNSt7__cxx1112basic_stringIcSt11char_traitsIcESaIcEED2Ev.exit13: ; preds = %_ZNKSt7__cxx1112basic_stringIcSt11char_traitsIcESaIcEE11_M_is_localEv.exit.thread.i.i10, %if.then.i.i9
  %suffix = getelementptr inbounds %struct.cmdline_options, ptr %this, i64 0, i32 23
  %9 = load ptr, ptr %suffix, align 8, !tbaa !5
  %10 = getelementptr inbounds %struct.cmdline_options, ptr %this, i64 0, i32 23, i32 2
  %cmp.i.i.i14 = icmp eq ptr %9, %10
  br i1 %cmp.i.i.i14, label %_ZNKSt7__cxx1112basic_stringIcSt11char_traitsIcESaIcEE11_M_is_localEv.exit.thread.i.i16, label %if.then.i.i15

_ZNKSt7__cxx1112basic_stringIcSt11char_traitsIcESaIcEE11_M_is_localEv.exit.thread.i.i16: ; preds = %_ZNSt7__cxx1112basic_stringIcSt11char_traitsIcESaIcEED2Ev.exit13
  %_M_string_length.i.i.i17 = getelementptr inbounds %struct.cmdline_options, ptr %this, i64 0, i32 23, i32 1
  %11 = load i64, ptr %_M_string_length.i.i.i17, align 8, !tbaa !12
  %cmp3.i.i.i18 = icmp ult i64 %11, 16
  tail call void @llvm.assume(i1 %cmp3.i.i.i18)
  br label %_ZNSt7__cxx1112basic_stringIcSt11char_traitsIcESaIcEED2Ev.exit19

if.then.i.i15:                                    ; preds = %_ZNSt7__cxx1112basic_stringIcSt11char_traitsIcESaIcEED2Ev.exit13
  tail call void @_ZdlPv(ptr noundef %9) #31
  br label %_ZNSt7__cxx1112basic_stringIcSt11char_traitsIcESaIcEED2Ev.exit19

_ZNSt7__cxx1112basic_stringIcSt11char_traitsIcESaIcEED2Ev.exit19: ; preds = %_ZNKSt7__cxx1112basic_stringIcSt11char_traitsIcESaIcEE11_M_is_localEv.exit.thread.i.i16, %if.then.i.i15
  %prefix = getelementptr inbounds %struct.cmdline_options, ptr %this, i64 0, i32 22
  %12 = load ptr, ptr %prefix, align 8, !tbaa !5
  %13 = getelementptr inbounds %struct.cmdline_options, ptr %this, i64 0, i32 22, i32 2
  %cmp.i.i.i20 = icmp eq ptr %12, %13
  br i1 %cmp.i.i.i20, label %_ZNKSt7__cxx1112basic_stringIcSt11char_traitsIcESaIcEE11_M_is_localEv.exit.thread.i.i22, label %if.then.i.i21

_ZNKSt7__cxx1112basic_stringIcSt11char_traitsIcESaIcEE11_M_is_localEv.exit.thread.i.i22: ; preds = %_ZNSt7__cxx1112basic_stringIcSt11char_traitsIcESaIcEED2Ev.exit19
  %_M_string_length.i.i.i23 = getelementptr inbounds %struct.cmdline_options, ptr %this, i64 0, i32 22, i32 1
  %14 = load i64, ptr %_M_string_length.i.i.i23, align 8, !tbaa !12
  %cmp3.i.i.i24 = icmp ult i64 %14, 16
  tail call void @llvm.assume(i1 %cmp3.i.i.i24)
  br label %_ZNSt7__cxx1112basic_stringIcSt11char_traitsIcESaIcEED2Ev.exit25

if.then.i.i21:                                    ; preds = %_ZNSt7__cxx1112basic_stringIcSt11char_traitsIcESaIcEED2Ev.exit19
  tail call void @_ZdlPv(ptr noundef %12) #31
  br label %_ZNSt7__cxx1112basic_stringIcSt11char_traitsIcESaIcEED2Ev.exit25

_ZNSt7__cxx1112basic_stringIcSt11char_traitsIcESaIcEED2Ev.exit25: ; preds = %_ZNKSt7__cxx1112basic_stringIcSt11char_traitsIcESaIcEE11_M_is_localEv.exit.thread.i.i22, %if.then.i.i21
  %dllexports = getelementptr inbounds %struct.cmdline_options, ptr %this, i64 0, i32 21
  %15 = load ptr, ptr %dllexports, align 8, !tbaa !5
  %16 = getelementptr inbounds %struct.cmdline_options, ptr %this, i64 0, i32 21, i32 2
  %cmp.i.i.i26 = icmp eq ptr %15, %16
  br i1 %cmp.i.i.i26, label %_ZNKSt7__cxx1112basic_stringIcSt11char_traitsIcESaIcEE11_M_is_localEv.exit.thread.i.i28, label %if.then.i.i27

_ZNKSt7__cxx1112basic_stringIcSt11char_traitsIcESaIcEE11_M_is_localEv.exit.thread.i.i28: ; preds = %_ZNSt7__cxx1112basic_stringIcSt11char_traitsIcESaIcEED2Ev.exit25
  %_M_string_length.i.i.i29 = getelementptr inbounds %struct.cmdline_options, ptr %this, i64 0, i32 21, i32 1
  %17 = load i64, ptr %_M_string_length.i.i.i29, align 8, !tbaa !12
  %cmp3.i.i.i30 = icmp ult i64 %17, 16
  tail call void @llvm.assume(i1 %cmp3.i.i.i30)
  br label %_ZNSt7__cxx1112basic_stringIcSt11char_traitsIcESaIcEED2Ev.exit31

if.then.i.i27:                                    ; preds = %_ZNSt7__cxx1112basic_stringIcSt11char_traitsIcESaIcEED2Ev.exit25
  tail call void @_ZdlPv(ptr noundef %15) #31
  br label %_ZNSt7__cxx1112basic_stringIcSt11char_traitsIcESaIcEED2Ev.exit31

_ZNSt7__cxx1112basic_stringIcSt11char_traitsIcESaIcEED2Ev.exit31: ; preds = %_ZNKSt7__cxx1112basic_stringIcSt11char_traitsIcESaIcEE11_M_is_localEv.exit.thread.i.i28, %if.then.i.i27
  %stdafx = getelementptr inbounds %struct.cmdline_options, ptr %this, i64 0, i32 20
  %18 = load ptr, ptr %stdafx, align 8, !tbaa !5
  %19 = getelementptr inbounds %struct.cmdline_options, ptr %this, i64 0, i32 20, i32 2
  %cmp.i.i.i32 = icmp eq ptr %18, %19
  br i1 %cmp.i.i.i32, label %_ZNKSt7__cxx1112basic_stringIcSt11char_traitsIcESaIcEE11_M_is_localEv.exit.thread.i.i34, label %if.then.i.i33

_ZNKSt7__cxx1112basic_stringIcSt11char_traitsIcESaIcEE11_M_is_localEv.exit.thread.i.i34: ; preds = %_ZNSt7__cxx1112basic_stringIcSt11char_traitsIcESaIcEED2Ev.exit31
  %_M_string_length.i.i.i35 = getelementptr inbounds %struct.cmdline_options, ptr %this, i64 0, i32 20, i32 1
  %20 = load i64, ptr %_M_string_length.i.i.i35, align 8, !tbaa !12
  %cmp3.i.i.i36 = icmp ult i64 %20, 16
  tail call void @llvm.assume(i1 %cmp3.i.i.i36)
  br label %_ZNSt7__cxx1112basic_stringIcSt11char_traitsIcESaIcEED2Ev.exit37

if.then.i.i33:                                    ; preds = %_ZNSt7__cxx1112basic_stringIcSt11char_traitsIcESaIcEED2Ev.exit31
  tail call void @_ZdlPv(ptr noundef %18) #31
  br label %_ZNSt7__cxx1112basic_stringIcSt11char_traitsIcESaIcEED2Ev.exit37

_ZNSt7__cxx1112basic_stringIcSt11char_traitsIcESaIcEED2Ev.exit37: ; preds = %_ZNKSt7__cxx1112basic_stringIcSt11char_traitsIcESaIcEE11_M_is_localEv.exit.thread.i.i34, %if.then.i.i33
  %for_bison = getelementptr inbounds %struct.cmdline_options, ptr %this, i64 0, i32 14
  %21 = load ptr, ptr %for_bison, align 8, !tbaa !5
  %22 = getelementptr inbounds %struct.cmdline_options, ptr %this, i64 0, i32 14, i32 2
  %cmp.i.i.i38 = icmp eq ptr %21, %22
  br i1 %cmp.i.i.i38, label %_ZNKSt7__cxx1112basic_stringIcSt11char_traitsIcESaIcEE11_M_is_localEv.exit.thread.i.i40, label %if.then.i.i39

_ZNKSt7__cxx1112basic_stringIcSt11char_traitsIcESaIcEE11_M_is_localEv.exit.thread.i.i40: ; preds = %_ZNSt7__cxx1112basic_stringIcSt11char_traitsIcESaIcEED2Ev.exit37
  %_M_string_length.i.i.i41 = getelementptr inbounds %struct.cmdline_options, ptr %this, i64 0, i32 14, i32 1
  %23 = load i64, ptr %_M_string_length.i.i.i41, align 8, !tbaa !12
  %cmp3.i.i.i42 = icmp ult i64 %23, 16
  tail call void @llvm.assume(i1 %cmp3.i.i.i42)
  br label %_ZNSt7__cxx1112basic_stringIcSt11char_traitsIcESaIcEED2Ev.exit43

if.then.i.i39:                                    ; preds = %_ZNSt7__cxx1112basic_stringIcSt11char_traitsIcESaIcEED2Ev.exit37
  tail call void @_ZdlPv(ptr noundef %21) #31
  br label %_ZNSt7__cxx1112basic_stringIcSt11char_traitsIcESaIcEED2Ev.exit43

_ZNSt7__cxx1112basic_stringIcSt11char_traitsIcESaIcEED2Ev.exit43: ; preds = %_ZNKSt7__cxx1112basic_stringIcSt11char_traitsIcESaIcEE11_M_is_localEv.exit.thread.i.i40, %if.then.i.i39
  %ccfilename = getelementptr inbounds %struct.cmdline_options, ptr %this, i64 0, i32 1
  %24 = load ptr, ptr %ccfilename, align 8, !tbaa !5
  %25 = getelementptr inbounds %struct.cmdline_options, ptr %this, i64 0, i32 1, i32 2
  %cmp.i.i.i44 = icmp eq ptr %24, %25
  br i1 %cmp.i.i.i44, label %_ZNKSt7__cxx1112basic_stringIcSt11char_traitsIcESaIcEE11_M_is_localEv.exit.thread.i.i46, label %if.then.i.i45

_ZNKSt7__cxx1112basic_stringIcSt11char_traitsIcESaIcEE11_M_is_localEv.exit.thread.i.i46: ; preds = %_ZNSt7__cxx1112basic_stringIcSt11char_traitsIcESaIcEED2Ev.exit43
  %_M_string_length.i.i.i47 = getelementptr inbounds %struct.cmdline_options, ptr %this, i64 0, i32 1, i32 1
  %26 = load i64, ptr %_M_string_length.i.i.i47, align 8, !tbaa !12
  %cmp3.i.i.i48 = icmp ult i64 %26, 16
  tail call void @llvm.assume(i1 %cmp3.i.i.i48)
  br label %_ZNSt7__cxx1112basic_stringIcSt11char_traitsIcESaIcEED2Ev.exit49

if.then.i.i45:                                    ; preds = %_ZNSt7__cxx1112basic_stringIcSt11char_traitsIcESaIcEED2Ev.exit43
  tail call void @_ZdlPv(ptr noundef %24) #31
  br label %_ZNSt7__cxx1112basic_stringIcSt11char_traitsIcESaIcEED2Ev.exit49

_ZNSt7__cxx1112basic_stringIcSt11char_traitsIcESaIcEED2Ev.exit49: ; preds = %_ZNKSt7__cxx1112basic_stringIcSt11char_traitsIcESaIcEE11_M_is_localEv.exit.thread.i.i46, %if.then.i.i45
  %27 = load ptr, ptr %this, align 8, !tbaa !5
  %28 = getelementptr inbounds %"class.std::__cxx11::basic_string", ptr %this, i64 0, i32 2
  %cmp.i.i.i50 = icmp eq ptr %27, %28
  br i1 %cmp.i.i.i50, label %_ZNKSt7__cxx1112basic_stringIcSt11char_traitsIcESaIcEE11_M_is_localEv.exit.thread.i.i52, label %if.then.i.i51

_ZNKSt7__cxx1112basic_stringIcSt11char_traitsIcESaIcEE11_M_is_localEv.exit.thread.i.i52: ; preds = %_ZNSt7__cxx1112basic_stringIcSt11char_traitsIcESaIcEED2Ev.exit49
  %_M_string_length.i.i.i53 = getelementptr inbounds %"class.std::__cxx11::basic_string", ptr %this, i64 0, i32 1
  %29 = load i64, ptr %_M_string_length.i.i.i53, align 8, !tbaa !12
  %cmp3.i.i.i54 = icmp ult i64 %29, 16
  tail call void @llvm.assume(i1 %cmp3.i.i.i54)
  br label %_ZNSt7__cxx1112basic_stringIcSt11char_traitsIcESaIcEED2Ev.exit55

if.then.i.i51:                                    ; preds = %_ZNSt7__cxx1112basic_stringIcSt11char_traitsIcESaIcEED2Ev.exit49
  tail call void @_ZdlPv(ptr noundef %27) #31
  br label %_ZNSt7__cxx1112basic_stringIcSt11char_traitsIcESaIcEED2Ev.exit55

_ZNSt7__cxx1112basic_stringIcSt11char_traitsIcESaIcEED2Ev.exit55: ; preds = %_ZNKSt7__cxx1112basic_stringIcSt11char_traitsIcESaIcEE11_M_is_localEv.exit.thread.i.i52, %if.then.i.i51
  ret void
}

; Function Attrs: nofree nounwind
declare i32 @__cxa_atexit(ptr, ptr, ptr) local_unnamed_addr #1

; Function Attrs: mustprogress noreturn uwtable
define dso_local void @cleanup_and_die(i32 noundef %i) #2 {
entry:
  %0 = load ptr, ptr @stderr, align 8, !tbaa !13
  %1 = load ptr, ptr @g_progname, align 8, !tbaa !13
  %name = getelementptr inbounds %"class.kc::impl_casestring__Str", ptr %1, i64 0, i32 1
  %2 = load ptr, ptr %name, align 8, !tbaa !14
  %call = tail call i32 (ptr, ptr, ...) @fprintf(ptr noundef %0, ptr noundef nonnull @.str.1, ptr noundef %2, i32 noundef %i) #32
  tail call void @_ZN2kc5leaveEi(i32 noundef 1)
  unreachable
}

; Function Attrs: nofree nounwind
declare noundef i32 @fprintf(ptr nocapture noundef, ptr nocapture noundef readonly, ...) local_unnamed_addr #3

; Function Attrs: mustprogress noreturn uwtable
define dso_local void @_ZN2kc5leaveEi(i32 noundef %status) local_unnamed_addr #2 {
entry:
  %0 = load ptr, ptr getelementptr inbounds (%class.kc_filePrinter, ptr @v_ccfile_printer, i64 0, i32 1), align 8, !tbaa !17
  %tobool.not.i.i = icmp eq ptr %0, null
  br i1 %tobool.not.i.i, label %_ZN14kc_filePrinter6fcloseEv.exit.thread.i, label %_ZN14kc_filePrinter6fcloseEv.exit.i

_ZN14kc_filePrinter6fcloseEv.exit.thread.i:       ; preds = %entry
  store ptr null, ptr getelementptr inbounds (%class.kc_filePrinter, ptr @v_ccfile_printer, i64 0, i32 1), align 8, !tbaa !17
  br label %if.end.i

_ZN14kc_filePrinter6fcloseEv.exit.i:              ; preds = %entry
  %call.i.i = tail call i32 @fclose(ptr noundef nonnull %0)
  store ptr null, ptr getelementptr inbounds (%class.kc_filePrinter, ptr @v_ccfile_printer, i64 0, i32 1), align 8, !tbaa !17
  %cmp.i = icmp eq i32 %call.i.i, -1
  br i1 %cmp.i, label %if.then.i, label %if.end.i

if.then.i:                                        ; preds = %_ZN14kc_filePrinter6fcloseEv.exit.i
  %call1.i = tail call noundef ptr @_ZN2kc10NoFileLineEv()
  %call2.i = tail call noundef ptr @_ZN2kc9Problem2SEPKcS1_(ptr noundef nonnull @.str.124, ptr noundef nonnull @.str.12)
  %call3.i = tail call noundef ptr @_ZN2kc5FatalEPNS_13impl_filelineEPNS_12impl_problemE(ptr noundef %call1.i, ptr noundef %call2.i)
  tail call void @_ZN2kc8v_reportEPNS_10impl_errorE(ptr noundef %call3.i)
  br label %if.end.i

if.end.i:                                         ; preds = %if.then.i, %_ZN14kc_filePrinter6fcloseEv.exit.i, %_ZN14kc_filePrinter6fcloseEv.exit.thread.i
  %1 = load ptr, ptr getelementptr inbounds (%class.kc_filePrinter, ptr @v_hfile_printer, i64 0, i32 1), align 8, !tbaa !17
  %tobool.not.i30.i = icmp eq ptr %1, null
  br i1 %tobool.not.i30.i, label %_ZN14kc_filePrinter6fcloseEv.exit34.thread.i, label %_ZN14kc_filePrinter6fcloseEv.exit34.i

_ZN14kc_filePrinter6fcloseEv.exit34.thread.i:     ; preds = %if.end.i
  store ptr null, ptr getelementptr inbounds (%class.kc_filePrinter, ptr @v_hfile_printer, i64 0, i32 1), align 8, !tbaa !17
  br label %if.end10.i

_ZN14kc_filePrinter6fcloseEv.exit34.i:            ; preds = %if.end.i
  %call.i32.i = tail call i32 @fclose(ptr noundef nonnull %1)
  store ptr null, ptr getelementptr inbounds (%class.kc_filePrinter, ptr @v_hfile_printer, i64 0, i32 1), align 8, !tbaa !17
  %cmp5.i = icmp eq i32 %call.i32.i, -1
  br i1 %cmp5.i, label %if.then6.i, label %if.end10.i

if.then6.i:                                       ; preds = %_ZN14kc_filePrinter6fcloseEv.exit34.i
  %call7.i = tail call noundef ptr @_ZN2kc10NoFileLineEv()
  %call8.i = tail call noundef ptr @_ZN2kc9Problem2SEPKcS1_(ptr noundef nonnull @.str.124, ptr noundef nonnull @.str.9)
  %call9.i = tail call noundef ptr @_ZN2kc5FatalEPNS_13impl_filelineEPNS_12impl_problemE(ptr noundef %call7.i, ptr noundef %call8.i)
  tail call void @_ZN2kc8v_reportEPNS_10impl_errorE(ptr noundef %call9.i)
  br label %if.end10.i

if.end10.i:                                       ; preds = %if.then6.i, %_ZN14kc_filePrinter6fcloseEv.exit34.i, %_ZN14kc_filePrinter6fcloseEv.exit34.thread.i
  %call11.i = tail call i32 @access(ptr noundef nonnull @.str.12, i32 noundef 4) #33
  %cmp12.i = icmp eq i32 %call11.i, 0
  br i1 %cmp12.i, label %if.then13.i, label %if.end19.i

if.then13.i:                                      ; preds = %if.end10.i
  %2 = load i8, ptr getelementptr inbounds (%struct.cmdline_options, ptr @g_options, i64 0, i32 3), align 1, !tbaa !22, !range !24, !noundef !25
  %tobool.not.i = icmp eq i8 %2, 0
  br i1 %tobool.not.i, label %if.end18.i, label %if.then14.i

if.then14.i:                                      ; preds = %if.then13.i
  %call1.i.i = tail call noundef nonnull align 8 dereferenceable(8) ptr @_ZSt16__ostream_insertIcSt11char_traitsIcEERSt13basic_ostreamIT_T0_ES6_PKS3_l(ptr noundef nonnull align 8 dereferenceable(8) @_ZSt4cout, ptr noundef nonnull @.str.125, i64 noundef 9)
  %call1.i36.i = tail call noundef nonnull align 8 dereferenceable(8) ptr @_ZSt16__ostream_insertIcSt11char_traitsIcEERSt13basic_ostreamIT_T0_ES6_PKS3_l(ptr noundef nonnull align 8 dereferenceable(8) @_ZSt4cout, ptr noundef nonnull @.str.12, i64 noundef 11)
  %vtable.i.i = load ptr, ptr @_ZSt4cout, align 8, !tbaa !26
  %vbase.offset.ptr.i.i = getelementptr i8, ptr %vtable.i.i, i64 -24
  %vbase.offset.i.i = load i64, ptr %vbase.offset.ptr.i.i, align 8
  %add.ptr.i.i = getelementptr inbounds i8, ptr @_ZSt4cout, i64 %vbase.offset.i.i
  %_M_ctype.i.i.i = getelementptr inbounds %"class.std::basic_ios", ptr %add.ptr.i.i, i64 0, i32 5
  %3 = load ptr, ptr %_M_ctype.i.i.i, align 8, !tbaa !28
  %tobool.not.i.i.i.i = icmp eq ptr %3, null
  br i1 %tobool.not.i.i.i.i, label %if.then.i.i.i.i, label %_ZSt13__check_facetISt5ctypeIcEERKT_PS3_.exit.i.i.i

if.then.i.i.i.i:                                  ; preds = %if.then14.i
  tail call void @_ZSt16__throw_bad_castv() #34
  unreachable

_ZSt13__check_facetISt5ctypeIcEERKT_PS3_.exit.i.i.i: ; preds = %if.then14.i
  %_M_widen_ok.i.i.i.i = getelementptr inbounds %"class.std::ctype", ptr %3, i64 0, i32 8
  %4 = load i8, ptr %_M_widen_ok.i.i.i.i, align 8, !tbaa !35
  %tobool.not.i3.i.i.i = icmp eq i8 %4, 0
  br i1 %tobool.not.i3.i.i.i, label %if.end.i.i.i.i, label %if.then.i4.i.i.i

if.then.i4.i.i.i:                                 ; preds = %_ZSt13__check_facetISt5ctypeIcEERKT_PS3_.exit.i.i.i
  %arrayidx.i.i.i.i = getelementptr inbounds %"class.std::ctype", ptr %3, i64 0, i32 9, i64 10
  %5 = load i8, ptr %arrayidx.i.i.i.i, align 1, !tbaa !38
  br label %_ZSt4endlIcSt11char_traitsIcEERSt13basic_ostreamIT_T0_ES6_.exit.i

if.end.i.i.i.i:                                   ; preds = %_ZSt13__check_facetISt5ctypeIcEERKT_PS3_.exit.i.i.i
  tail call void @_ZNKSt5ctypeIcE13_M_widen_initEv(ptr noundef nonnull align 8 dereferenceable(570) %3)
  %vtable.i.i.i.i = load ptr, ptr %3, align 8, !tbaa !26
  %vfn.i.i.i.i = getelementptr inbounds ptr, ptr %vtable.i.i.i.i, i64 6
  %6 = load ptr, ptr %vfn.i.i.i.i, align 8
  %call.i.i.i.i = tail call noundef signext i8 %6(ptr noundef nonnull align 8 dereferenceable(570) %3, i8 noundef signext 10)
  br label %_ZSt4endlIcSt11char_traitsIcEERSt13basic_ostreamIT_T0_ES6_.exit.i

_ZSt4endlIcSt11char_traitsIcEERSt13basic_ostreamIT_T0_ES6_.exit.i: ; preds = %if.end.i.i.i.i, %if.then.i4.i.i.i
  %retval.0.i.i.i.i = phi i8 [ %5, %if.then.i4.i.i.i ], [ %call.i.i.i.i, %if.end.i.i.i.i ]
  %call1.i53.i = tail call noundef nonnull align 8 dereferenceable(8) ptr @_ZNSo3putEc(ptr noundef nonnull align 8 dereferenceable(8) @_ZSt4cout, i8 noundef signext %retval.0.i.i.i.i)
  %call.i.i54.i = tail call noundef nonnull align 8 dereferenceable(8) ptr @_ZNSo5flushEv(ptr noundef nonnull align 8 dereferenceable(8) %call1.i53.i)
  br label %if.end18.i

if.end18.i:                                       ; preds = %_ZSt4endlIcSt11char_traitsIcEERSt13basic_ostreamIT_T0_ES6_.exit.i, %if.then13.i
  %call.i38.i = tail call i32 @remove(ptr noundef nonnull @.str.12) #33
  %cmp.not.i.i = icmp eq i32 %call.i38.i, 0
  br i1 %cmp.not.i.i, label %if.end19.i, label %if.then.i39.i

if.then.i39.i:                                    ; preds = %if.end18.i
  tail call void @perror(ptr noundef nonnull @.str.122) #32
  %call1.i40.i = tail call noundef ptr @_ZN2kc10NoFileLineEv()
  %call2.i.i = tail call noundef ptr @_ZN2kc9Problem2SEPKcS1_(ptr noundef nonnull @.str.123, ptr noundef nonnull @.str.12)
  %call3.i.i = tail call noundef ptr @_ZN2kc8NonFatalEPNS_13impl_filelineEPNS_12impl_problemE(ptr noundef %call1.i40.i, ptr noundef %call2.i.i)
  tail call void @_ZN2kc8v_reportEPNS_10impl_errorE(ptr noundef %call3.i.i)
  br label %if.end19.i

if.end19.i:                                       ; preds = %if.then.i39.i, %if.end18.i, %if.end10.i
  %call20.i = tail call i32 @access(ptr noundef nonnull @.str.9, i32 noundef 4) #33
  %cmp21.i = icmp eq i32 %call20.i, 0
  br i1 %cmp21.i, label %if.then22.i, label %_ZN2kcL7cleanupEv.exit

if.then22.i:                                      ; preds = %if.end19.i
  %7 = load i8, ptr getelementptr inbounds (%struct.cmdline_options, ptr @g_options, i64 0, i32 3), align 1, !tbaa !22, !range !24, !noundef !25
  %tobool23.not.i = icmp eq i8 %7, 0
  br i1 %tobool23.not.i, label %if.end28.i, label %if.then24.i

if.then24.i:                                      ; preds = %if.then22.i
  %call1.i42.i = tail call noundef nonnull align 8 dereferenceable(8) ptr @_ZSt16__ostream_insertIcSt11char_traitsIcEERSt13basic_ostreamIT_T0_ES6_PKS3_l(ptr noundef nonnull align 8 dereferenceable(8) @_ZSt4cout, ptr noundef nonnull @.str.125, i64 noundef 9)
  %call1.i44.i = tail call noundef nonnull align 8 dereferenceable(8) ptr @_ZSt16__ostream_insertIcSt11char_traitsIcEERSt13basic_ostreamIT_T0_ES6_PKS3_l(ptr noundef nonnull align 8 dereferenceable(8) @_ZSt4cout, ptr noundef nonnull @.str.9, i64 noundef 9)
  %vtable.i55.i = load ptr, ptr @_ZSt4cout, align 8, !tbaa !26
  %vbase.offset.ptr.i56.i = getelementptr i8, ptr %vtable.i55.i, i64 -24
  %vbase.offset.i57.i = load i64, ptr %vbase.offset.ptr.i56.i, align 8
  %add.ptr.i58.i = getelementptr inbounds i8, ptr @_ZSt4cout, i64 %vbase.offset.i57.i
  %_M_ctype.i.i59.i = getelementptr inbounds %"class.std::basic_ios", ptr %add.ptr.i58.i, i64 0, i32 5
  %8 = load ptr, ptr %_M_ctype.i.i59.i, align 8, !tbaa !28
  %tobool.not.i.i.i60.i = icmp eq ptr %8, null
  br i1 %tobool.not.i.i.i60.i, label %if.then.i.i.i73.i, label %_ZSt13__check_facetISt5ctypeIcEERKT_PS3_.exit.i.i61.i

if.then.i.i.i73.i:                                ; preds = %if.then24.i
  tail call void @_ZSt16__throw_bad_castv() #34
  unreachable

_ZSt13__check_facetISt5ctypeIcEERKT_PS3_.exit.i.i61.i: ; preds = %if.then24.i
  %_M_widen_ok.i.i.i62.i = getelementptr inbounds %"class.std::ctype", ptr %8, i64 0, i32 8
  %9 = load i8, ptr %_M_widen_ok.i.i.i62.i, align 8, !tbaa !35
  %tobool.not.i3.i.i63.i = icmp eq i8 %9, 0
  br i1 %tobool.not.i3.i.i63.i, label %if.end.i.i.i69.i, label %if.then.i4.i.i64.i

if.then.i4.i.i64.i:                               ; preds = %_ZSt13__check_facetISt5ctypeIcEERKT_PS3_.exit.i.i61.i
  %arrayidx.i.i.i65.i = getelementptr inbounds %"class.std::ctype", ptr %8, i64 0, i32 9, i64 10
  %10 = load i8, ptr %arrayidx.i.i.i65.i, align 1, !tbaa !38
  br label %_ZSt4endlIcSt11char_traitsIcEERSt13basic_ostreamIT_T0_ES6_.exit74.i

if.end.i.i.i69.i:                                 ; preds = %_ZSt13__check_facetISt5ctypeIcEERKT_PS3_.exit.i.i61.i
  tail call void @_ZNKSt5ctypeIcE13_M_widen_initEv(ptr noundef nonnull align 8 dereferenceable(570) %8)
  %vtable.i.i.i70.i = load ptr, ptr %8, align 8, !tbaa !26
  %vfn.i.i.i71.i = getelementptr inbounds ptr, ptr %vtable.i.i.i70.i, i64 6
  %11 = load ptr, ptr %vfn.i.i.i71.i, align 8
  %call.i.i.i72.i = tail call noundef signext i8 %11(ptr noundef nonnull align 8 dereferenceable(570) %8, i8 noundef signext 10)
  br label %_ZSt4endlIcSt11char_traitsIcEERSt13basic_ostreamIT_T0_ES6_.exit74.i

_ZSt4endlIcSt11char_traitsIcEERSt13basic_ostreamIT_T0_ES6_.exit74.i: ; preds = %if.end.i.i.i69.i, %if.then.i4.i.i64.i
  %retval.0.i.i.i66.i = phi i8 [ %10, %if.then.i4.i.i64.i ], [ %call.i.i.i72.i, %if.end.i.i.i69.i ]
  %call1.i67.i = tail call noundef nonnull align 8 dereferenceable(8) ptr @_ZNSo3putEc(ptr noundef nonnull align 8 dereferenceable(8) @_ZSt4cout, i8 noundef signext %retval.0.i.i.i66.i)
  %call.i.i68.i = tail call noundef nonnull align 8 dereferenceable(8) ptr @_ZNSo5flushEv(ptr noundef nonnull align 8 dereferenceable(8) %call1.i67.i)
  br label %if.end28.i

if.end28.i:                                       ; preds = %_ZSt4endlIcSt11char_traitsIcEERSt13basic_ostreamIT_T0_ES6_.exit74.i, %if.then22.i
  %call.i46.i = tail call i32 @remove(ptr noundef nonnull @.str.9) #33
  %cmp.not.i47.i = icmp eq i32 %call.i46.i, 0
  br i1 %cmp.not.i47.i, label %_ZN2kcL7cleanupEv.exit, label %if.then.i48.i

if.then.i48.i:                                    ; preds = %if.end28.i
  tail call void @perror(ptr noundef nonnull @.str.122) #32
  %call1.i49.i = tail call noundef ptr @_ZN2kc10NoFileLineEv()
  %call2.i50.i = tail call noundef ptr @_ZN2kc9Problem2SEPKcS1_(ptr noundef nonnull @.str.123, ptr noundef nonnull @.str.9)
  %call3.i51.i = tail call noundef ptr @_ZN2kc8NonFatalEPNS_13impl_filelineEPNS_12impl_problemE(ptr noundef %call1.i49.i, ptr noundef %call2.i50.i)
  tail call void @_ZN2kc8v_reportEPNS_10impl_errorE(ptr noundef %call3.i51.i)
  br label %_ZN2kcL7cleanupEv.exit

_ZN2kcL7cleanupEv.exit:                           ; preds = %if.end19.i, %if.end28.i, %if.then.i48.i
  %12 = load i8, ptr @gp_no_fatal_problems, align 1, !tbaa !39, !range !24, !noundef !25
  %tobool.not = icmp eq i8 %12, 0
  br i1 %tobool.not, label %if.else, label %if.then

if.then:                                          ; preds = %_ZN2kcL7cleanupEv.exit
  tail call void @exit(i32 noundef %status) #35
  unreachable

if.else:                                          ; preds = %_ZN2kcL7cleanupEv.exit
  %cond5 = tail call i32 @llvm.umax.i32(i32 %status, i32 1)
  tail call void @exit(i32 noundef %cond5) #35
  unreachable
}

; Function Attrs: mustprogress noreturn uwtable
define dso_local void @cleanup_and_abort(i32 noundef %i) #2 {
entry:
  %cmp = icmp eq i32 %i, 11
  %0 = load ptr, ptr @stderr, align 8, !tbaa !13
  %. = select i1 %cmp, i64 29, i64 34
  %.str.2..str.3 = select i1 %cmp, ptr @.str.2, ptr @.str.3
  %1 = tail call i64 @fwrite(ptr nonnull %.str.2..str.3, i64 %., i64 1, ptr %0) #32
  %2 = load ptr, ptr @stderr, align 8, !tbaa !13
  %3 = load ptr, ptr @g_progname, align 8, !tbaa !13
  %name = getelementptr inbounds %"class.kc::impl_casestring__Str", ptr %3, i64 0, i32 1
  %4 = load ptr, ptr %name, align 8, !tbaa !14
  %call2 = tail call i32 (ptr, ptr, ...) @fprintf(ptr noundef %2, ptr noundef nonnull @.str.1, ptr noundef %4, i32 noundef %i) #32
  tail call void @_ZN2kc5leaveEi(i32 noundef 1)
  unreachable
}

; Function Attrs: norecurse noreturn uwtable
define dso_local noundef i32 @main(i32 noundef %argc, ptr noundef %argv) local_unnamed_addr #4 personality ptr @__gxx_personality_v0 {
entry:
  %warn_options.i = alloca %"class.std::vector", align 8
  %ref.tmp.i = alloca %"class.std::__cxx11::basic_string", align 8
  %ref.tmp30.i = alloca %"class.std::__cxx11::basic_string", align 8
  %ref.tmp222.i = alloca %"class.std::__cxx11::basic_string", align 8
  %ref.tmp227.i = alloca %"class.std::__cxx11::basic_string", align 8
  %ref.tmp235.i = alloca %"class.std::__cxx11::basic_string", align 8
  %ref.tmp244.i = alloca %"class.std::__cxx11::basic_string", align 8
  %tmp.i = alloca %"class.std::__cxx11::basic_string", align 8
  %ref.tmp292.i = alloca %"class.std::__cxx11::basic_string", align 8
  %ref.tmp293.i = alloca %"class.std::__cxx11::basic_string", align 8
  %ref.tmp294.i = alloca %"class.std::__cxx11::basic_string", align 8
  %ref.tmp295.i = alloca %"class.std::__cxx11::basic_string", align 8
  %ref.tmp296.i = alloca %"class.std::__cxx11::basic_string", align 8
  %ref.tmp297.i = alloca %"class.std::__cxx11::basic_string", align 8
  %ref.tmp298.i = alloca %"class.std::__cxx11::basic_string", align 8
  %ref.tmp = alloca %"class.std::__cxx11::basic_string", align 8
  %ref.tmp194 = alloca %"class.std::__cxx11::basic_string", align 8
  %ref.tmp195 = alloca %"class.std::__cxx11::basic_string", align 8
  %ref.tmp204 = alloca %"class.std::__cxx11::basic_string", align 8
  %ref.tmp205 = alloca %"class.std::__cxx11::basic_string", align 8
  %ref.tmp247 = alloca %"class.std::__cxx11::basic_string", align 8
  %ref.tmp248 = alloca %"class.std::__cxx11::basic_string", align 8
  %ref.tmp257 = alloca %"class.std::__cxx11::basic_string", align 8
  %ref.tmp264 = alloca %"class.std::__cxx11::basic_string", align 8
  %ref.tmp269 = alloca %"class.std::__cxx11::basic_string", align 8
  %ref.tmp270 = alloca %"class.std::__cxx11::basic_string", align 8
  %ref.tmp281 = alloca %"class.std::__cxx11::basic_string", align 8
  %ref.tmp282 = alloca %"class.std::__cxx11::basic_string", align 8
  %ref.tmp323 = alloca %"class.std::__cxx11::basic_string", align 8
  %ref.tmp324 = alloca %"class.std::__cxx11::basic_string", align 8
  %ref.tmp333 = alloca %"class.std::__cxx11::basic_string", align 8
  %ref.tmp341 = alloca %"class.std::__cxx11::basic_string", align 8
  %ref.tmp346 = alloca %"class.std::__cxx11::basic_string", align 8
  %ref.tmp347 = alloca %"class.std::__cxx11::basic_string", align 8
  %ref.tmp358 = alloca %"class.std::__cxx11::basic_string", align 8
  %ref.tmp359 = alloca %"class.std::__cxx11::basic_string", align 8
  %ref.tmp403 = alloca %"class.std::__cxx11::basic_string", align 8
  %ref.tmp404 = alloca %"class.std::__cxx11::basic_string", align 8
  %ref.tmp413 = alloca %"class.std::__cxx11::basic_string", align 8
  %ref.tmp421 = alloca %"class.std::__cxx11::basic_string", align 8
  %ref.tmp426 = alloca %"class.std::__cxx11::basic_string", align 8
  %ref.tmp427 = alloca %"class.std::__cxx11::basic_string", align 8
  %ref.tmp438 = alloca %"class.std::__cxx11::basic_string", align 8
  %ref.tmp439 = alloca %"class.std::__cxx11::basic_string", align 8
  %ref.tmp480 = alloca %"class.std::__cxx11::basic_string", align 8
  %ref.tmp481 = alloca %"class.std::__cxx11::basic_string", align 8
  %ref.tmp490 = alloca %"class.std::__cxx11::basic_string", align 8
  %ref.tmp564 = alloca %"class.std::__cxx11::basic_string", align 8
  %ref.tmp571 = alloca %"class.std::__cxx11::basic_string", align 8
  %ref.tmp572 = alloca %"class.std::__cxx11::basic_string", align 8
  %ref.tmp592 = alloca %"class.std::__cxx11::basic_string", align 8
  %ref.tmp600 = alloca %"class.std::__cxx11::basic_string", align 8
  %ref.tmp607 = alloca %"class.std::__cxx11::basic_string", align 8
  %ref.tmp608 = alloca %"class.std::__cxx11::basic_string", align 8
  %ref.tmp629 = alloca %"class.std::__cxx11::basic_string", align 8
  %ref.tmp637 = alloca %"class.std::__cxx11::basic_string", align 8
  %ref.tmp644 = alloca %"class.std::__cxx11::basic_string", align 8
  %ref.tmp645 = alloca %"class.std::__cxx11::basic_string", align 8
  %ref.tmp665 = alloca %"class.std::__cxx11::basic_string", align 8
  store i32 1, ptr @yydebug, align 4, !tbaa !40
  %call = tail call noundef ptr @_ZN2kc12mkcasestringEPKci(ptr noundef nonnull @.str.55, i32 noundef -1)
  store ptr %call, ptr @g_progname, align 8, !tbaa !13
  %call1 = tail call fastcc noundef ptr @_ZN2kcL16make_pg_filenameEPKc(ptr noundef nonnull @.str.4)
  store ptr %call1, ptr @pg_filename, align 8, !tbaa !13
  store i8 1, ptr @gp_no_fatal_problems, align 1, !tbaa !39
  store i8 0, ptr @pg_uviewshavebeendefined, align 1, !tbaa !39
  store i8 0, ptr @pg_rviewshavebeendefined, align 1, !tbaa !39
  store i8 0, ptr @pg_storageclasseshavebeendefined, align 1, !tbaa !39
  store i32 0, ptr @pg_lineno, align 4, !tbaa !40
  store i32 0, ptr @pg_column, align 4, !tbaa !40
  store i32 0, ptr @pg_charpos, align 4, !tbaa !40
  %0 = load ptr, ptr %argv, align 8, !tbaa !13
  %call.i.i = tail call noundef ptr @strrchr(ptr noundef nonnull dereferenceable(1) %0, i32 noundef 47) #36
  %cmp.i.i = icmp eq ptr %call.i.i, null
  %incdec.ptr.i.i = getelementptr inbounds i8, ptr %call.i.i, i64 1
  %mybasename.0.i.i = select i1 %cmp.i.i, ptr %0, ptr %incdec.ptr.i.i
  %call1.i = tail call noundef ptr @_ZN2kc12mkcasestringEPKci(ptr noundef %mybasename.0.i.i, i32 noundef -1)
  store ptr %call1.i, ptr @g_progname, align 8, !tbaa !13
  %1 = getelementptr inbounds %"class.std::__cxx11::basic_string", ptr %ref.tmp.i, i64 0, i32 2
  %_M_string_length.i.i.i.i.i = getelementptr inbounds %"class.std::__cxx11::basic_string", ptr %ref.tmp.i, i64 0, i32 1
  %_M_finish.i.i.i = getelementptr inbounds %"struct.std::_Vector_base<std::__cxx11::basic_string<char>, std::allocator<std::__cxx11::basic_string<char>>>::_Vector_impl_data", ptr %warn_options.i, i64 0, i32 1
  %_M_end_of_storage.i.i.i = getelementptr inbounds %"struct.std::_Vector_base<std::__cxx11::basic_string<char>, std::allocator<std::__cxx11::basic_string<char>>>::_Vector_impl_data", ptr %warn_options.i, i64 0, i32 2
  %2 = getelementptr inbounds %"class.std::__cxx11::basic_string", ptr %ref.tmp30.i, i64 0, i32 2
  %_M_string_length.i.i.i.i453.i = getelementptr inbounds %"class.std::__cxx11::basic_string", ptr %ref.tmp30.i, i64 0, i32 1
  br label %while.cond.i

while.cond.i:                                     ; preds = %while.cond.i.backedge, %entry
  %call2.i = call i32 @getopt(i32 noundef %argc, ptr noundef nonnull %argv, ptr noundef nonnull @.str.56) #33
  switch i32 %call2.i, label %while.cond.i.backedge [
    i32 -1, label %while.end186.i
    i32 86, label %sw.bb.i
    i32 63, label %sw.bb3.i
    i32 58, label %sw.bb3.i
    i32 104, label %sw.bb3.i
    i32 112, label %sw.bb4.i
    i32 113, label %sw.bb6.i
    i32 118, label %sw.bb10.i
    i32 87, label %sw.bb17.i
    i32 115, label %sw.bb107.i
    i32 102, label %sw.bb109.i
    i32 121, label %sw.bb111.i
    i32 98, label %sw.bb112.i
    i32 99, label %sw.bb115.i
    i32 117, label %sw.bb116.i
    i32 114, label %sw.bb117.i
    i32 100, label %sw.bb118.i
    i32 116, label %sw.bb119.i
    i32 5, label %sw.bb120.i
    i32 109, label %sw.bb121.i
    i32 119, label %sw.bb122.i
    i32 111, label %sw.bb123.i
    i32 110, label %sw.bb124.i
    i32 108, label %sw.bb141.i
    i32 2, label %sw.bb142.i
    i32 3, label %sw.bb143.i
    i32 1, label %sw.bb155.i
    i32 4, label %sw.bb162.i
    i32 101, label %sw.bb163.i
    i32 77, label %sw.bb184.i
  ]

sw.bb.i:                                          ; preds = %while.cond.i
  %call.i444.i = call i32 (ptr, ...) @printf(ptr noundef nonnull dereferenceable(1) @.str.85, ptr noundef nonnull @_ZL15kimwitu_version)
  call void @_ZN2kc5leaveEi(i32 noundef 0)
  unreachable

sw.bb3.i:                                         ; preds = %while.cond.i, %while.cond.i, %while.cond.i
  %3 = load ptr, ptr @g_progname, align 8, !tbaa !13
  %name.i.i = getelementptr inbounds %"class.kc::impl_casestring__Str", ptr %3, i64 0, i32 1
  %4 = load ptr, ptr %name.i.i, align 8, !tbaa !14
  %call.i445.i = call i32 (ptr, ...) @printf(ptr noundef nonnull dereferenceable(1) @.str.86, ptr noundef %4)
  %puts.i.i = call i32 @puts(ptr nonnull dereferenceable(1) @str)
  %puts6.i.i = call i32 @puts(ptr nonnull dereferenceable(1) @str.127)
  %puts7.i.i = call i32 @puts(ptr nonnull dereferenceable(1) @str.128)
  %puts8.i.i = call i32 @puts(ptr nonnull dereferenceable(1) @str.129)
  %call5.i.i = call i32 (ptr, ...) @printf(ptr noundef nonnull dereferenceable(1) @.str.91)
  call void @_ZN2kc5leaveEi(i32 noundef 0)
  unreachable

sw.bb4.i:                                         ; preds = %while.cond.i
  %5 = load ptr, ptr @optarg, align 8, !tbaa !13
  %6 = load i64, ptr getelementptr inbounds (%struct.cmdline_options, ptr @g_options, i64 0, i32 24, i32 1), align 8, !tbaa !12
  %call.i.i.i.i = call i64 @strlen(ptr noundef nonnull dereferenceable(1) %5) #33
  %call3.i.i.i = call noundef nonnull align 8 dereferenceable(32) ptr @_ZNSt7__cxx1112basic_stringIcSt11char_traitsIcESaIcEE10_M_replaceEmmPKcm(ptr noundef nonnull align 8 dereferenceable(32) getelementptr inbounds (%struct.cmdline_options, ptr @g_options, i64 0, i32 24), i64 noundef 0, i64 noundef %6, ptr noundef %5, i64 noundef %call.i.i.i.i)
  br label %while.cond.i.backedge

sw.bb6.i:                                         ; preds = %while.cond.i
  store i8 1, ptr getelementptr inbounds (%struct.cmdline_options, ptr @g_options, i64 0, i32 2), align 8, !tbaa !41
  %7 = load i8, ptr getelementptr inbounds (%struct.cmdline_options, ptr @g_options, i64 0, i32 3), align 1, !tbaa !22, !range !24, !noundef !25
  %tobool.not.i = icmp eq i8 %7, 0
  br i1 %tobool.not.i, label %while.cond.i.backedge, label %if.then.i

if.then.i:                                        ; preds = %sw.bb6.i
  %call7.i = call noundef ptr @_ZN2kc10NoFileLineEv()
  %call8.i = call noundef ptr @_ZN2kc9Problem1SEPKc(ptr noundef nonnull @.str.57)
  %call9.i = call noundef ptr @_ZN2kc7WarningEPNS_13impl_filelineEPNS_12impl_problemE(ptr noundef %call7.i, ptr noundef %call8.i)
  call void @_ZN2kc8v_reportEPNS_10impl_errorE(ptr noundef %call9.i)
  br label %while.cond.i.backedge

sw.bb10.i:                                        ; preds = %while.cond.i
  store i8 1, ptr getelementptr inbounds (%struct.cmdline_options, ptr @g_options, i64 0, i32 3), align 1, !tbaa !22
  %8 = load i8, ptr getelementptr inbounds (%struct.cmdline_options, ptr @g_options, i64 0, i32 2), align 8, !tbaa !41, !range !24, !noundef !25
  %tobool11.not.i = icmp eq i8 %8, 0
  br i1 %tobool11.not.i, label %while.cond.i.backedge, label %if.then12.i

if.then12.i:                                      ; preds = %sw.bb10.i
  %call13.i = call noundef ptr @_ZN2kc10NoFileLineEv()
  %call14.i = call noundef ptr @_ZN2kc9Problem1SEPKc(ptr noundef nonnull @.str.58)
  %call15.i = call noundef ptr @_ZN2kc7WarningEPNS_13impl_filelineEPNS_12impl_problemE(ptr noundef %call13.i, ptr noundef %call14.i)
  call void @_ZN2kc8v_reportEPNS_10impl_errorE(ptr noundef %call15.i)
  br label %while.cond.i.backedge

sw.bb17.i:                                        ; preds = %while.cond.i
  %9 = load ptr, ptr @optarg, align 8, !tbaa !13
  %tobool18.not.i = icmp eq ptr %9, null
  br i1 %tobool18.not.i, label %if.then19.i, label %if.else.i.i.i

if.then19.i:                                      ; preds = %sw.bb17.i
  store i8 1, ptr getelementptr inbounds (%struct.cmdline_options, ptr @g_options, i64 0, i32 27), align 8, !tbaa !42
  store i8 1, ptr getelementptr inbounds (%struct.cmdline_options, ptr @g_options, i64 0, i32 28), align 1, !tbaa !43
  store i8 1, ptr getelementptr inbounds (%struct.cmdline_options, ptr @g_options, i64 0, i32 29), align 2, !tbaa !44
  br label %while.cond.i.backedge

if.else.i.i.i:                                    ; preds = %sw.bb17.i
  call void @llvm.lifetime.start.p0(i64 24, ptr nonnull %warn_options.i) #33
  call void @llvm.memset.p0.i64(ptr noundef nonnull align 8 dereferenceable(24) %warn_options.i, i8 0, i64 24, i1 false)
  call void @llvm.lifetime.start.p0(i64 32, ptr nonnull %ref.tmp.i) #33
  store ptr %1, ptr %ref.tmp.i, align 8, !tbaa !45
  store i64 0, ptr %_M_string_length.i.i.i.i.i, align 8, !tbaa !12
  store i8 0, ptr %1, align 8, !tbaa !38
  invoke void @_ZNSt6vectorINSt7__cxx1112basic_stringIcSt11char_traitsIcESaIcEEESaIS5_EE17_M_realloc_insertIJS5_EEEvN9__gnu_cxx17__normal_iteratorIPS5_S7_EEDpOT_(ptr noundef nonnull align 8 dereferenceable(24) %warn_options.i, ptr null, ptr noundef nonnull align 8 dereferenceable(32) %ref.tmp.i)
          to label %invoke.cont22.i unwind label %lpad21.i

invoke.cont22.i:                                  ; preds = %if.else.i.i.i
  %.pre1302.i = load ptr, ptr %ref.tmp.i, align 8, !tbaa !5
  %cmp.i.i.i.i = icmp eq ptr %.pre1302.i, %1
  br i1 %cmp.i.i.i.i, label %_ZNKSt7__cxx1112basic_stringIcSt11char_traitsIcESaIcEE11_M_is_localEv.exit.thread.i.i.i, label %if.then.i.i448.i

_ZNKSt7__cxx1112basic_stringIcSt11char_traitsIcESaIcEE11_M_is_localEv.exit.thread.i.i.i: ; preds = %invoke.cont22.i
  %10 = load i64, ptr %_M_string_length.i.i.i.i.i, align 8, !tbaa !12
  %cmp3.i.i.i.i = icmp ult i64 %10, 16
  call void @llvm.assume(i1 %cmp3.i.i.i.i)
  br label %_ZNSt7__cxx1112basic_stringIcSt11char_traitsIcESaIcEED2Ev.exit.i

if.then.i.i448.i:                                 ; preds = %invoke.cont22.i
  call void @_ZdlPv(ptr noundef %.pre1302.i) #31
  br label %_ZNSt7__cxx1112basic_stringIcSt11char_traitsIcESaIcEED2Ev.exit.i

_ZNSt7__cxx1112basic_stringIcSt11char_traitsIcESaIcEED2Ev.exit.i: ; preds = %if.then.i.i448.i, %_ZNKSt7__cxx1112basic_stringIcSt11char_traitsIcESaIcEE11_M_is_localEv.exit.thread.i.i.i
  call void @llvm.lifetime.end.p0(i64 32, ptr nonnull %ref.tmp.i) #33
  %.pre1303.i = load ptr, ptr @optarg, align 8, !tbaa !13
  br label %while.cond25.i

while.cond25.i:                                   ; preds = %if.end46.i, %_ZNSt7__cxx1112basic_stringIcSt11char_traitsIcESaIcEED2Ev.exit.i
  %11 = phi ptr [ %.pre1303.i, %_ZNSt7__cxx1112basic_stringIcSt11char_traitsIcESaIcEED2Ev.exit.i ], [ %incdec.ptr.i, %if.end46.i ]
  %option_count.0.i = phi i32 [ 0, %_ZNSt7__cxx1112basic_stringIcSt11char_traitsIcESaIcEED2Ev.exit.i ], [ %option_count.1.i, %if.end46.i ]
  %12 = load i8, ptr %11, align 1, !tbaa !38
  switch i8 %12, label %if.else40.i [
    i8 0, label %for.cond.preheader.i
    i8 44, label %if.then29.i
  ]

for.cond.preheader.i:                             ; preds = %while.cond25.i
  %cmp47.not1288.i = icmp slt i32 %option_count.0.i, 0
  br i1 %cmp47.not1288.i, label %for.cond.cleanup.i, label %for.body.preheader.i

for.body.preheader.i:                             ; preds = %for.cond.preheader.i
  %13 = add nuw i32 %option_count.0.i, 1
  %wide.trip.count.i = zext i32 %13 to i64
  br label %for.body.i

if.then29.i:                                      ; preds = %while.cond25.i
  call void @llvm.lifetime.start.p0(i64 32, ptr nonnull %ref.tmp30.i) #33
  store ptr %2, ptr %ref.tmp30.i, align 8, !tbaa !45
  store i64 0, ptr %_M_string_length.i.i.i.i453.i, align 8, !tbaa !12
  store i8 0, ptr %2, align 8, !tbaa !38
  %14 = load ptr, ptr %_M_finish.i.i.i, align 8, !tbaa !13
  %15 = load ptr, ptr %_M_end_of_storage.i.i.i, align 8, !tbaa !46
  %cmp.not.i.i463.i = icmp eq ptr %14, %15
  br i1 %cmp.not.i.i463.i, label %if.else.i.i475.i, label %if.then.i.i464.i

if.then.i.i464.i:                                 ; preds = %if.then29.i
  %16 = getelementptr inbounds %"class.std::__cxx11::basic_string", ptr %14, i64 0, i32 2
  store ptr %16, ptr %14, align 8, !tbaa !45
  %17 = load ptr, ptr %ref.tmp30.i, align 8, !tbaa !5
  %cmp.i.i.i.i.i.i465.i = icmp eq ptr %17, %2
  br i1 %cmp.i.i.i.i.i.i465.i, label %if.then.i.i.i.i.i471.i, label %if.else.i.i.i.i.i466.i

if.then.i.i.i.i.i471.i:                           ; preds = %if.then.i.i464.i
  %18 = load i8, ptr %2, align 8
  store i8 %18, ptr %16, align 8
  br label %invoke.cont35.thread.i

if.else.i.i.i.i.i466.i:                           ; preds = %if.then.i.i464.i
  store ptr %17, ptr %14, align 8, !tbaa !5
  %19 = load i64, ptr %2, align 8, !tbaa !38
  store i64 %19, ptr %16, align 8, !tbaa !38
  br label %invoke.cont35.thread.i

invoke.cont35.thread.i:                           ; preds = %if.else.i.i.i.i.i466.i, %if.then.i.i.i.i.i471.i
  %_M_string_length.i24.i.i.i.i.i469.i = getelementptr inbounds %"class.std::__cxx11::basic_string", ptr %14, i64 0, i32 1
  store i64 0, ptr %_M_string_length.i24.i.i.i.i.i469.i, align 8, !tbaa !12
  %incdec.ptr.i.i470.i = getelementptr inbounds %"class.std::__cxx11::basic_string", ptr %14, i64 1
  store ptr %incdec.ptr.i.i470.i, ptr %_M_finish.i.i.i, align 8, !tbaa !48
  br label %_ZNKSt7__cxx1112basic_stringIcSt11char_traitsIcESaIcEE11_M_is_localEv.exit.thread.i.i480.i

if.else.i.i475.i:                                 ; preds = %if.then29.i
  %20 = load ptr, ptr %warn_options.i, align 8, !tbaa !13
  %sub.ptr.lhs.cast.i.i.i.i = ptrtoint ptr %14 to i64
  %sub.ptr.rhs.cast.i.i.i.i = ptrtoint ptr %20 to i64
  %sub.ptr.sub.i.i.i.i = sub i64 %sub.ptr.lhs.cast.i.i.i.i, %sub.ptr.rhs.cast.i.i.i.i
  %cmp.i.i955.i = icmp eq i64 %sub.ptr.sub.i.i.i.i, 9223372036854775776
  br i1 %cmp.i.i955.i, label %if.then.i.i964.i, label %_ZNKSt6vectorINSt7__cxx1112basic_stringIcSt11char_traitsIcESaIcEEESaIS5_EE12_M_check_lenEmPKc.exit.i.i

if.then.i.i964.i:                                 ; preds = %if.else.i.i475.i
  invoke void @_ZSt20__throw_length_errorPKc(ptr noundef nonnull @.str.92) #34
          to label %.noexc965.i unwind label %lpad34.i

.noexc965.i:                                      ; preds = %if.then.i.i964.i
  unreachable

_ZNKSt6vectorINSt7__cxx1112basic_stringIcSt11char_traitsIcESaIcEEESaIS5_EE12_M_check_lenEmPKc.exit.i.i: ; preds = %if.else.i.i475.i
  %sub.ptr.div.i.i.i.i = ashr exact i64 %sub.ptr.sub.i.i.i.i, 5
  %.sroa.speculated.i.i.i = call i64 @llvm.umax.i64(i64 %sub.ptr.div.i.i.i.i, i64 1)
  %add.i.i956.i = add i64 %.sroa.speculated.i.i.i, %sub.ptr.div.i.i.i.i
  %cmp7.i.i.i = icmp ult i64 %add.i.i956.i, %sub.ptr.div.i.i.i.i
  %cmp9.i.i.i = icmp ugt i64 %add.i.i956.i, 288230376151711743
  %or.cond.i.i.i = or i1 %cmp7.i.i.i, %cmp9.i.i.i
  %cond.i.i.i = select i1 %or.cond.i.i.i, i64 288230376151711743, i64 %add.i.i956.i
  %cmp.not.i.i957.i = icmp eq i64 %cond.i.i.i, 0
  br i1 %cmp.not.i.i957.i, label %_ZNSt16allocator_traitsISaINSt7__cxx1112basic_stringIcSt11char_traitsIcESaIcEEEEE9constructIS5_JS5_EEEvRS6_PT_DpOT0_.exit.i.i, label %_ZNSt16allocator_traitsISaINSt7__cxx1112basic_stringIcSt11char_traitsIcESaIcEEEEE8allocateERS6_m.exit.i.i.i

_ZNSt16allocator_traitsISaINSt7__cxx1112basic_stringIcSt11char_traitsIcESaIcEEEEE8allocateERS6_m.exit.i.i.i: ; preds = %_ZNKSt6vectorINSt7__cxx1112basic_stringIcSt11char_traitsIcESaIcEEESaIS5_EE12_M_check_lenEmPKc.exit.i.i
  %mul.i.i.i.i.i = shl nuw nsw i64 %cond.i.i.i, 5
  %call5.i.i.i.i966.i = invoke noalias noundef nonnull ptr @_Znwm(i64 noundef %mul.i.i.i.i.i) #37
          to label %_ZNSt16allocator_traitsISaINSt7__cxx1112basic_stringIcSt11char_traitsIcESaIcEEEEE9constructIS5_JS5_EEEvRS6_PT_DpOT0_.exit.i.i unwind label %lpad34.thread.i

_ZNSt16allocator_traitsISaINSt7__cxx1112basic_stringIcSt11char_traitsIcESaIcEEEEE9constructIS5_JS5_EEEvRS6_PT_DpOT0_.exit.i.i: ; preds = %_ZNSt16allocator_traitsISaINSt7__cxx1112basic_stringIcSt11char_traitsIcESaIcEEEEE8allocateERS6_m.exit.i.i.i, %_ZNKSt6vectorINSt7__cxx1112basic_stringIcSt11char_traitsIcESaIcEEESaIS5_EE12_M_check_lenEmPKc.exit.i.i
  %cond.i31.i.i = phi ptr [ null, %_ZNKSt6vectorINSt7__cxx1112basic_stringIcSt11char_traitsIcESaIcEEESaIS5_EE12_M_check_lenEmPKc.exit.i.i ], [ %call5.i.i.i.i966.i, %_ZNSt16allocator_traitsISaINSt7__cxx1112basic_stringIcSt11char_traitsIcESaIcEEEEE8allocateERS6_m.exit.i.i.i ]
  %add.ptr.i958.i = getelementptr inbounds %"class.std::__cxx11::basic_string", ptr %cond.i31.i.i, i64 %sub.ptr.div.i.i.i.i
  %21 = getelementptr inbounds %"class.std::__cxx11::basic_string", ptr %cond.i31.i.i, i64 %sub.ptr.div.i.i.i.i, i32 2
  store ptr %21, ptr %add.ptr.i958.i, align 8, !tbaa !45
  store i8 0, ptr %21, align 8
  %_M_string_length.i24.i.i.i.i.i = getelementptr inbounds %"class.std::__cxx11::basic_string", ptr %cond.i31.i.i, i64 %sub.ptr.div.i.i.i.i, i32 1
  store i64 0, ptr %_M_string_length.i24.i.i.i.i.i, align 8, !tbaa !12
  store ptr %2, ptr %ref.tmp30.i, align 8, !tbaa !5
  store i64 0, ptr %_M_string_length.i.i.i.i453.i, align 8, !tbaa !12
  store i8 0, ptr %2, align 8, !tbaa !38
  %cmp.not6.i.i.i.i.i.i = icmp eq ptr %20, %14
  br i1 %cmp.not6.i.i.i.i.i.i, label %_ZNSt6vectorINSt7__cxx1112basic_stringIcSt11char_traitsIcESaIcEEESaIS5_EE11_S_relocateEPS5_S8_S8_RS6_.exit.i.i, label %for.body.i.i.i.i.i.i

for.body.i.i.i.i.i.i:                             ; preds = %_ZNSt16allocator_traitsISaINSt7__cxx1112basic_stringIcSt11char_traitsIcESaIcEEEEE9constructIS5_JS5_EEEvRS6_PT_DpOT0_.exit.i.i, %_ZSt19__relocate_object_aINSt7__cxx1112basic_stringIcSt11char_traitsIcESaIcEEES5_SaIS5_EEvPT_PT0_RT1_.exit.i.i.i.i.i.i
  %__cur.08.i.i.i.i.i.i = phi ptr [ %incdec.ptr1.i.i.i.i.i.i, %_ZSt19__relocate_object_aINSt7__cxx1112basic_stringIcSt11char_traitsIcESaIcEEES5_SaIS5_EEvPT_PT0_RT1_.exit.i.i.i.i.i.i ], [ %cond.i31.i.i, %_ZNSt16allocator_traitsISaINSt7__cxx1112basic_stringIcSt11char_traitsIcESaIcEEEEE9constructIS5_JS5_EEEvRS6_PT_DpOT0_.exit.i.i ]
  %__first.addr.07.i.i.i.i.i.i = phi ptr [ %incdec.ptr.i.i.i.i.i.i, %_ZSt19__relocate_object_aINSt7__cxx1112basic_stringIcSt11char_traitsIcESaIcEEES5_SaIS5_EEvPT_PT0_RT1_.exit.i.i.i.i.i.i ], [ %20, %_ZNSt16allocator_traitsISaINSt7__cxx1112basic_stringIcSt11char_traitsIcESaIcEEEEE9constructIS5_JS5_EEEvRS6_PT_DpOT0_.exit.i.i ]
  call void @llvm.experimental.noalias.scope.decl(metadata !49)
  call void @llvm.experimental.noalias.scope.decl(metadata !52)
  %22 = getelementptr inbounds %"class.std::__cxx11::basic_string", ptr %__cur.08.i.i.i.i.i.i, i64 0, i32 2
  store ptr %22, ptr %__cur.08.i.i.i.i.i.i, align 8, !tbaa !45, !alias.scope !49, !noalias !52
  %23 = load ptr, ptr %__first.addr.07.i.i.i.i.i.i, align 8, !tbaa !5, !alias.scope !52, !noalias !49
  %24 = getelementptr inbounds %"class.std::__cxx11::basic_string", ptr %__first.addr.07.i.i.i.i.i.i, i64 0, i32 2
  %cmp.i.i.i.i.i.i.i.i.i.i.i = icmp eq ptr %23, %24
  br i1 %cmp.i.i.i.i.i.i.i.i.i.i.i, label %if.then.i.i.i.i.i.i.i.i.i.i, label %if.else.i.i.i.i.i.i.i.i.i.i

if.then.i.i.i.i.i.i.i.i.i.i:                      ; preds = %for.body.i.i.i.i.i.i
  %_M_string_length.i.i.i.i.i.i.i.i.i.i.i = getelementptr inbounds %"class.std::__cxx11::basic_string", ptr %__first.addr.07.i.i.i.i.i.i, i64 0, i32 1
  %25 = load i64, ptr %_M_string_length.i.i.i.i.i.i.i.i.i.i.i, align 8, !tbaa !12, !alias.scope !52, !noalias !49
  %cmp3.i.i.i.i.i.i.i.i.i.i.i = icmp ult i64 %25, 16
  call void @llvm.assume(i1 %cmp3.i.i.i.i.i.i.i.i.i.i.i)
  %add.i.i.i.i.i.i.i.i.i.i = add nuw nsw i64 %25, 1
  call void @llvm.memcpy.p0.p0.i64(ptr noundef nonnull align 8 dereferenceable(1) %22, ptr noundef nonnull align 8 dereferenceable(1) %23, i64 %add.i.i.i.i.i.i.i.i.i.i, i1 false)
  br label %_ZSt19__relocate_object_aINSt7__cxx1112basic_stringIcSt11char_traitsIcESaIcEEES5_SaIS5_EEvPT_PT0_RT1_.exit.i.i.i.i.i.i

if.else.i.i.i.i.i.i.i.i.i.i:                      ; preds = %for.body.i.i.i.i.i.i
  store ptr %23, ptr %__cur.08.i.i.i.i.i.i, align 8, !tbaa !5, !alias.scope !49, !noalias !52
  %26 = load i64, ptr %24, align 8, !tbaa !38, !alias.scope !52, !noalias !49
  store i64 %26, ptr %22, align 8, !tbaa !38, !alias.scope !49, !noalias !52
  %_M_string_length.i23.i.i.i.phi.trans.insert.i.i.i.i.i.i.i = getelementptr inbounds %"class.std::__cxx11::basic_string", ptr %__first.addr.07.i.i.i.i.i.i, i64 0, i32 1
  %.pre.i.i.i.i.i.i.i = load i64, ptr %_M_string_length.i23.i.i.i.phi.trans.insert.i.i.i.i.i.i.i, align 8, !tbaa !12, !alias.scope !52, !noalias !49
  br label %_ZSt19__relocate_object_aINSt7__cxx1112basic_stringIcSt11char_traitsIcESaIcEEES5_SaIS5_EEvPT_PT0_RT1_.exit.i.i.i.i.i.i

_ZSt19__relocate_object_aINSt7__cxx1112basic_stringIcSt11char_traitsIcESaIcEEES5_SaIS5_EEvPT_PT0_RT1_.exit.i.i.i.i.i.i: ; preds = %if.else.i.i.i.i.i.i.i.i.i.i, %if.then.i.i.i.i.i.i.i.i.i.i
  %27 = phi i64 [ %25, %if.then.i.i.i.i.i.i.i.i.i.i ], [ %.pre.i.i.i.i.i.i.i, %if.else.i.i.i.i.i.i.i.i.i.i ]
  %_M_string_length.i23.i.i.i.i.i.i.i.i.i.i = getelementptr inbounds %"class.std::__cxx11::basic_string", ptr %__first.addr.07.i.i.i.i.i.i, i64 0, i32 1
  %_M_string_length.i24.i.i.i.i.i.i.i.i.i.i = getelementptr inbounds %"class.std::__cxx11::basic_string", ptr %__cur.08.i.i.i.i.i.i, i64 0, i32 1
  store i64 %27, ptr %_M_string_length.i24.i.i.i.i.i.i.i.i.i.i, align 8, !tbaa !12, !alias.scope !49, !noalias !52
  store ptr %24, ptr %__first.addr.07.i.i.i.i.i.i, align 8, !tbaa !5, !alias.scope !52, !noalias !49
  store i64 0, ptr %_M_string_length.i23.i.i.i.i.i.i.i.i.i.i, align 8, !tbaa !12, !alias.scope !52, !noalias !49
  store i8 0, ptr %24, align 1, !tbaa !38, !alias.scope !52, !noalias !49
  %incdec.ptr.i.i.i.i.i.i = getelementptr inbounds %"class.std::__cxx11::basic_string", ptr %__first.addr.07.i.i.i.i.i.i, i64 1
  %incdec.ptr1.i.i.i.i.i.i = getelementptr inbounds %"class.std::__cxx11::basic_string", ptr %__cur.08.i.i.i.i.i.i, i64 1
  %cmp.not.i.i.i.i.i.i = icmp eq ptr %incdec.ptr.i.i.i.i.i.i, %14
  br i1 %cmp.not.i.i.i.i.i.i, label %_ZNSt6vectorINSt7__cxx1112basic_stringIcSt11char_traitsIcESaIcEEESaIS5_EE11_S_relocateEPS5_S8_S8_RS6_.exit.i.i, label %for.body.i.i.i.i.i.i, !llvm.loop !54

_ZNSt6vectorINSt7__cxx1112basic_stringIcSt11char_traitsIcESaIcEEESaIS5_EE11_S_relocateEPS5_S8_S8_RS6_.exit.i.i: ; preds = %_ZSt19__relocate_object_aINSt7__cxx1112basic_stringIcSt11char_traitsIcESaIcEEES5_SaIS5_EEvPT_PT0_RT1_.exit.i.i.i.i.i.i, %_ZNSt16allocator_traitsISaINSt7__cxx1112basic_stringIcSt11char_traitsIcESaIcEEEEE9constructIS5_JS5_EEEvRS6_PT_DpOT0_.exit.i.i
  %__cur.0.lcssa.i.i.i.i.i.i = phi ptr [ %cond.i31.i.i, %_ZNSt16allocator_traitsISaINSt7__cxx1112basic_stringIcSt11char_traitsIcESaIcEEEEE9constructIS5_JS5_EEEvRS6_PT_DpOT0_.exit.i.i ], [ %incdec.ptr1.i.i.i.i.i.i, %_ZSt19__relocate_object_aINSt7__cxx1112basic_stringIcSt11char_traitsIcESaIcEEES5_SaIS5_EEvPT_PT0_RT1_.exit.i.i.i.i.i.i ]
  %incdec.ptr.i960.i = getelementptr inbounds %"class.std::__cxx11::basic_string", ptr %__cur.0.lcssa.i.i.i.i.i.i, i64 1
  %tobool.not.i.i.i = icmp eq ptr %20, null
  br i1 %tobool.not.i.i.i, label %invoke.cont35.i, label %if.then.i53.i.i

if.then.i53.i.i:                                  ; preds = %_ZNSt6vectorINSt7__cxx1112basic_stringIcSt11char_traitsIcESaIcEEESaIS5_EE11_S_relocateEPS5_S8_S8_RS6_.exit.i.i
  call void @_ZdlPv(ptr noundef nonnull %20) #31
  br label %invoke.cont35.i

invoke.cont35.i:                                  ; preds = %if.then.i53.i.i, %_ZNSt6vectorINSt7__cxx1112basic_stringIcSt11char_traitsIcESaIcEEESaIS5_EE11_S_relocateEPS5_S8_S8_RS6_.exit.i.i
  store ptr %cond.i31.i.i, ptr %warn_options.i, align 8, !tbaa !56
  store ptr %incdec.ptr.i960.i, ptr %_M_finish.i.i.i, align 8, !tbaa !48
  %add.ptr19.i.i = getelementptr inbounds %"class.std::__cxx11::basic_string", ptr %cond.i31.i.i, i64 %cond.i.i.i
  store ptr %add.ptr19.i.i, ptr %_M_end_of_storage.i.i.i, align 8, !tbaa !46
  %.pre1304.i = load ptr, ptr %ref.tmp30.i, align 8, !tbaa !5
  %cmp.i.i.i478.i = icmp eq ptr %.pre1304.i, %2
  br i1 %cmp.i.i.i478.i, label %invoke.cont35.i._ZNKSt7__cxx1112basic_stringIcSt11char_traitsIcESaIcEE11_M_is_localEv.exit.thread.i.i480.i_crit_edge, label %if.then.i.i479.i

invoke.cont35.i._ZNKSt7__cxx1112basic_stringIcSt11char_traitsIcESaIcEE11_M_is_localEv.exit.thread.i.i480.i_crit_edge: ; preds = %invoke.cont35.i
  %.pre = load i64, ptr %_M_string_length.i.i.i.i453.i, align 8, !tbaa !12
  br label %_ZNKSt7__cxx1112basic_stringIcSt11char_traitsIcESaIcEE11_M_is_localEv.exit.thread.i.i480.i

_ZNKSt7__cxx1112basic_stringIcSt11char_traitsIcESaIcEE11_M_is_localEv.exit.thread.i.i480.i: ; preds = %invoke.cont35.i._ZNKSt7__cxx1112basic_stringIcSt11char_traitsIcESaIcEE11_M_is_localEv.exit.thread.i.i480.i_crit_edge, %invoke.cont35.thread.i
  %28 = phi i64 [ %.pre, %invoke.cont35.i._ZNKSt7__cxx1112basic_stringIcSt11char_traitsIcESaIcEE11_M_is_localEv.exit.thread.i.i480.i_crit_edge ], [ 0, %invoke.cont35.thread.i ]
  %cmp3.i.i.i482.i = icmp ult i64 %28, 16
  call void @llvm.assume(i1 %cmp3.i.i.i482.i)
  br label %_ZNSt7__cxx1112basic_stringIcSt11char_traitsIcESaIcEED2Ev.exit483.i

if.then.i.i479.i:                                 ; preds = %invoke.cont35.i
  call void @_ZdlPv(ptr noundef %.pre1304.i) #31
  br label %_ZNSt7__cxx1112basic_stringIcSt11char_traitsIcESaIcEED2Ev.exit483.i

_ZNSt7__cxx1112basic_stringIcSt11char_traitsIcESaIcEED2Ev.exit483.i: ; preds = %if.then.i.i479.i, %_ZNKSt7__cxx1112basic_stringIcSt11char_traitsIcESaIcEE11_M_is_localEv.exit.thread.i.i480.i
  call void @llvm.lifetime.end.p0(i64 32, ptr nonnull %ref.tmp30.i) #33
  %inc.i = add nsw i32 %option_count.0.i, 1
  br label %if.end46.i

lpad21.i:                                         ; preds = %if.else.i.i.i
  %29 = landingpad { ptr, i32 }
          cleanup
  %30 = load ptr, ptr %ref.tmp.i, align 8, !tbaa !5
  %cmp.i.i.i484.i = icmp eq ptr %30, %1
  br i1 %cmp.i.i.i484.i, label %_ZNKSt7__cxx1112basic_stringIcSt11char_traitsIcESaIcEE11_M_is_localEv.exit.thread.i.i486.i, label %if.then.i.i485.i

_ZNKSt7__cxx1112basic_stringIcSt11char_traitsIcESaIcEE11_M_is_localEv.exit.thread.i.i486.i: ; preds = %lpad21.i
  %31 = load i64, ptr %_M_string_length.i.i.i.i.i, align 8, !tbaa !12
  %cmp3.i.i.i488.i = icmp ult i64 %31, 16
  call void @llvm.assume(i1 %cmp3.i.i.i488.i)
  br label %ehcleanup.i

if.then.i.i485.i:                                 ; preds = %lpad21.i
  call void @_ZdlPv(ptr noundef %30) #31
  br label %ehcleanup.i

ehcleanup.i:                                      ; preds = %if.then.i.i485.i, %_ZNKSt7__cxx1112basic_stringIcSt11char_traitsIcESaIcEE11_M_is_localEv.exit.thread.i.i486.i
  call void @llvm.lifetime.end.p0(i64 32, ptr nonnull %ref.tmp.i) #33
  br label %ehcleanup104.i

lpad34.thread.i:                                  ; preds = %_ZNSt16allocator_traitsISaINSt7__cxx1112basic_stringIcSt11char_traitsIcESaIcEEEEE8allocateERS6_m.exit.i.i.i
  %lpad.loopexit1013.i = landingpad { ptr, i32 }
          cleanup
  br label %_ZNKSt7__cxx1112basic_stringIcSt11char_traitsIcESaIcEE11_M_is_localEv.exit.thread.i.i492.i

lpad34.i:                                         ; preds = %if.then.i.i964.i
  %lpad.loopexit.split-lp1014.i = landingpad { ptr, i32 }
          cleanup
  %.pre1305.i = load ptr, ptr %ref.tmp30.i, align 8, !tbaa !5
  %cmp.i.i.i490.i = icmp eq ptr %.pre1305.i, %2
  br i1 %cmp.i.i.i490.i, label %lpad34.i._ZNKSt7__cxx1112basic_stringIcSt11char_traitsIcESaIcEE11_M_is_localEv.exit.thread.i.i492.i_crit_edge, label %if.then.i.i491.i

lpad34.i._ZNKSt7__cxx1112basic_stringIcSt11char_traitsIcESaIcEE11_M_is_localEv.exit.thread.i.i492.i_crit_edge: ; preds = %lpad34.i
  %.pre2130 = load i64, ptr %_M_string_length.i.i.i.i453.i, align 8, !tbaa !12
  %32 = icmp ult i64 %.pre2130, 16
  br label %_ZNKSt7__cxx1112basic_stringIcSt11char_traitsIcESaIcEE11_M_is_localEv.exit.thread.i.i492.i

_ZNKSt7__cxx1112basic_stringIcSt11char_traitsIcESaIcEE11_M_is_localEv.exit.thread.i.i492.i: ; preds = %lpad34.i._ZNKSt7__cxx1112basic_stringIcSt11char_traitsIcESaIcEE11_M_is_localEv.exit.thread.i.i492.i_crit_edge, %lpad34.thread.i
  %cmp3.i.i.i494.i = phi i1 [ true, %lpad34.thread.i ], [ %32, %lpad34.i._ZNKSt7__cxx1112basic_stringIcSt11char_traitsIcESaIcEE11_M_is_localEv.exit.thread.i.i492.i_crit_edge ]
  %lpad.phi10151317.i = phi { ptr, i32 } [ %lpad.loopexit1013.i, %lpad34.thread.i ], [ %lpad.loopexit.split-lp1014.i, %lpad34.i._ZNKSt7__cxx1112basic_stringIcSt11char_traitsIcESaIcEE11_M_is_localEv.exit.thread.i.i492.i_crit_edge ]
  call void @llvm.assume(i1 %cmp3.i.i.i494.i)
  br label %ehcleanup37.i

if.then.i.i491.i:                                 ; preds = %lpad34.i
  call void @_ZdlPv(ptr noundef %.pre1305.i) #31
  br label %ehcleanup37.i

ehcleanup37.i:                                    ; preds = %if.then.i.i491.i, %_ZNKSt7__cxx1112basic_stringIcSt11char_traitsIcESaIcEE11_M_is_localEv.exit.thread.i.i492.i
  %lpad.phi10151316.i = phi { ptr, i32 } [ %lpad.loopexit.split-lp1014.i, %if.then.i.i491.i ], [ %lpad.phi10151317.i, %_ZNKSt7__cxx1112basic_stringIcSt11char_traitsIcESaIcEE11_M_is_localEv.exit.thread.i.i492.i ]
  call void @llvm.lifetime.end.p0(i64 32, ptr nonnull %ref.tmp30.i) #33
  br label %ehcleanup104.i

if.else40.i:                                      ; preds = %while.cond25.i
  %conv41.i = sext i32 %option_count.0.i to i64
  %33 = load ptr, ptr %warn_options.i, align 8, !tbaa !56
  %add.ptr.i.i = getelementptr inbounds %"class.std::__cxx11::basic_string", ptr %33, i64 %conv41.i
  %_M_string_length.i.i.i496.i = getelementptr inbounds %"class.std::__cxx11::basic_string", ptr %33, i64 %conv41.i, i32 1
  %34 = load i64, ptr %_M_string_length.i.i.i496.i, align 8, !tbaa !12
  %add.i.i.i = add i64 %34, 1
  %35 = load ptr, ptr %add.ptr.i.i, align 8, !tbaa !5
  %36 = getelementptr inbounds %"class.std::__cxx11::basic_string", ptr %33, i64 %conv41.i, i32 2
  %cmp.i.i.i.i.i = icmp eq ptr %35, %36
  br i1 %cmp.i.i.i.i.i, label %if.then.i.i.i.i500.i, label %_ZNKSt7__cxx1112basic_stringIcSt11char_traitsIcESaIcEE8capacityEv.exit.i.i.i

if.then.i.i.i.i500.i:                             ; preds = %if.else40.i
  %cmp3.i.i.i.i.i = icmp ult i64 %34, 16
  call void @llvm.assume(i1 %cmp3.i.i.i.i.i)
  br label %_ZNKSt7__cxx1112basic_stringIcSt11char_traitsIcESaIcEE8capacityEv.exit.i.i.i

_ZNKSt7__cxx1112basic_stringIcSt11char_traitsIcESaIcEE8capacityEv.exit.i.i.i: ; preds = %if.then.i.i.i.i500.i, %if.else40.i
  %37 = load i64, ptr %36, align 8
  %cond.i.i.i.i = select i1 %cmp.i.i.i.i.i, i64 15, i64 %37
  %cmp.i.i497.i = icmp ugt i64 %add.i.i.i, %cond.i.i.i.i
  br i1 %cmp.i.i497.i, label %if.then.i.i499.i, label %_ZNSt7__cxx1112basic_stringIcSt11char_traitsIcESaIcEEpLEc.exit.i

if.then.i.i499.i:                                 ; preds = %_ZNKSt7__cxx1112basic_stringIcSt11char_traitsIcESaIcEE8capacityEv.exit.i.i.i
  invoke void @_ZNSt7__cxx1112basic_stringIcSt11char_traitsIcESaIcEE9_M_mutateEmmPKcm(ptr noundef nonnull align 8 dereferenceable(32) %add.ptr.i.i, i64 noundef %34, i64 noundef 0, ptr noundef null, i64 noundef 1)
          to label %.noexc501.i unwind label %lpad43.i

.noexc501.i:                                      ; preds = %if.then.i.i499.i
  %.pre.i.i.i = load ptr, ptr %add.ptr.i.i, align 8, !tbaa !5
  br label %_ZNSt7__cxx1112basic_stringIcSt11char_traitsIcESaIcEEpLEc.exit.i

_ZNSt7__cxx1112basic_stringIcSt11char_traitsIcESaIcEEpLEc.exit.i: ; preds = %.noexc501.i, %_ZNKSt7__cxx1112basic_stringIcSt11char_traitsIcESaIcEE8capacityEv.exit.i.i.i
  %38 = phi ptr [ %.pre.i.i.i, %.noexc501.i ], [ %35, %_ZNKSt7__cxx1112basic_stringIcSt11char_traitsIcESaIcEE8capacityEv.exit.i.i.i ]
  %arrayidx.i.i.i = getelementptr inbounds i8, ptr %38, i64 %34
  store i8 %12, ptr %arrayidx.i.i.i, align 1, !tbaa !38
  store i64 %add.i.i.i, ptr %_M_string_length.i.i.i496.i, align 8, !tbaa !12
  %39 = load ptr, ptr %add.ptr.i.i, align 8, !tbaa !5
  %arrayidx.i.i.i498.i = getelementptr inbounds i8, ptr %39, i64 %add.i.i.i
  store i8 0, ptr %arrayidx.i.i.i498.i, align 1, !tbaa !38
  br label %if.end46.i

lpad43.i:                                         ; preds = %if.then.i.i499.i
  %40 = landingpad { ptr, i32 }
          cleanup
  br label %ehcleanup104.i

if.end46.i:                                       ; preds = %_ZNSt7__cxx1112basic_stringIcSt11char_traitsIcESaIcEEpLEc.exit.i, %_ZNSt7__cxx1112basic_stringIcSt11char_traitsIcESaIcEED2Ev.exit483.i
  %option_count.1.i = phi i32 [ %inc.i, %_ZNSt7__cxx1112basic_stringIcSt11char_traitsIcESaIcEED2Ev.exit483.i ], [ %option_count.0.i, %_ZNSt7__cxx1112basic_stringIcSt11char_traitsIcESaIcEEpLEc.exit.i ]
  %41 = load ptr, ptr @optarg, align 8, !tbaa !13
  %incdec.ptr.i = getelementptr inbounds i8, ptr %41, i64 1
  store ptr %incdec.ptr.i, ptr @optarg, align 8, !tbaa !13
  br label %while.cond25.i, !llvm.loop !57

for.cond.cleanup.i:                               ; preds = %for.inc.i, %for.cond.preheader.i
  %42 = load ptr, ptr %warn_options.i, align 8, !tbaa !56
  %43 = load ptr, ptr %_M_finish.i.i.i, align 8, !tbaa !48
  %cmp.not3.i.i.i.i.i = icmp eq ptr %42, %43
  br i1 %cmp.not3.i.i.i.i.i, label %invoke.cont.i.i, label %for.body.i.i.i.i.i

for.body.i.i.i.i.i:                               ; preds = %for.cond.cleanup.i, %_ZSt8_DestroyINSt7__cxx1112basic_stringIcSt11char_traitsIcESaIcEEEEvPT_.exit.i.i.i.i.i
  %__first.addr.04.i.i.i.i.i = phi ptr [ %incdec.ptr.i.i.i.i.i, %_ZSt8_DestroyINSt7__cxx1112basic_stringIcSt11char_traitsIcESaIcEEEEvPT_.exit.i.i.i.i.i ], [ %42, %for.cond.cleanup.i ]
  %44 = load ptr, ptr %__first.addr.04.i.i.i.i.i, align 8, !tbaa !5
  %45 = getelementptr inbounds %"class.std::__cxx11::basic_string", ptr %__first.addr.04.i.i.i.i.i, i64 0, i32 2
  %cmp.i.i.i.i.i.i.i.i.i = icmp eq ptr %44, %45
  br i1 %cmp.i.i.i.i.i.i.i.i.i, label %_ZNKSt7__cxx1112basic_stringIcSt11char_traitsIcESaIcEE11_M_is_localEv.exit.thread.i.i.i.i.i.i.i.i, label %if.then.i.i.i.i.i.i.i.i

_ZNKSt7__cxx1112basic_stringIcSt11char_traitsIcESaIcEE11_M_is_localEv.exit.thread.i.i.i.i.i.i.i.i: ; preds = %for.body.i.i.i.i.i
  %_M_string_length.i.i.i.i.i.i.i.i.i = getelementptr inbounds %"class.std::__cxx11::basic_string", ptr %__first.addr.04.i.i.i.i.i, i64 0, i32 1
  %46 = load i64, ptr %_M_string_length.i.i.i.i.i.i.i.i.i, align 8, !tbaa !12
  %cmp3.i.i.i.i.i.i.i.i.i = icmp ult i64 %46, 16
  call void @llvm.assume(i1 %cmp3.i.i.i.i.i.i.i.i.i)
  br label %_ZSt8_DestroyINSt7__cxx1112basic_stringIcSt11char_traitsIcESaIcEEEEvPT_.exit.i.i.i.i.i

if.then.i.i.i.i.i.i.i.i:                          ; preds = %for.body.i.i.i.i.i
  call void @_ZdlPv(ptr noundef %44) #31
  br label %_ZSt8_DestroyINSt7__cxx1112basic_stringIcSt11char_traitsIcESaIcEEEEvPT_.exit.i.i.i.i.i

_ZSt8_DestroyINSt7__cxx1112basic_stringIcSt11char_traitsIcESaIcEEEEvPT_.exit.i.i.i.i.i: ; preds = %if.then.i.i.i.i.i.i.i.i, %_ZNKSt7__cxx1112basic_stringIcSt11char_traitsIcESaIcEE11_M_is_localEv.exit.thread.i.i.i.i.i.i.i.i
  %incdec.ptr.i.i.i.i.i = getelementptr inbounds %"class.std::__cxx11::basic_string", ptr %__first.addr.04.i.i.i.i.i, i64 1
  %cmp.not.i.i.i.i.i = icmp eq ptr %incdec.ptr.i.i.i.i.i, %43
  br i1 %cmp.not.i.i.i.i.i, label %invoke.contthread-pre-split.i.i, label %for.body.i.i.i.i.i, !llvm.loop !58

invoke.contthread-pre-split.i.i:                  ; preds = %_ZSt8_DestroyINSt7__cxx1112basic_stringIcSt11char_traitsIcESaIcEEEEvPT_.exit.i.i.i.i.i
  %.pr.i.i = load ptr, ptr %warn_options.i, align 8, !tbaa !56
  br label %invoke.cont.i.i

invoke.cont.i.i:                                  ; preds = %invoke.contthread-pre-split.i.i, %for.cond.cleanup.i
  %47 = phi ptr [ %.pr.i.i, %invoke.contthread-pre-split.i.i ], [ %42, %for.cond.cleanup.i ]
  %tobool.not.i.i.i.i = icmp eq ptr %47, null
  br i1 %tobool.not.i.i.i.i, label %_ZNSt6vectorINSt7__cxx1112basic_stringIcSt11char_traitsIcESaIcEEESaIS5_EED2Ev.exit.i, label %if.then.i.i.i.i

if.then.i.i.i.i:                                  ; preds = %invoke.cont.i.i
  call void @_ZdlPv(ptr noundef nonnull %47) #31
  br label %_ZNSt6vectorINSt7__cxx1112basic_stringIcSt11char_traitsIcESaIcEEESaIS5_EED2Ev.exit.i

_ZNSt6vectorINSt7__cxx1112basic_stringIcSt11char_traitsIcESaIcEEESaIS5_EED2Ev.exit.i: ; preds = %if.then.i.i.i.i, %invoke.cont.i.i
  call void @llvm.lifetime.end.p0(i64 24, ptr nonnull %warn_options.i) #33
  br label %while.cond.i.backedge

for.body.i:                                       ; preds = %for.inc.i, %for.body.preheader.i
  %indvars.iv.i = phi i64 [ 0, %for.body.preheader.i ], [ %indvars.iv.next.i, %for.inc.i ]
  %48 = load ptr, ptr %warn_options.i, align 8, !tbaa !56
  %add.ptr.i502.i = getelementptr inbounds %"class.std::__cxx11::basic_string", ptr %48, i64 %indvars.iv.i
  %_M_string_length.i.i.i = getelementptr inbounds %"class.std::__cxx11::basic_string", ptr %48, i64 %indvars.iv.i, i32 1
  %49 = load i64, ptr %_M_string_length.i.i.i, align 8, !tbaa !12
  switch i64 %49, label %if.else84.i [
    i64 4, label %invoke.cont51.i
    i64 6, label %invoke.cont57.i
    i64 5, label %invoke.cont63.i
    i64 7, label %invoke.cont69.i
    i64 9, label %invoke.cont81.i
  ]

invoke.cont51.i:                                  ; preds = %for.body.i
  %50 = load ptr, ptr %add.ptr.i502.i, align 8, !tbaa !5
  %bcmp.i.i = call i32 @bcmp(ptr noundef nonnull dereferenceable(4) %50, ptr noundef nonnull dereferenceable(4) @.str.59, i64 4)
  %51 = icmp eq i32 %bcmp.i.i, 0
  br i1 %51, label %if.then53.i, label %if.else84.i

if.then53.i:                                      ; preds = %invoke.cont51.i
  store i8 1, ptr getelementptr inbounds (%struct.cmdline_options, ptr @g_options, i64 0, i32 27), align 8, !tbaa !42
  br label %for.inc.i

lpad50.i:                                         ; preds = %invoke.cont92.i, %invoke.cont90.i, %invoke.cont85.i, %if.else84.i
  %52 = landingpad { ptr, i32 }
          cleanup
  br label %ehcleanup104.i

invoke.cont57.i:                                  ; preds = %for.body.i
  %.pre1306.i = load ptr, ptr %add.ptr.i502.i, align 8, !tbaa !5
  %bcmp.i514.i = call i32 @bcmp(ptr noundef nonnull dereferenceable(6) %.pre1306.i, ptr noundef nonnull dereferenceable(6) @.str.60, i64 6)
  %53 = icmp eq i32 %bcmp.i514.i, 0
  br i1 %53, label %if.then59.i, label %if.else84.i

if.then59.i:                                      ; preds = %invoke.cont57.i
  store i8 0, ptr getelementptr inbounds (%struct.cmdline_options, ptr @g_options, i64 0, i32 27), align 8, !tbaa !42
  br label %for.inc.i

invoke.cont63.i:                                  ; preds = %for.body.i
  %.pre1307.i = load ptr, ptr %add.ptr.i502.i, align 8, !tbaa !5
  %bcmp.i523.i = call i32 @bcmp(ptr noundef nonnull dereferenceable(5) %.pre1307.i, ptr noundef nonnull dereferenceable(5) @.str.61, i64 5)
  %54 = icmp eq i32 %bcmp.i523.i, 0
  br i1 %54, label %if.then65.i, label %if.else84.i

if.then65.i:                                      ; preds = %invoke.cont63.i
  store i8 1, ptr getelementptr inbounds (%struct.cmdline_options, ptr @g_options, i64 0, i32 28), align 1, !tbaa !43
  br label %for.inc.i

invoke.cont69.i:                                  ; preds = %for.body.i
  %.pre1308.i = load ptr, ptr %add.ptr.i502.i, align 8, !tbaa !5
  %bcmp.i532.i = call i32 @bcmp(ptr noundef nonnull dereferenceable(7) %.pre1308.i, ptr noundef nonnull dereferenceable(7) @.str.62, i64 7)
  %55 = icmp eq i32 %bcmp.i532.i, 0
  br i1 %55, label %if.then71.i, label %invoke.cont75.i

if.then71.i:                                      ; preds = %invoke.cont69.i
  store i8 0, ptr getelementptr inbounds (%struct.cmdline_options, ptr @g_options, i64 0, i32 28), align 1, !tbaa !43
  br label %for.inc.i

invoke.cont75.i:                                  ; preds = %invoke.cont69.i
  %bcmp.i541.i = call i32 @bcmp(ptr noundef nonnull dereferenceable(7) %.pre1308.i, ptr noundef nonnull dereferenceable(7) @.str.63, i64 7)
  %56 = icmp eq i32 %bcmp.i541.i, 0
  br i1 %56, label %if.then77.i, label %if.else84.i

if.then77.i:                                      ; preds = %invoke.cont75.i
  store i8 1, ptr getelementptr inbounds (%struct.cmdline_options, ptr @g_options, i64 0, i32 29), align 2, !tbaa !44
  br label %for.inc.i

invoke.cont81.i:                                  ; preds = %for.body.i
  %.pre1309.i = load ptr, ptr %add.ptr.i502.i, align 8, !tbaa !5
  %bcmp.i550.i = call i32 @bcmp(ptr noundef nonnull dereferenceable(9) %.pre1309.i, ptr noundef nonnull dereferenceable(9) @.str.64, i64 9)
  %57 = icmp eq i32 %bcmp.i550.i, 0
  br i1 %57, label %if.then83.i, label %if.else84.i

if.then83.i:                                      ; preds = %invoke.cont81.i
  store i8 0, ptr getelementptr inbounds (%struct.cmdline_options, ptr @g_options, i64 0, i32 29), align 2, !tbaa !44
  br label %for.inc.i

if.else84.i:                                      ; preds = %invoke.cont81.i, %invoke.cont75.i, %invoke.cont63.i, %invoke.cont57.i, %invoke.cont51.i, %for.body.i
  %call86.i = invoke noundef ptr @_ZN2kc10NoFileLineEv()
          to label %invoke.cont85.i unwind label %lpad50.i

invoke.cont85.i:                                  ; preds = %if.else84.i
  %58 = load ptr, ptr %warn_options.i, align 8, !tbaa !56
  %add.ptr.i552.i = getelementptr inbounds %"class.std::__cxx11::basic_string", ptr %58, i64 %indvars.iv.i
  %59 = load ptr, ptr %add.ptr.i552.i, align 8, !tbaa !5
  %call91.i = invoke noundef ptr @_ZN2kc9Problem2SEPKcS1_(ptr noundef nonnull @.str.65, ptr noundef %59)
          to label %invoke.cont90.i unwind label %lpad50.i

invoke.cont90.i:                                  ; preds = %invoke.cont85.i
  %call93.i = invoke noundef ptr @_ZN2kc7WarningEPNS_13impl_filelineEPNS_12impl_problemE(ptr noundef %call86.i, ptr noundef %call91.i)
          to label %invoke.cont92.i unwind label %lpad50.i

invoke.cont92.i:                                  ; preds = %invoke.cont90.i
  invoke void @_ZN2kc8v_reportEPNS_10impl_errorE(ptr noundef %call93.i)
          to label %for.inc.i unwind label %lpad50.i

for.inc.i:                                        ; preds = %invoke.cont92.i, %if.then83.i, %if.then77.i, %if.then71.i, %if.then65.i, %if.then59.i, %if.then53.i
  %indvars.iv.next.i = add nuw nsw i64 %indvars.iv.i, 1
  %exitcond.not.i = icmp eq i64 %indvars.iv.next.i, %wide.trip.count.i
  br i1 %exitcond.not.i, label %for.cond.cleanup.i, label %for.body.i, !llvm.loop !59

ehcleanup104.i:                                   ; preds = %lpad50.i, %lpad43.i, %ehcleanup37.i, %ehcleanup.i
  %.pn439.pn.pn.i = phi { ptr, i32 } [ %29, %ehcleanup.i ], [ %lpad.phi10151316.i, %ehcleanup37.i ], [ %40, %lpad43.i ], [ %52, %lpad50.i ]
  call void @_ZNSt6vectorINSt7__cxx1112basic_stringIcSt11char_traitsIcESaIcEEESaIS5_EED2Ev(ptr noundef nonnull align 8 dereferenceable(24) %warn_options.i) #33
  call void @llvm.lifetime.end.p0(i64 24, ptr nonnull %warn_options.i) #33
  br label %common.resume

sw.bb107.i:                                       ; preds = %while.cond.i
  %60 = load ptr, ptr @optarg, align 8, !tbaa !13
  %61 = load i64, ptr getelementptr inbounds (%struct.cmdline_options, ptr @g_options, i64 0, i32 23, i32 1), align 8, !tbaa !12
  %call.i.i.i553.i = call i64 @strlen(ptr noundef nonnull dereferenceable(1) %60) #33
  %call3.i.i554.i = call noundef nonnull align 8 dereferenceable(32) ptr @_ZNSt7__cxx1112basic_stringIcSt11char_traitsIcESaIcEE10_M_replaceEmmPKcm(ptr noundef nonnull align 8 dereferenceable(32) getelementptr inbounds (%struct.cmdline_options, ptr @g_options, i64 0, i32 23), i64 noundef 0, i64 noundef %61, ptr noundef %60, i64 noundef %call.i.i.i553.i)
  br label %while.cond.i.backedge

sw.bb109.i:                                       ; preds = %while.cond.i
  %62 = load ptr, ptr @optarg, align 8, !tbaa !13
  %63 = load i64, ptr getelementptr inbounds (%struct.cmdline_options, ptr @g_options, i64 0, i32 22, i32 1), align 8, !tbaa !12
  %call.i.i.i555.i = call i64 @strlen(ptr noundef nonnull dereferenceable(1) %62) #33
  %call3.i.i556.i = call noundef nonnull align 8 dereferenceable(32) ptr @_ZNSt7__cxx1112basic_stringIcSt11char_traitsIcESaIcEE10_M_replaceEmmPKcm(ptr noundef nonnull align 8 dereferenceable(32) getelementptr inbounds (%struct.cmdline_options, ptr @g_options, i64 0, i32 22), i64 noundef 0, i64 noundef %63, ptr noundef %62, i64 noundef %call.i.i.i555.i)
  br label %while.cond.i.backedge

sw.bb111.i:                                       ; preds = %while.cond.i
  store i8 1, ptr getelementptr inbounds (%struct.cmdline_options, ptr @g_options, i64 0, i32 15), align 8, !tbaa !60
  br label %while.cond.i.backedge

sw.bb112.i:                                       ; preds = %while.cond.i
  %64 = load ptr, ptr @optarg, align 8
  %tobool113.not.i = icmp eq ptr %64, null
  %cond.i = select i1 %tobool113.not.i, ptr @.str.66, ptr %64
  %65 = load i64, ptr getelementptr inbounds (%struct.cmdline_options, ptr @g_options, i64 0, i32 14, i32 1), align 8, !tbaa !12
  %call.i.i.i557.i = call i64 @strlen(ptr noundef nonnull dereferenceable(1) %cond.i) #33
  %call3.i.i558.i = call noundef nonnull align 8 dereferenceable(32) ptr @_ZNSt7__cxx1112basic_stringIcSt11char_traitsIcESaIcEE10_M_replaceEmmPKcm(ptr noundef nonnull align 8 dereferenceable(32) getelementptr inbounds (%struct.cmdline_options, ptr @g_options, i64 0, i32 14), i64 noundef 0, i64 noundef %65, ptr noundef nonnull %cond.i, i64 noundef %call.i.i.i557.i)
  br label %while.cond.i.backedge

sw.bb115.i:                                       ; preds = %while.cond.i
  store i8 1, ptr getelementptr inbounds (%struct.cmdline_options, ptr @g_options, i64 0, i32 4), align 2, !tbaa !61
  br label %while.cond.i.backedge

sw.bb116.i:                                       ; preds = %while.cond.i
  store i8 1, ptr getelementptr inbounds (%struct.cmdline_options, ptr @g_options, i64 0, i32 5), align 1, !tbaa !62
  br label %while.cond.i.backedge

sw.bb117.i:                                       ; preds = %while.cond.i
  store i8 1, ptr getelementptr inbounds (%struct.cmdline_options, ptr @g_options, i64 0, i32 6), align 4, !tbaa !63
  br label %while.cond.i.backedge

sw.bb118.i:                                       ; preds = %while.cond.i
  store i8 1, ptr getelementptr inbounds (%struct.cmdline_options, ptr @g_options, i64 0, i32 7), align 1, !tbaa !64
  br label %while.cond.i.backedge

sw.bb119.i:                                       ; preds = %while.cond.i
  store i8 1, ptr getelementptr inbounds (%struct.cmdline_options, ptr @g_options, i64 0, i32 8), align 2, !tbaa !65
  br label %while.cond.i.backedge

sw.bb120.i:                                       ; preds = %while.cond.i
  store i8 1, ptr getelementptr inbounds (%struct.cmdline_options, ptr @g_options, i64 0, i32 9), align 1, !tbaa !66
  br label %while.cond.i.backedge

sw.bb121.i:                                       ; preds = %while.cond.i
  store i8 1, ptr getelementptr inbounds (%struct.cmdline_options, ptr @g_options, i64 0, i32 10), align 8, !tbaa !67
  br label %while.cond.i.backedge

sw.bb122.i:                                       ; preds = %while.cond.i
  store i8 1, ptr getelementptr inbounds (%struct.cmdline_options, ptr @g_options, i64 0, i32 10), align 8, !tbaa !67
  store i8 1, ptr getelementptr inbounds (%struct.cmdline_options, ptr @g_options, i64 0, i32 11), align 1, !tbaa !68
  br label %while.cond.i.backedge

sw.bb123.i:                                       ; preds = %while.cond.i
  store i8 1, ptr getelementptr inbounds (%struct.cmdline_options, ptr @g_options, i64 0, i32 16), align 1, !tbaa !69
  br label %while.cond.i.backedge

sw.bb124.i:                                       ; preds = %while.cond.i
  %66 = load ptr, ptr @optarg, align 8, !tbaa !13
  %67 = load i8, ptr %66, align 1, !tbaa !38
  switch i8 %67, label %if.then135.i [
    i8 121, label %if.end139.i
    i8 110, label %if.end139.i
    i8 112, label %if.end139.i
  ]

if.then135.i:                                     ; preds = %sw.bb124.i
  %call136.i = call noundef ptr @_ZN2kc10NoFileLineEv()
  %call137.i = call noundef ptr @_ZN2kc9Problem1SEPKc(ptr noundef nonnull @.str.67)
  %call138.i = call noundef ptr @_ZN2kc7WarningEPNS_13impl_filelineEPNS_12impl_problemE(ptr noundef %call136.i, ptr noundef %call137.i)
  call void @_ZN2kc8v_reportEPNS_10impl_errorE(ptr noundef %call138.i)
  %.pre1300.i = load ptr, ptr @optarg, align 8, !tbaa !13
  %.pre1301.i = load i8, ptr %.pre1300.i, align 1, !tbaa !38
  br label %if.end139.i

if.end139.i:                                      ; preds = %if.then135.i, %sw.bb124.i, %sw.bb124.i, %sw.bb124.i
  %68 = phi i8 [ %67, %sw.bb124.i ], [ %67, %sw.bb124.i ], [ %67, %sw.bb124.i ], [ %.pre1301.i, %if.then135.i ]
  store i8 %68, ptr getelementptr inbounds (%struct.cmdline_options, ptr @g_options, i64 0, i32 12), align 2, !tbaa !70
  br label %while.cond.i.backedge

sw.bb141.i:                                       ; preds = %while.cond.i
  store i8 0, ptr getelementptr inbounds (%struct.cmdline_options, ptr @g_options, i64 0, i32 17), align 2, !tbaa !71
  br label %while.cond.i.backedge

sw.bb142.i:                                       ; preds = %while.cond.i
  store ptr @.str.68, ptr @pg_line, align 8, !tbaa !13
  br label %while.cond.i.backedge

sw.bb143.i:                                       ; preds = %while.cond.i
  %call144.i = call ptr @getcwd(ptr noundef null, i64 noundef 0) #33
  %69 = load i64, ptr getelementptr inbounds (%struct.cmdline_options, ptr @g_options, i64 0, i32 26, i32 1), align 8, !tbaa !12
  %call.i.i.i559.i = call i64 @strlen(ptr noundef nonnull dereferenceable(1) %call144.i) #33
  %call3.i.i560.i = call noundef nonnull align 8 dereferenceable(32) ptr @_ZNSt7__cxx1112basic_stringIcSt11char_traitsIcESaIcEE10_M_replaceEmmPKcm(ptr noundef nonnull align 8 dereferenceable(32) getelementptr inbounds (%struct.cmdline_options, ptr @g_options, i64 0, i32 26), i64 noundef 0, i64 noundef %69, ptr noundef %call144.i, i64 noundef %call.i.i.i559.i)
  call void @free(ptr noundef %call144.i) #33
  %70 = load i64, ptr getelementptr inbounds (%struct.cmdline_options, ptr @g_options, i64 0, i32 26, i32 1), align 8, !tbaa !12
  %cmp.i561.i = icmp eq i64 %70, 0
  br i1 %cmp.i561.i, label %while.cond.i.backedge, label %land.lhs.true147.i

land.lhs.true147.i:                               ; preds = %sw.bb143.i
  %sub.i = add i64 %70, -1
  %71 = load ptr, ptr getelementptr inbounds (%struct.cmdline_options, ptr @g_options, i64 0, i32 26), align 8, !tbaa !5
  %arrayidx.i.i = getelementptr inbounds i8, ptr %71, i64 %sub.i
  %72 = load i8, ptr %arrayidx.i.i, align 1, !tbaa !38
  %cmp151.not.i = icmp eq i8 %72, 47
  br i1 %cmp151.not.i, label %while.cond.i.backedge, label %if.then152.i

if.then152.i:                                     ; preds = %land.lhs.true147.i
  %add.i.i562.i = add i64 %70, 1
  %cmp.i.i.i.i563.i = icmp eq ptr %71, getelementptr inbounds (%struct.cmdline_options, ptr @g_options, i64 0, i32 26, i32 2)
  br i1 %cmp.i.i.i.i563.i, label %if.then.i.i.i.i571.i, label %_ZNKSt7__cxx1112basic_stringIcSt11char_traitsIcESaIcEE8capacityEv.exit.i.i564.i

if.then.i.i.i.i571.i:                             ; preds = %if.then152.i
  %cmp3.i.i.i.i572.i = icmp ult i64 %70, 16
  call void @llvm.assume(i1 %cmp3.i.i.i.i572.i)
  br label %_ZNKSt7__cxx1112basic_stringIcSt11char_traitsIcESaIcEE8capacityEv.exit.i.i564.i

_ZNKSt7__cxx1112basic_stringIcSt11char_traitsIcESaIcEE8capacityEv.exit.i.i564.i: ; preds = %if.then.i.i.i.i571.i, %if.then152.i
  %73 = load i64, ptr getelementptr inbounds (%struct.cmdline_options, ptr @g_options, i64 0, i32 26, i32 2), align 8
  %cond.i.i.i565.i = select i1 %cmp.i.i.i.i563.i, i64 15, i64 %73
  %cmp.i.i566.i = icmp ugt i64 %add.i.i562.i, %cond.i.i.i565.i
  br i1 %cmp.i.i566.i, label %if.then.i.i569.i, label %_ZNSt7__cxx1112basic_stringIcSt11char_traitsIcESaIcEEpLEc.exit573.i

if.then.i.i569.i:                                 ; preds = %_ZNKSt7__cxx1112basic_stringIcSt11char_traitsIcESaIcEE8capacityEv.exit.i.i564.i
  call void @_ZNSt7__cxx1112basic_stringIcSt11char_traitsIcESaIcEE9_M_mutateEmmPKcm(ptr noundef nonnull align 8 dereferenceable(32) getelementptr inbounds (%struct.cmdline_options, ptr @g_options, i64 0, i32 26), i64 noundef %70, i64 noundef 0, ptr noundef null, i64 noundef 1)
  %.pre.i.i570.i = load ptr, ptr getelementptr inbounds (%struct.cmdline_options, ptr @g_options, i64 0, i32 26), align 8, !tbaa !5
  br label %_ZNSt7__cxx1112basic_stringIcSt11char_traitsIcESaIcEEpLEc.exit573.i

_ZNSt7__cxx1112basic_stringIcSt11char_traitsIcESaIcEEpLEc.exit573.i: ; preds = %if.then.i.i569.i, %_ZNKSt7__cxx1112basic_stringIcSt11char_traitsIcESaIcEE8capacityEv.exit.i.i564.i
  %74 = phi ptr [ %.pre.i.i570.i, %if.then.i.i569.i ], [ %71, %_ZNKSt7__cxx1112basic_stringIcSt11char_traitsIcESaIcEE8capacityEv.exit.i.i564.i ]
  %arrayidx.i.i567.i = getelementptr inbounds i8, ptr %74, i64 %70
  store i8 47, ptr %arrayidx.i.i567.i, align 1, !tbaa !38
  store i64 %add.i.i562.i, ptr getelementptr inbounds (%struct.cmdline_options, ptr @g_options, i64 0, i32 26, i32 1), align 8, !tbaa !12
  %75 = load ptr, ptr getelementptr inbounds (%struct.cmdline_options, ptr @g_options, i64 0, i32 26), align 8, !tbaa !5
  %arrayidx.i.i.i568.i = getelementptr inbounds i8, ptr %75, i64 %add.i.i562.i
  store i8 0, ptr %arrayidx.i.i.i568.i, align 1, !tbaa !38
  br label %while.cond.i.backedge

sw.bb155.i:                                       ; preds = %while.cond.i
  %76 = load ptr, ptr @optarg, align 8
  %tobool156.not.i = icmp eq ptr %76, null
  %cond160.i = select i1 %tobool156.not.i, ptr @.str.69, ptr %76
  %77 = load i64, ptr getelementptr inbounds (%struct.cmdline_options, ptr @g_options, i64 0, i32 20, i32 1), align 8, !tbaa !12
  %call.i.i.i574.i = call i64 @strlen(ptr noundef nonnull dereferenceable(1) %cond160.i) #33
  %call3.i.i575.i = call noundef nonnull align 8 dereferenceable(32) ptr @_ZNSt7__cxx1112basic_stringIcSt11char_traitsIcESaIcEE10_M_replaceEmmPKcm(ptr noundef nonnull align 8 dereferenceable(32) getelementptr inbounds (%struct.cmdline_options, ptr @g_options, i64 0, i32 20), i64 noundef 0, i64 noundef %77, ptr noundef nonnull %cond160.i, i64 noundef %call.i.i.i574.i)
  br label %while.cond.i.backedge

sw.bb162.i:                                       ; preds = %while.cond.i
  store i8 1, ptr getelementptr inbounds (%struct.cmdline_options, ptr @g_options, i64 0, i32 18), align 1, !tbaa !72
  br label %while.cond.i.backedge

sw.bb163.i:                                       ; preds = %while.cond.i
  %78 = load ptr, ptr @optarg, align 8, !tbaa !13
  %79 = load i8, ptr %78, align 1, !tbaa !38
  %cmp166.i = icmp eq i8 %79, 45
  br i1 %cmp166.i, label %if.then178.i, label %lor.lhs.false.i

lor.lhs.false.i:                                  ; preds = %sw.bb163.i
  %call167.i = call i64 @strlen(ptr noundef nonnull dereferenceable(1) %78) #36
  %sub168.i = add i64 %call167.i, -1
  %arrayidx169.i = getelementptr inbounds i8, ptr %78, i64 %sub168.i
  %80 = load i8, ptr %arrayidx169.i, align 1, !tbaa !38
  %cmp171.i = icmp eq i8 %80, 107
  br i1 %cmp171.i, label %land.lhs.true172.i, label %if.end182.i

land.lhs.true172.i:                               ; preds = %lor.lhs.false.i
  %sub174.i = add i64 %call167.i, -2
  %arrayidx175.i = getelementptr inbounds i8, ptr %78, i64 %sub174.i
  %81 = load i8, ptr %arrayidx175.i, align 1, !tbaa !38
  %cmp177.i = icmp eq i8 %81, 46
  br i1 %cmp177.i, label %if.then178.i, label %if.end182.i

if.then178.i:                                     ; preds = %land.lhs.true172.i, %sw.bb163.i
  %call179.i = call noundef ptr @_ZN2kc10NoFileLineEv()
  %82 = load ptr, ptr @optarg, align 8, !tbaa !13
  %call180.i = call noundef ptr @_ZN2kc9Problem3SEPKcS1_S1_(ptr noundef nonnull @.str.70, ptr noundef %82, ptr noundef nonnull @.str.71)
  %call181.i = call noundef ptr @_ZN2kc7WarningEPNS_13impl_filelineEPNS_12impl_problemE(ptr noundef %call179.i, ptr noundef %call180.i)
  call void @_ZN2kc8v_reportEPNS_10impl_errorE(ptr noundef %call181.i)
  %.pre.i = load ptr, ptr @optarg, align 8, !tbaa !13
  br label %if.end182.i

if.end182.i:                                      ; preds = %if.then178.i, %land.lhs.true172.i, %lor.lhs.false.i
  %83 = phi ptr [ %.pre.i, %if.then178.i ], [ %78, %land.lhs.true172.i ], [ %78, %lor.lhs.false.i ]
  %84 = load i64, ptr getelementptr inbounds (%struct.cmdline_options, ptr @g_options, i64 0, i32 21, i32 1), align 8, !tbaa !12
  %call.i.i.i576.i = call i64 @strlen(ptr noundef nonnull dereferenceable(1) %83) #33
  %call3.i.i577.i = call noundef nonnull align 8 dereferenceable(32) ptr @_ZNSt7__cxx1112basic_stringIcSt11char_traitsIcESaIcEE10_M_replaceEmmPKcm(ptr noundef nonnull align 8 dereferenceable(32) getelementptr inbounds (%struct.cmdline_options, ptr @g_options, i64 0, i32 21), i64 noundef 0, i64 noundef %84, ptr noundef %83, i64 noundef %call.i.i.i576.i)
  br label %while.cond.i.backedge

sw.bb184.i:                                       ; preds = %while.cond.i
  %85 = load ptr, ptr @optarg, align 8, !tbaa !13
  %86 = load i64, ptr getelementptr inbounds (%struct.cmdline_options, ptr @g_options, i64 0, i32 25, i32 1), align 8, !tbaa !12
  %call.i.i.i578.i = call i64 @strlen(ptr noundef nonnull dereferenceable(1) %85) #33
  %call3.i.i579.i = call noundef nonnull align 8 dereferenceable(32) ptr @_ZNSt7__cxx1112basic_stringIcSt11char_traitsIcESaIcEE10_M_replaceEmmPKcm(ptr noundef nonnull align 8 dereferenceable(32) getelementptr inbounds (%struct.cmdline_options, ptr @g_options, i64 0, i32 25), i64 noundef 0, i64 noundef %86, ptr noundef %85, i64 noundef %call.i.i.i578.i)
  br label %while.cond.i.backedge

while.cond.i.backedge:                            ; preds = %sw.bb184.i, %if.end182.i, %sw.bb162.i, %sw.bb155.i, %_ZNSt7__cxx1112basic_stringIcSt11char_traitsIcESaIcEEpLEc.exit573.i, %land.lhs.true147.i, %sw.bb143.i, %sw.bb142.i, %sw.bb141.i, %if.end139.i, %sw.bb123.i, %sw.bb122.i, %sw.bb121.i, %sw.bb120.i, %sw.bb119.i, %sw.bb118.i, %sw.bb117.i, %sw.bb116.i, %sw.bb115.i, %sw.bb112.i, %sw.bb111.i, %sw.bb109.i, %sw.bb107.i, %_ZNSt6vectorINSt7__cxx1112basic_stringIcSt11char_traitsIcESaIcEEESaIS5_EED2Ev.exit.i, %if.then19.i, %if.then12.i, %sw.bb10.i, %if.then.i, %sw.bb6.i, %sw.bb4.i, %while.cond.i
  br label %while.cond.i, !llvm.loop !73

while.end186.i:                                   ; preds = %while.cond.i
  %87 = load i8, ptr getelementptr inbounds (%struct.cmdline_options, ptr @g_options, i64 0, i32 4), align 2, !tbaa !61, !range !24, !noundef !25
  %tobool187.not.i = icmp eq i8 %87, 0
  %88 = load i8, ptr getelementptr inbounds (%struct.cmdline_options, ptr @g_options, i64 0, i32 7), align 1, !range !24
  %tobool189.not.i = icmp eq i8 %88, 0
  %or.cond.i = select i1 %tobool187.not.i, i1 true, i1 %tobool189.not.i
  br i1 %or.cond.i, label %if.then190.i, label %if.end191.i

if.then190.i:                                     ; preds = %while.end186.i
  store i8 0, ptr getelementptr inbounds (%struct.cmdline_options, ptr @g_options, i64 0, i32 8), align 2, !tbaa !65
  br label %if.end191.i

if.end191.i:                                      ; preds = %if.then190.i, %while.end186.i
  %89 = load i32, ptr @optind, align 4, !tbaa !40
  %cmp1941290.i = icmp slt i32 %89, %argc
  br i1 %cmp1941290.i, label %for.body196.lr.ph.i, label %for.cond.cleanup195.i

for.body196.lr.ph.i:                              ; preds = %if.end191.i
  %90 = getelementptr inbounds %"class.std::__cxx11::basic_string", ptr %ref.tmp222.i, i64 0, i32 2
  %_M_string_length.i.i.i.i.i.i = getelementptr inbounds %"class.std::__cxx11::basic_string", ptr %ref.tmp222.i, i64 0, i32 1
  %91 = getelementptr inbounds %"class.std::__cxx11::basic_string", ptr %ref.tmp227.i, i64 0, i32 2
  %_M_string_length.i.i.i.i.i589.i = getelementptr inbounds %"class.std::__cxx11::basic_string", ptr %ref.tmp227.i, i64 0, i32 1
  %92 = getelementptr inbounds %"class.std::__cxx11::basic_string", ptr %ref.tmp235.i, i64 0, i32 2
  %_M_string_length.i.i.i.i.i612.i = getelementptr inbounds %"class.std::__cxx11::basic_string", ptr %ref.tmp235.i, i64 0, i32 1
  %93 = getelementptr inbounds %"class.std::__cxx11::basic_string", ptr %ref.tmp244.i, i64 0, i32 2
  %_M_string_length.i.i.i.i.i636.i = getelementptr inbounds %"class.std::__cxx11::basic_string", ptr %ref.tmp244.i, i64 0, i32 1
  %94 = getelementptr inbounds %"class.std::__cxx11::basic_string", ptr %ref.tmp298.i, i64 0, i32 2
  %_M_string_length.i.i.i.i.i688.i = getelementptr inbounds %"class.std::__cxx11::basic_string", ptr %ref.tmp298.i, i64 0, i32 1
  %95 = getelementptr inbounds %"class.std::__cxx11::basic_string", ptr %ref.tmp297.i, i64 0, i32 2
  %_M_string_length.i24.i.i.i = getelementptr inbounds %"class.std::__cxx11::basic_string", ptr %ref.tmp297.i, i64 0, i32 1
  %96 = getelementptr inbounds %"class.std::__cxx11::basic_string", ptr %ref.tmp296.i, i64 0, i32 2
  %_M_string_length.i24.i.i727.i = getelementptr inbounds %"class.std::__cxx11::basic_string", ptr %ref.tmp296.i, i64 0, i32 1
  %97 = getelementptr inbounds %"class.std::__cxx11::basic_string", ptr %ref.tmp295.i, i64 0, i32 2
  %_M_string_length.i24.i.i742.i = getelementptr inbounds %"class.std::__cxx11::basic_string", ptr %ref.tmp295.i, i64 0, i32 1
  %98 = getelementptr inbounds %"class.std::__cxx11::basic_string", ptr %ref.tmp294.i, i64 0, i32 2
  %_M_string_length.i24.i.i760.i = getelementptr inbounds %"class.std::__cxx11::basic_string", ptr %ref.tmp294.i, i64 0, i32 1
  %99 = getelementptr inbounds %"class.std::__cxx11::basic_string", ptr %ref.tmp293.i, i64 0, i32 2
  %_M_string_length.i24.i.i777.i = getelementptr inbounds %"class.std::__cxx11::basic_string", ptr %ref.tmp293.i, i64 0, i32 1
  %100 = getelementptr inbounds %"class.std::__cxx11::basic_string", ptr %ref.tmp292.i, i64 0, i32 2
  %_M_string_length.i24.i.i795.i = getelementptr inbounds %"class.std::__cxx11::basic_string", ptr %ref.tmp292.i, i64 0, i32 1
  %101 = getelementptr inbounds %"class.std::__cxx11::basic_string", ptr %tmp.i, i64 0, i32 2
  %_M_string_length.i24.i.i812.i = getelementptr inbounds %"class.std::__cxx11::basic_string", ptr %tmp.i, i64 0, i32 1
  %102 = sext i32 %89 to i64
  br label %for.body196.i

for.cond.cleanup195.i:                            ; preds = %if.end355.i, %if.end191.i
  %103 = load i8, ptr @gp_no_fatal_problems, align 1, !tbaa !39, !range !24, !noundef !25
  %tobool361.not.i = icmp eq i8 %103, 0
  br i1 %tobool361.not.i, label %if.else381.i, label %if.then362.i

for.body196.i:                                    ; preds = %if.end355.i, %for.body196.lr.ph.i
  %indvars.iv1296.i = phi i64 [ %102, %for.body196.lr.ph.i ], [ %indvars.iv.next1297.i, %if.end355.i ]
  %arrayidx197.i = getelementptr inbounds ptr, ptr %argv, i64 %indvars.iv1296.i
  %104 = load ptr, ptr %arrayidx197.i, align 8, !tbaa !13
  %call198.i = call i64 @strlen(ptr noundef nonnull dereferenceable(1) %104) #36
  %call.i580.i = call noundef ptr @strrchr(ptr noundef nonnull dereferenceable(1) %104, i32 noundef 47) #36
  %cmp.i581.i = icmp eq ptr %call.i580.i, null
  %incdec.ptr.i582.i = getelementptr inbounds i8, ptr %call.i580.i, i64 1
  %mybasename.0.i583.i = select i1 %cmp.i581.i, ptr %104, ptr %incdec.ptr.i582.i
  %sub204.i = add i64 %call198.i, -1
  %arrayidx205.i = getelementptr inbounds i8, ptr %104, i64 %sub204.i
  %105 = load i8, ptr %arrayidx205.i, align 1, !tbaa !38
  %cmp207.i = icmp eq i8 %105, 107
  br i1 %cmp207.i, label %if.else221.i, label %land.lhs.true208.i

land.lhs.true208.i:                               ; preds = %for.body196.i
  %sub211.i = add i64 %call198.i, -2
  %arrayidx212.i = getelementptr inbounds i8, ptr %104, i64 %sub211.i
  %106 = load i8, ptr %arrayidx212.i, align 1, !tbaa !38
  %cmp214.i = icmp eq i8 %106, 46
  br i1 %cmp214.i, label %if.then215.i, label %if.else221.i

if.then215.i:                                     ; preds = %land.lhs.true208.i
  %call216.i = call noundef ptr @_ZN2kc10NoFileLineEv()
  %107 = load ptr, ptr %arrayidx197.i, align 8, !tbaa !13
  %call219.i = call noundef ptr @_ZN2kc9Problem2SEPKcS1_(ptr noundef nonnull @.str.72, ptr noundef %107)
  %call220.i = call noundef ptr @_ZN2kc8NonFatalEPNS_13impl_filelineEPNS_12impl_problemE(ptr noundef %call216.i, ptr noundef %call219.i)
  call void @_ZN2kc8v_reportEPNS_10impl_errorE(ptr noundef %call220.i)
  br label %if.end355.i

if.else221.i:                                     ; preds = %land.lhs.true208.i, %for.body196.i
  call void @llvm.lifetime.start.p0(i64 32, ptr nonnull %ref.tmp222.i) #33
  call void @llvm.experimental.noalias.scope.decl(metadata !74)
  %108 = load ptr, ptr getelementptr inbounds (%struct.cmdline_options, ptr @g_options, i64 0, i32 22), align 8, !tbaa !5, !noalias !74
  %109 = load i64, ptr getelementptr inbounds (%struct.cmdline_options, ptr @g_options, i64 0, i32 22, i32 1), align 8, !tbaa !12, !noalias !74
  store ptr %90, ptr %ref.tmp222.i, align 8, !tbaa !45, !alias.scope !77
  store i64 0, ptr %_M_string_length.i.i.i.i.i.i, align 8, !tbaa !12, !alias.scope !77
  store i8 0, ptr %90, align 8, !tbaa !38, !alias.scope !77
  %add.i.i585.i = add i64 %109, 3
  invoke void @_ZNSt7__cxx1112basic_stringIcSt11char_traitsIcESaIcEE7reserveEm(ptr noundef nonnull align 8 dereferenceable(32) %ref.tmp222.i, i64 noundef %add.i.i585.i)
          to label %invoke.cont.i.i.i unwind label %lpad.i.i.loopexit.i

invoke.cont.i.i.i:                                ; preds = %if.else221.i
  %110 = load i64, ptr %_M_string_length.i.i.i.i.i.i, align 8, !tbaa !12, !alias.scope !77
  %sub3.i.i.i.i.i = sub i64 4611686018427387903, %110
  %cmp.i.i.i.i586.i = icmp ult i64 %sub3.i.i.i.i.i, %109
  br i1 %cmp.i.i.i.i586.i, label %if.then.i.i13.invoke.i.i.i, label %_ZNKSt7__cxx1112basic_stringIcSt11char_traitsIcESaIcEE15_M_check_lengthEmmPKc.exit.i.i.i.i

_ZNKSt7__cxx1112basic_stringIcSt11char_traitsIcESaIcEE15_M_check_lengthEmmPKc.exit.i.i.i.i: ; preds = %invoke.cont.i.i.i
  %call.i8.i.i.i = invoke noundef nonnull align 8 dereferenceable(32) ptr @_ZNSt7__cxx1112basic_stringIcSt11char_traitsIcESaIcEE9_M_appendEPKcm(ptr noundef nonnull align 8 dereferenceable(32) %ref.tmp222.i, ptr noundef %108, i64 noundef %109)
          to label %invoke.cont1.i.i.i unwind label %lpad.i.i.loopexit.i

invoke.cont1.i.i.i:                               ; preds = %_ZNKSt7__cxx1112basic_stringIcSt11char_traitsIcESaIcEE15_M_check_lengthEmmPKc.exit.i.i.i.i
  %111 = load i64, ptr %_M_string_length.i.i.i.i.i.i, align 8, !tbaa !12, !alias.scope !77
  %112 = add i64 %111, -4611686018427387901
  %cmp.i.i11.i.i.i = icmp ult i64 %112, 3
  br i1 %cmp.i.i11.i.i.i, label %if.then.i.i13.invoke.i.i.i, label %_ZNKSt7__cxx1112basic_stringIcSt11char_traitsIcESaIcEE15_M_check_lengthEmmPKc.exit.i12.i.i.i

if.then.i.i13.invoke.i.i.i:                       ; preds = %invoke.cont1.i.i.i, %invoke.cont.i.i.i
  invoke void @_ZSt20__throw_length_errorPKc(ptr noundef nonnull @.str.126) #34
          to label %if.then.i.i13.cont.i.i.i unwind label %lpad.i.i.loopexit.split-lp.i

if.then.i.i13.cont.i.i.i:                         ; preds = %if.then.i.i13.invoke.i.i.i
  unreachable

_ZNKSt7__cxx1112basic_stringIcSt11char_traitsIcESaIcEE15_M_check_lengthEmmPKc.exit.i12.i.i.i: ; preds = %invoke.cont1.i.i.i
  %call.i15.i.i.i = invoke noundef nonnull align 8 dereferenceable(32) ptr @_ZNSt7__cxx1112basic_stringIcSt11char_traitsIcESaIcEE9_M_appendEPKcm(ptr noundef nonnull align 8 dereferenceable(32) %ref.tmp222.i, ptr noundef nonnull @.str.73, i64 noundef 3)
          to label %_ZStplIcSt11char_traitsIcESaIcEENSt7__cxx1112basic_stringIT_T0_T1_EERKS8_PKS5_.exit.i unwind label %lpad.i.i.loopexit.i

lpad.i.i.loopexit.i:                              ; preds = %_ZNKSt7__cxx1112basic_stringIcSt11char_traitsIcESaIcEE15_M_check_lengthEmmPKc.exit.i12.i.i.i, %_ZNKSt7__cxx1112basic_stringIcSt11char_traitsIcESaIcEE15_M_check_lengthEmmPKc.exit.i.i.i.i, %if.else221.i
  %lpad.loopexit.i = landingpad { ptr, i32 }
          cleanup
  br label %lpad.i.i.i

lpad.i.i.loopexit.split-lp.i:                     ; preds = %if.then.i.i13.invoke.i.i.i
  %lpad.loopexit.split-lp.i = landingpad { ptr, i32 }
          cleanup
  br label %lpad.i.i.i

lpad.i.i.i:                                       ; preds = %lpad.i.i.loopexit.split-lp.i, %lpad.i.i.loopexit.i
  %lpad.phi.i = phi { ptr, i32 } [ %lpad.loopexit.i, %lpad.i.i.loopexit.i ], [ %lpad.loopexit.split-lp.i, %lpad.i.i.loopexit.split-lp.i ]
  %113 = load ptr, ptr %ref.tmp222.i, align 8, !tbaa !5, !alias.scope !77
  %cmp.i.i.i.i.i.i = icmp eq ptr %113, %90
  br i1 %cmp.i.i.i.i.i.i, label %_ZNKSt7__cxx1112basic_stringIcSt11char_traitsIcESaIcEE11_M_is_localEv.exit.thread.i.i.i.i.i, label %if.then.i.i17.i.i.i

_ZNKSt7__cxx1112basic_stringIcSt11char_traitsIcESaIcEE11_M_is_localEv.exit.thread.i.i.i.i.i: ; preds = %lpad.i.i.i
  %114 = load i64, ptr %_M_string_length.i.i.i.i.i.i, align 8, !tbaa !12, !alias.scope !77
  %cmp3.i.i.i.i.i.i = icmp ult i64 %114, 16
  call void @llvm.assume(i1 %cmp3.i.i.i.i.i.i)
  br label %common.resume

if.then.i.i17.i.i.i:                              ; preds = %lpad.i.i.i
  call void @_ZdlPv(ptr noundef %113) #31
  br label %common.resume

common.resume:                                    ; preds = %lpad.i, %_ZNSt7__cxx1112basic_stringIcSt11char_traitsIcESaIcEED2Ev.exit1007, %_ZNSt7__cxx1112basic_stringIcSt11char_traitsIcESaIcEED2Ev.exit1021, %_ZNSt7__cxx1112basic_stringIcSt11char_traitsIcESaIcEED2Ev.exit1035, %_ZNSt7__cxx1112basic_stringIcSt11char_traitsIcESaIcEED2Ev.exit1243, %_ZNSt7__cxx1112basic_stringIcSt11char_traitsIcESaIcEED2Ev.exit1250, %_ZNSt7__cxx1112basic_stringIcSt11char_traitsIcESaIcEED2Ev.exit1257, %_ZNSt7__cxx1112basic_stringIcSt11char_traitsIcESaIcEED2Ev.exit1271, %_ZNSt7__cxx1112basic_stringIcSt11char_traitsIcESaIcEED2Ev.exit1285, %_ZNSt7__cxx1112basic_stringIcSt11char_traitsIcESaIcEED2Ev.exit1360, %_ZNSt7__cxx1112basic_stringIcSt11char_traitsIcESaIcEED2Ev.exit1367, %_ZNSt7__cxx1112basic_stringIcSt11char_traitsIcESaIcEED2Ev.exit1416, %_ZNSt7__cxx1112basic_stringIcSt11char_traitsIcESaIcEED2Ev.exit1430, %_ZNSt7__cxx1112basic_stringIcSt11char_traitsIcESaIcEED2Ev.exit1444, %_ZNSt7__cxx1112basic_stringIcSt11char_traitsIcESaIcEED2Ev.exit1525, %_ZNSt7__cxx1112basic_stringIcSt11char_traitsIcESaIcEED2Ev.exit1532, %_ZNSt7__cxx1112basic_stringIcSt11char_traitsIcESaIcEED2Ev.exit1581, %_ZNSt7__cxx1112basic_stringIcSt11char_traitsIcESaIcEED2Ev.exit1595, %_ZNSt7__cxx1112basic_stringIcSt11char_traitsIcESaIcEED2Ev.exit1609, %_ZNSt7__cxx1112basic_stringIcSt11char_traitsIcESaIcEED2Ev.exit1688, %_ZNSt7__cxx1112basic_stringIcSt11char_traitsIcESaIcEED2Ev.exit1695, %_ZNSt7__cxx1112basic_stringIcSt11char_traitsIcESaIcEED2Ev.exit1838, %_ZNSt7__cxx1112basic_stringIcSt11char_traitsIcESaIcEED2Ev.exit1852, %_ZNSt7__cxx1112basic_stringIcSt11char_traitsIcESaIcEED2Ev.exit1874, %_ZNSt7__cxx1112basic_stringIcSt11char_traitsIcESaIcEED2Ev.exit1909, %_ZNSt7__cxx1112basic_stringIcSt11char_traitsIcESaIcEED2Ev.exit1923, %_ZNSt7__cxx1112basic_stringIcSt11char_traitsIcESaIcEED2Ev.exit1945, %_ZNSt7__cxx1112basic_stringIcSt11char_traitsIcESaIcEED2Ev.exit1980, %_ZNSt7__cxx1112basic_stringIcSt11char_traitsIcESaIcEED2Ev.exit1994, %_ZNSt7__cxx1112basic_stringIcSt11char_traitsIcESaIcEED2Ev.exit2016, %_ZNKSt7__cxx1112basic_stringIcSt11char_traitsIcESaIcEE11_M_is_localEv.exit.thread.i.i.i.i1134, %if.then.i.i17.i.i1132, %_ZNKSt7__cxx1112basic_stringIcSt11char_traitsIcESaIcEE11_M_is_localEv.exit.thread.i.i.i.i956, %if.then.i.i17.i.i954, %_ZNKSt7__cxx1112basic_stringIcSt11char_traitsIcESaIcEE11_M_is_localEv.exit.thread.i.i.i.i908, %if.then.i.i17.i.i906, %_ZNKSt7__cxx1112basic_stringIcSt11char_traitsIcESaIcEE11_M_is_localEv.exit.thread.i.i.i.i, %if.then.i.i17.i.i, %ehcleanup104.i, %_ZNKSt7__cxx1112basic_stringIcSt11char_traitsIcESaIcEE11_M_is_localEv.exit.thread.i.i.i.i.i, %if.then.i.i17.i.i.i, %_ZNKSt7__cxx1112basic_stringIcSt11char_traitsIcESaIcEE11_M_is_localEv.exit.thread.i.i.i.i694.i, %if.then.i.i17.i.i692.i, %_ZNSt7__cxx1112basic_stringIcSt11char_traitsIcESaIcEED2Ev.exit898.i, %ehcleanup339.i
  %common.resume.op = phi { ptr, i32 } [ %lpad.phi.i, %if.then.i.i17.i.i.i ], [ %lpad.phi.i, %_ZNKSt7__cxx1112basic_stringIcSt11char_traitsIcESaIcEE11_M_is_localEv.exit.thread.i.i.i.i.i ], [ %lpad.phi991.i, %if.then.i.i17.i.i692.i ], [ %lpad.phi991.i, %_ZNKSt7__cxx1112basic_stringIcSt11char_traitsIcESaIcEE11_M_is_localEv.exit.thread.i.i.i.i694.i ], [ %.pn439.pn.pn.i, %ehcleanup104.i ], [ %.pn434.i, %ehcleanup339.i ], [ %.pn.pn.i, %_ZNSt7__cxx1112basic_stringIcSt11char_traitsIcESaIcEED2Ev.exit898.i ], [ %386, %if.then.i.i17.i.i ], [ %386, %_ZNKSt7__cxx1112basic_stringIcSt11char_traitsIcESaIcEE11_M_is_localEv.exit.thread.i.i.i.i ], [ %397, %if.then.i.i17.i.i906 ], [ %397, %_ZNKSt7__cxx1112basic_stringIcSt11char_traitsIcESaIcEE11_M_is_localEv.exit.thread.i.i.i.i908 ], [ %419, %if.then.i.i17.i.i954 ], [ %419, %_ZNKSt7__cxx1112basic_stringIcSt11char_traitsIcESaIcEE11_M_is_localEv.exit.thread.i.i.i.i956 ], [ %503, %if.then.i.i17.i.i1132 ], [ %503, %_ZNKSt7__cxx1112basic_stringIcSt11char_traitsIcESaIcEE11_M_is_localEv.exit.thread.i.i.i.i1134 ], [ %914, %_ZNSt7__cxx1112basic_stringIcSt11char_traitsIcESaIcEED2Ev.exit2016 ], [ %.pn823, %_ZNSt7__cxx1112basic_stringIcSt11char_traitsIcESaIcEED2Ev.exit1994 ], [ %897, %_ZNSt7__cxx1112basic_stringIcSt11char_traitsIcESaIcEED2Ev.exit1980 ], [ %880, %_ZNSt7__cxx1112basic_stringIcSt11char_traitsIcESaIcEED2Ev.exit1945 ], [ %.pn821, %_ZNSt7__cxx1112basic_stringIcSt11char_traitsIcESaIcEED2Ev.exit1923 ], [ %862, %_ZNSt7__cxx1112basic_stringIcSt11char_traitsIcESaIcEED2Ev.exit1909 ], [ %846, %_ZNSt7__cxx1112basic_stringIcSt11char_traitsIcESaIcEED2Ev.exit1874 ], [ %.pn819, %_ZNSt7__cxx1112basic_stringIcSt11char_traitsIcESaIcEED2Ev.exit1852 ], [ %829, %_ZNSt7__cxx1112basic_stringIcSt11char_traitsIcESaIcEED2Ev.exit1838 ], [ %765, %_ZNSt7__cxx1112basic_stringIcSt11char_traitsIcESaIcEED2Ev.exit1695 ], [ %.pn817, %_ZNSt7__cxx1112basic_stringIcSt11char_traitsIcESaIcEED2Ev.exit1688 ], [ %.pn815, %_ZNSt7__cxx1112basic_stringIcSt11char_traitsIcESaIcEED2Ev.exit1609 ], [ %.pn813, %_ZNSt7__cxx1112basic_stringIcSt11char_traitsIcESaIcEED2Ev.exit1595 ], [ %709, %_ZNSt7__cxx1112basic_stringIcSt11char_traitsIcESaIcEED2Ev.exit1581 ], [ %686, %_ZNSt7__cxx1112basic_stringIcSt11char_traitsIcESaIcEED2Ev.exit1532 ], [ %.pn811, %_ZNSt7__cxx1112basic_stringIcSt11char_traitsIcESaIcEED2Ev.exit1525 ], [ %.pn809, %_ZNSt7__cxx1112basic_stringIcSt11char_traitsIcESaIcEED2Ev.exit1444 ], [ %.pn807, %_ZNSt7__cxx1112basic_stringIcSt11char_traitsIcESaIcEED2Ev.exit1430 ], [ %628, %_ZNSt7__cxx1112basic_stringIcSt11char_traitsIcESaIcEED2Ev.exit1416 ], [ %605, %_ZNSt7__cxx1112basic_stringIcSt11char_traitsIcESaIcEED2Ev.exit1367 ], [ %.pn805, %_ZNSt7__cxx1112basic_stringIcSt11char_traitsIcESaIcEED2Ev.exit1360 ], [ %.pn803, %_ZNSt7__cxx1112basic_stringIcSt11char_traitsIcESaIcEED2Ev.exit1285 ], [ %.pn801, %_ZNSt7__cxx1112basic_stringIcSt11char_traitsIcESaIcEED2Ev.exit1271 ], [ %551, %_ZNSt7__cxx1112basic_stringIcSt11char_traitsIcESaIcEED2Ev.exit1257 ], [ %547, %_ZNSt7__cxx1112basic_stringIcSt11char_traitsIcESaIcEED2Ev.exit1250 ], [ %.pn799, %_ZNSt7__cxx1112basic_stringIcSt11char_traitsIcESaIcEED2Ev.exit1243 ], [ %.pn797, %_ZNSt7__cxx1112basic_stringIcSt11char_traitsIcESaIcEED2Ev.exit1035 ], [ %.pn, %_ZNSt7__cxx1112basic_stringIcSt11char_traitsIcESaIcEED2Ev.exit1021 ], [ %435, %_ZNSt7__cxx1112basic_stringIcSt11char_traitsIcESaIcEED2Ev.exit1007 ], [ %277, %lpad.i ]
  resume { ptr, i32 } %common.resume.op

_ZStplIcSt11char_traitsIcESaIcEENSt7__cxx1112basic_stringIT_T0_T1_EERKS8_PKS5_.exit.i: ; preds = %_ZNKSt7__cxx1112basic_stringIcSt11char_traitsIcESaIcEE15_M_check_lengthEmmPKc.exit.i12.i.i.i
  %115 = load ptr, ptr %ref.tmp222.i, align 8, !tbaa !5
  %call224.i = call i32 @strcmp(ptr noundef nonnull dereferenceable(1) %mybasename.0.i583.i, ptr noundef nonnull dereferenceable(1) %115) #36
  %cmp225.not.i = icmp eq i32 %call224.i, 0
  br i1 %cmp225.not.i, label %cleanup.done284.i, label %lor.lhs.false226.i

lor.lhs.false226.i:                               ; preds = %_ZStplIcSt11char_traitsIcESaIcEENSt7__cxx1112basic_stringIT_T0_T1_EERKS8_PKS5_.exit.i
  call void @llvm.lifetime.start.p0(i64 32, ptr nonnull %ref.tmp227.i) #33
  call void @llvm.experimental.noalias.scope.decl(metadata !80)
  %116 = load ptr, ptr getelementptr inbounds (%struct.cmdline_options, ptr @g_options, i64 0, i32 22), align 8, !tbaa !5, !noalias !80
  %117 = load i64, ptr getelementptr inbounds (%struct.cmdline_options, ptr @g_options, i64 0, i32 22, i32 1), align 8, !tbaa !12, !noalias !80
  store ptr %91, ptr %ref.tmp227.i, align 8, !tbaa !45, !alias.scope !83
  store i64 0, ptr %_M_string_length.i.i.i.i.i589.i, align 8, !tbaa !12, !alias.scope !83
  store i8 0, ptr %91, align 8, !tbaa !38, !alias.scope !83
  %add.i.i590.i = add i64 %117, 4
  invoke void @_ZNSt7__cxx1112basic_stringIcSt11char_traitsIcESaIcEE7reserveEm(ptr noundef nonnull align 8 dereferenceable(32) %ref.tmp227.i, i64 noundef %add.i.i590.i)
          to label %invoke.cont.i.i597.i unwind label %lpad.i.i591.loopexit.i

invoke.cont.i.i597.i:                             ; preds = %lor.lhs.false226.i
  %118 = load i64, ptr %_M_string_length.i.i.i.i.i589.i, align 8, !tbaa !12, !alias.scope !83
  %sub3.i.i.i.i598.i = sub i64 4611686018427387903, %118
  %cmp.i.i.i.i599.i = icmp ult i64 %sub3.i.i.i.i598.i, %117
  br i1 %cmp.i.i.i.i599.i, label %if.then.i.i13.invoke.i.i608.i, label %_ZNKSt7__cxx1112basic_stringIcSt11char_traitsIcESaIcEE15_M_check_lengthEmmPKc.exit.i.i.i600.i

_ZNKSt7__cxx1112basic_stringIcSt11char_traitsIcESaIcEE15_M_check_lengthEmmPKc.exit.i.i.i600.i: ; preds = %invoke.cont.i.i597.i
  %call.i8.i.i601.i = invoke noundef nonnull align 8 dereferenceable(32) ptr @_ZNSt7__cxx1112basic_stringIcSt11char_traitsIcESaIcEE9_M_appendEPKcm(ptr noundef nonnull align 8 dereferenceable(32) %ref.tmp227.i, ptr noundef %116, i64 noundef %117)
          to label %invoke.cont1.i.i602.i unwind label %lpad.i.i591.loopexit.i

invoke.cont1.i.i602.i:                            ; preds = %_ZNKSt7__cxx1112basic_stringIcSt11char_traitsIcESaIcEE15_M_check_lengthEmmPKc.exit.i.i.i600.i
  %119 = load i64, ptr %_M_string_length.i.i.i.i.i589.i, align 8, !tbaa !12, !alias.scope !83
  %120 = and i64 %119, -4
  %cmp.i.i11.i.i604.i = icmp eq i64 %120, 4611686018427387900
  br i1 %cmp.i.i11.i.i604.i, label %if.then.i.i13.invoke.i.i608.i, label %_ZNKSt7__cxx1112basic_stringIcSt11char_traitsIcESaIcEE15_M_check_lengthEmmPKc.exit.i12.i.i605.i

if.then.i.i13.invoke.i.i608.i:                    ; preds = %invoke.cont1.i.i602.i, %invoke.cont.i.i597.i
  invoke void @_ZSt20__throw_length_errorPKc(ptr noundef nonnull @.str.126) #34
          to label %if.then.i.i13.cont.i.i609.i unwind label %lpad.i.i591.loopexit.split-lp.i

if.then.i.i13.cont.i.i609.i:                      ; preds = %if.then.i.i13.invoke.i.i608.i
  unreachable

_ZNKSt7__cxx1112basic_stringIcSt11char_traitsIcESaIcEE15_M_check_lengthEmmPKc.exit.i12.i.i605.i: ; preds = %invoke.cont1.i.i602.i
  %call.i15.i.i606.i = invoke noundef nonnull align 8 dereferenceable(32) ptr @_ZNSt7__cxx1112basic_stringIcSt11char_traitsIcESaIcEE9_M_appendEPKcm(ptr noundef nonnull align 8 dereferenceable(32) %ref.tmp227.i, ptr noundef nonnull @.str.74, i64 noundef 4)
          to label %invoke.cont229.i unwind label %lpad.i.i591.loopexit.i

lpad.i.i591.loopexit.i:                           ; preds = %_ZNKSt7__cxx1112basic_stringIcSt11char_traitsIcESaIcEE15_M_check_lengthEmmPKc.exit.i12.i.i605.i, %_ZNKSt7__cxx1112basic_stringIcSt11char_traitsIcESaIcEE15_M_check_lengthEmmPKc.exit.i.i.i600.i, %lor.lhs.false226.i
  %lpad.loopexit980.i = landingpad { ptr, i32 }
          cleanup
  br label %lpad.i.i591.i

lpad.i.i591.loopexit.split-lp.i:                  ; preds = %if.then.i.i13.invoke.i.i608.i
  %lpad.loopexit.split-lp981.i = landingpad { ptr, i32 }
          cleanup
  br label %lpad.i.i591.i

lpad.i.i591.i:                                    ; preds = %lpad.i.i591.loopexit.split-lp.i, %lpad.i.i591.loopexit.i
  %lpad.phi982.i = phi { ptr, i32 } [ %lpad.loopexit980.i, %lpad.i.i591.loopexit.i ], [ %lpad.loopexit.split-lp981.i, %lpad.i.i591.loopexit.split-lp.i ]
  %121 = load ptr, ptr %ref.tmp227.i, align 8, !tbaa !5, !alias.scope !83
  %cmp.i.i.i.i.i592.i = icmp eq ptr %121, %91
  br i1 %cmp.i.i.i.i.i592.i, label %_ZNKSt7__cxx1112basic_stringIcSt11char_traitsIcESaIcEE11_M_is_localEv.exit.thread.i.i.i.i595.i, label %if.then.i.i17.i.i593.i

_ZNKSt7__cxx1112basic_stringIcSt11char_traitsIcESaIcEE11_M_is_localEv.exit.thread.i.i.i.i595.i: ; preds = %lpad.i.i591.i
  %122 = load i64, ptr %_M_string_length.i.i.i.i.i589.i, align 8, !tbaa !12, !alias.scope !83
  %cmp3.i.i.i.i.i596.i = icmp ult i64 %122, 16
  call void @llvm.assume(i1 %cmp3.i.i.i.i.i596.i)
  br label %cleanup.action287.i

if.then.i.i17.i.i593.i:                           ; preds = %lpad.i.i591.i
  call void @_ZdlPv(ptr noundef %121) #31
  br label %cleanup.action287.i

invoke.cont229.i:                                 ; preds = %_ZNKSt7__cxx1112basic_stringIcSt11char_traitsIcESaIcEE15_M_check_lengthEmmPKc.exit.i12.i.i605.i
  %123 = load ptr, ptr %ref.tmp227.i, align 8, !tbaa !5
  %call232.i = call i32 @strcmp(ptr noundef nonnull dereferenceable(1) %mybasename.0.i583.i, ptr noundef nonnull dereferenceable(1) %123) #36
  %cmp233.i = icmp eq i32 %call232.i, 0
  br i1 %cmp233.i, label %cleanup.action276.i, label %lor.lhs.false234.i

lor.lhs.false234.i:                               ; preds = %invoke.cont229.i
  call void @llvm.lifetime.start.p0(i64 32, ptr nonnull %ref.tmp235.i) #33
  call void @llvm.experimental.noalias.scope.decl(metadata !86)
  %124 = load ptr, ptr getelementptr inbounds (%struct.cmdline_options, ptr @g_options, i64 0, i32 22), align 8, !tbaa !5, !noalias !86
  %125 = load i64, ptr getelementptr inbounds (%struct.cmdline_options, ptr @g_options, i64 0, i32 22, i32 1), align 8, !tbaa !12, !noalias !86
  store ptr %92, ptr %ref.tmp235.i, align 8, !tbaa !45, !alias.scope !89
  store i64 0, ptr %_M_string_length.i.i.i.i.i612.i, align 8, !tbaa !12, !alias.scope !89
  store i8 0, ptr %92, align 8, !tbaa !38, !alias.scope !89
  %add.i.i613.i = add i64 %125, 6
  invoke void @_ZNSt7__cxx1112basic_stringIcSt11char_traitsIcESaIcEE7reserveEm(ptr noundef nonnull align 8 dereferenceable(32) %ref.tmp235.i, i64 noundef %add.i.i613.i)
          to label %invoke.cont.i.i620.i unwind label %lpad.i.i614.loopexit.i

invoke.cont.i.i620.i:                             ; preds = %lor.lhs.false234.i
  %126 = load i64, ptr %_M_string_length.i.i.i.i.i612.i, align 8, !tbaa !12, !alias.scope !89
  %sub3.i.i.i.i621.i = sub i64 4611686018427387903, %126
  %cmp.i.i.i.i622.i = icmp ult i64 %sub3.i.i.i.i621.i, %125
  br i1 %cmp.i.i.i.i622.i, label %if.then.i.i13.invoke.i.i631.i, label %_ZNKSt7__cxx1112basic_stringIcSt11char_traitsIcESaIcEE15_M_check_lengthEmmPKc.exit.i.i.i623.i

_ZNKSt7__cxx1112basic_stringIcSt11char_traitsIcESaIcEE15_M_check_lengthEmmPKc.exit.i.i.i623.i: ; preds = %invoke.cont.i.i620.i
  %call.i8.i.i624.i = invoke noundef nonnull align 8 dereferenceable(32) ptr @_ZNSt7__cxx1112basic_stringIcSt11char_traitsIcESaIcEE9_M_appendEPKcm(ptr noundef nonnull align 8 dereferenceable(32) %ref.tmp235.i, ptr noundef %124, i64 noundef %125)
          to label %invoke.cont1.i.i625.i unwind label %lpad.i.i614.loopexit.i

invoke.cont1.i.i625.i:                            ; preds = %_ZNKSt7__cxx1112basic_stringIcSt11char_traitsIcESaIcEE15_M_check_lengthEmmPKc.exit.i.i.i623.i
  %127 = load i64, ptr %_M_string_length.i.i.i.i.i612.i, align 8, !tbaa !12, !alias.scope !89
  %128 = add i64 %127, -4611686018427387898
  %cmp.i.i11.i.i627.i = icmp ult i64 %128, 6
  br i1 %cmp.i.i11.i.i627.i, label %if.then.i.i13.invoke.i.i631.i, label %_ZNKSt7__cxx1112basic_stringIcSt11char_traitsIcESaIcEE15_M_check_lengthEmmPKc.exit.i12.i.i628.i

if.then.i.i13.invoke.i.i631.i:                    ; preds = %invoke.cont1.i.i625.i, %invoke.cont.i.i620.i
  invoke void @_ZSt20__throw_length_errorPKc(ptr noundef nonnull @.str.126) #34
          to label %if.then.i.i13.cont.i.i632.i unwind label %lpad.i.i614.loopexit.split-lp.i

if.then.i.i13.cont.i.i632.i:                      ; preds = %if.then.i.i13.invoke.i.i631.i
  unreachable

_ZNKSt7__cxx1112basic_stringIcSt11char_traitsIcESaIcEE15_M_check_lengthEmmPKc.exit.i12.i.i628.i: ; preds = %invoke.cont1.i.i625.i
  %call.i15.i.i629.i = invoke noundef nonnull align 8 dereferenceable(32) ptr @_ZNSt7__cxx1112basic_stringIcSt11char_traitsIcESaIcEE9_M_appendEPKcm(ptr noundef nonnull align 8 dereferenceable(32) %ref.tmp235.i, ptr noundef nonnull @.str.75, i64 noundef 6)
          to label %invoke.cont238.i unwind label %lpad.i.i614.loopexit.i

lpad.i.i614.loopexit.i:                           ; preds = %_ZNKSt7__cxx1112basic_stringIcSt11char_traitsIcESaIcEE15_M_check_lengthEmmPKc.exit.i12.i.i628.i, %_ZNKSt7__cxx1112basic_stringIcSt11char_traitsIcESaIcEE15_M_check_lengthEmmPKc.exit.i.i.i623.i, %lor.lhs.false234.i
  %lpad.loopexit983.i = landingpad { ptr, i32 }
          cleanup
  br label %lpad.i.i614.i

lpad.i.i614.loopexit.split-lp.i:                  ; preds = %if.then.i.i13.invoke.i.i631.i
  %lpad.loopexit.split-lp984.i = landingpad { ptr, i32 }
          cleanup
  br label %lpad.i.i614.i

lpad.i.i614.i:                                    ; preds = %lpad.i.i614.loopexit.split-lp.i, %lpad.i.i614.loopexit.i
  %lpad.phi985.i = phi { ptr, i32 } [ %lpad.loopexit983.i, %lpad.i.i614.loopexit.i ], [ %lpad.loopexit.split-lp984.i, %lpad.i.i614.loopexit.split-lp.i ]
  %129 = load ptr, ptr %ref.tmp235.i, align 8, !tbaa !5, !alias.scope !89
  %cmp.i.i.i.i.i615.i = icmp eq ptr %129, %92
  br i1 %cmp.i.i.i.i.i615.i, label %_ZNKSt7__cxx1112basic_stringIcSt11char_traitsIcESaIcEE11_M_is_localEv.exit.thread.i.i.i.i618.i, label %if.then.i.i17.i.i616.i

_ZNKSt7__cxx1112basic_stringIcSt11char_traitsIcESaIcEE11_M_is_localEv.exit.thread.i.i.i.i618.i: ; preds = %lpad.i.i614.i
  %130 = load i64, ptr %_M_string_length.i.i.i.i.i612.i, align 8, !tbaa !12, !alias.scope !89
  %cmp3.i.i.i.i.i619.i = icmp ult i64 %130, 16
  call void @llvm.assume(i1 %cmp3.i.i.i.i.i619.i)
  br label %cleanup.action273.i

if.then.i.i17.i.i616.i:                           ; preds = %lpad.i.i614.i
  call void @_ZdlPv(ptr noundef %129) #31
  br label %cleanup.action273.i

invoke.cont238.i:                                 ; preds = %_ZNKSt7__cxx1112basic_stringIcSt11char_traitsIcESaIcEE15_M_check_lengthEmmPKc.exit.i12.i.i628.i
  %131 = load ptr, ptr %ref.tmp235.i, align 8, !tbaa !5
  %call241.i = call i32 @strcmp(ptr noundef nonnull dereferenceable(1) %mybasename.0.i583.i, ptr noundef nonnull dereferenceable(1) %131) #36
  %cmp242.i = icmp eq i32 %call241.i, 0
  br i1 %cmp242.i, label %cleanup.action262.i, label %lor.lhs.false243.i

lor.lhs.false243.i:                               ; preds = %invoke.cont238.i
  call void @llvm.lifetime.start.p0(i64 32, ptr nonnull %ref.tmp244.i) #33
  call void @llvm.experimental.noalias.scope.decl(metadata !92)
  %132 = load ptr, ptr getelementptr inbounds (%struct.cmdline_options, ptr @g_options, i64 0, i32 22), align 8, !tbaa !5, !noalias !92
  %133 = load i64, ptr getelementptr inbounds (%struct.cmdline_options, ptr @g_options, i64 0, i32 22, i32 1), align 8, !tbaa !12, !noalias !92
  store ptr %93, ptr %ref.tmp244.i, align 8, !tbaa !45, !alias.scope !95
  store i64 0, ptr %_M_string_length.i.i.i.i.i636.i, align 8, !tbaa !12, !alias.scope !95
  store i8 0, ptr %93, align 8, !tbaa !38, !alias.scope !95
  %add.i.i637.i = add i64 %133, 8
  invoke void @_ZNSt7__cxx1112basic_stringIcSt11char_traitsIcESaIcEE7reserveEm(ptr noundef nonnull align 8 dereferenceable(32) %ref.tmp244.i, i64 noundef %add.i.i637.i)
          to label %invoke.cont.i.i644.i unwind label %lpad.i.i638.loopexit.i

invoke.cont.i.i644.i:                             ; preds = %lor.lhs.false243.i
  %134 = load i64, ptr %_M_string_length.i.i.i.i.i636.i, align 8, !tbaa !12, !alias.scope !95
  %sub3.i.i.i.i645.i = sub i64 4611686018427387903, %134
  %cmp.i.i.i.i646.i = icmp ult i64 %sub3.i.i.i.i645.i, %133
  br i1 %cmp.i.i.i.i646.i, label %if.then.i.i13.invoke.i.i655.i, label %_ZNKSt7__cxx1112basic_stringIcSt11char_traitsIcESaIcEE15_M_check_lengthEmmPKc.exit.i.i.i647.i

_ZNKSt7__cxx1112basic_stringIcSt11char_traitsIcESaIcEE15_M_check_lengthEmmPKc.exit.i.i.i647.i: ; preds = %invoke.cont.i.i644.i
  %call.i8.i.i648.i = invoke noundef nonnull align 8 dereferenceable(32) ptr @_ZNSt7__cxx1112basic_stringIcSt11char_traitsIcESaIcEE9_M_appendEPKcm(ptr noundef nonnull align 8 dereferenceable(32) %ref.tmp244.i, ptr noundef %132, i64 noundef %133)
          to label %invoke.cont1.i.i649.i unwind label %lpad.i.i638.loopexit.i

invoke.cont1.i.i649.i:                            ; preds = %_ZNKSt7__cxx1112basic_stringIcSt11char_traitsIcESaIcEE15_M_check_lengthEmmPKc.exit.i.i.i647.i
  %135 = load i64, ptr %_M_string_length.i.i.i.i.i636.i, align 8, !tbaa !12, !alias.scope !95
  %136 = and i64 %135, -8
  %cmp.i.i11.i.i651.i = icmp eq i64 %136, 4611686018427387896
  br i1 %cmp.i.i11.i.i651.i, label %if.then.i.i13.invoke.i.i655.i, label %_ZNKSt7__cxx1112basic_stringIcSt11char_traitsIcESaIcEE15_M_check_lengthEmmPKc.exit.i12.i.i652.i

if.then.i.i13.invoke.i.i655.i:                    ; preds = %invoke.cont1.i.i649.i, %invoke.cont.i.i644.i
  invoke void @_ZSt20__throw_length_errorPKc(ptr noundef nonnull @.str.126) #34
          to label %if.then.i.i13.cont.i.i656.i unwind label %lpad.i.i638.loopexit.split-lp.i

if.then.i.i13.cont.i.i656.i:                      ; preds = %if.then.i.i13.invoke.i.i655.i
  unreachable

_ZNKSt7__cxx1112basic_stringIcSt11char_traitsIcESaIcEE15_M_check_lengthEmmPKc.exit.i12.i.i652.i: ; preds = %invoke.cont1.i.i649.i
  %call.i15.i.i653.i = invoke noundef nonnull align 8 dereferenceable(32) ptr @_ZNSt7__cxx1112basic_stringIcSt11char_traitsIcESaIcEE9_M_appendEPKcm(ptr noundef nonnull align 8 dereferenceable(32) %ref.tmp244.i, ptr noundef nonnull @.str.76, i64 noundef 8)
          to label %invoke.cont247.i unwind label %lpad.i.i638.loopexit.i

lpad.i.i638.loopexit.i:                           ; preds = %_ZNKSt7__cxx1112basic_stringIcSt11char_traitsIcESaIcEE15_M_check_lengthEmmPKc.exit.i12.i.i652.i, %_ZNKSt7__cxx1112basic_stringIcSt11char_traitsIcESaIcEE15_M_check_lengthEmmPKc.exit.i.i.i647.i, %lor.lhs.false243.i
  %lpad.loopexit986.i = landingpad { ptr, i32 }
          cleanup
  br label %lpad.i.i638.i

lpad.i.i638.loopexit.split-lp.i:                  ; preds = %if.then.i.i13.invoke.i.i655.i
  %lpad.loopexit.split-lp987.i = landingpad { ptr, i32 }
          cleanup
  br label %lpad.i.i638.i

lpad.i.i638.i:                                    ; preds = %lpad.i.i638.loopexit.split-lp.i, %lpad.i.i638.loopexit.i
  %lpad.phi988.i = phi { ptr, i32 } [ %lpad.loopexit986.i, %lpad.i.i638.loopexit.i ], [ %lpad.loopexit.split-lp987.i, %lpad.i.i638.loopexit.split-lp.i ]
  %137 = load ptr, ptr %ref.tmp244.i, align 8, !tbaa !5, !alias.scope !95
  %cmp.i.i.i.i.i639.i = icmp eq ptr %137, %93
  br i1 %cmp.i.i.i.i.i639.i, label %_ZNKSt7__cxx1112basic_stringIcSt11char_traitsIcESaIcEE11_M_is_localEv.exit.thread.i.i.i.i642.i, label %if.then.i.i17.i.i640.i

_ZNKSt7__cxx1112basic_stringIcSt11char_traitsIcESaIcEE11_M_is_localEv.exit.thread.i.i.i.i642.i: ; preds = %lpad.i.i638.i
  %138 = load i64, ptr %_M_string_length.i.i.i.i.i636.i, align 8, !tbaa !12, !alias.scope !95
  %cmp3.i.i.i.i.i643.i = icmp ult i64 %138, 16
  call void @llvm.assume(i1 %cmp3.i.i.i.i.i643.i)
  br label %lpad246.body.i

if.then.i.i17.i.i640.i:                           ; preds = %lpad.i.i638.i
  call void @_ZdlPv(ptr noundef %137) #31
  br label %lpad246.body.i

invoke.cont247.i:                                 ; preds = %_ZNKSt7__cxx1112basic_stringIcSt11char_traitsIcESaIcEE15_M_check_lengthEmmPKc.exit.i12.i.i652.i
  %139 = load ptr, ptr %ref.tmp244.i, align 8, !tbaa !5
  %call250.i = call i32 @strcmp(ptr noundef nonnull dereferenceable(1) %mybasename.0.i583.i, ptr noundef nonnull dereferenceable(1) %139) #36
  %cmp251.i = icmp eq i32 %call250.i, 0
  br i1 %cmp251.i, label %cleanup.action.i, label %lor.rhs.i

lor.rhs.i:                                        ; preds = %invoke.cont247.i
  %call252.i = call i32 @strcmp(ptr noundef nonnull dereferenceable(1) %mybasename.0.i583.i, ptr noundef nonnull dereferenceable(8) @.str.77) #36
  %cmp253.i = icmp eq i32 %call252.i, 0
  br label %cleanup.action.i

cleanup.action.i:                                 ; preds = %lor.rhs.i, %invoke.cont247.i
  %140 = phi i1 [ true, %invoke.cont247.i ], [ %cmp253.i, %lor.rhs.i ]
  %cmp.i.i.i659.i = icmp eq ptr %139, %93
  br i1 %cmp.i.i.i659.i, label %_ZNKSt7__cxx1112basic_stringIcSt11char_traitsIcESaIcEE11_M_is_localEv.exit.thread.i.i662.i, label %if.then.i.i660.i

_ZNKSt7__cxx1112basic_stringIcSt11char_traitsIcESaIcEE11_M_is_localEv.exit.thread.i.i662.i: ; preds = %cleanup.action.i
  %141 = load i64, ptr %_M_string_length.i.i.i.i.i636.i, align 8, !tbaa !12
  %cmp3.i.i.i664.i = icmp ult i64 %141, 16
  call void @llvm.assume(i1 %cmp3.i.i.i664.i)
  br label %cleanup.done256.thread.i

if.then.i.i660.i:                                 ; preds = %cleanup.action.i
  call void @_ZdlPv(ptr noundef %139) #31
  br label %cleanup.done256.thread.i

cleanup.done256.thread.i:                         ; preds = %if.then.i.i660.i, %_ZNKSt7__cxx1112basic_stringIcSt11char_traitsIcESaIcEE11_M_is_localEv.exit.thread.i.i662.i
  call void @llvm.lifetime.end.p0(i64 32, ptr nonnull %ref.tmp244.i) #33
  %.pre1310.i = load ptr, ptr %ref.tmp235.i, align 8, !tbaa !5
  br label %cleanup.action262.i

cleanup.action262.i:                              ; preds = %cleanup.done256.thread.i, %invoke.cont238.i
  %142 = phi ptr [ %.pre1310.i, %cleanup.done256.thread.i ], [ %131, %invoke.cont238.i ]
  %143 = phi i1 [ %140, %cleanup.done256.thread.i ], [ true, %invoke.cont238.i ]
  %cmp.i.i.i666.i = icmp eq ptr %142, %92
  br i1 %cmp.i.i.i666.i, label %_ZNKSt7__cxx1112basic_stringIcSt11char_traitsIcESaIcEE11_M_is_localEv.exit.thread.i.i669.i, label %if.then.i.i667.i

_ZNKSt7__cxx1112basic_stringIcSt11char_traitsIcESaIcEE11_M_is_localEv.exit.thread.i.i669.i: ; preds = %cleanup.action262.i
  %144 = load i64, ptr %_M_string_length.i.i.i.i.i612.i, align 8, !tbaa !12
  %cmp3.i.i.i671.i = icmp ult i64 %144, 16
  call void @llvm.assume(i1 %cmp3.i.i.i671.i)
  br label %cleanup.done270.thread.i

if.then.i.i667.i:                                 ; preds = %cleanup.action262.i
  call void @_ZdlPv(ptr noundef %142) #31
  br label %cleanup.done270.thread.i

cleanup.done270.thread.i:                         ; preds = %if.then.i.i667.i, %_ZNKSt7__cxx1112basic_stringIcSt11char_traitsIcESaIcEE11_M_is_localEv.exit.thread.i.i669.i
  call void @llvm.lifetime.end.p0(i64 32, ptr nonnull %ref.tmp235.i) #33
  %.pre1311.i = load ptr, ptr %ref.tmp227.i, align 8, !tbaa !5
  br label %cleanup.action276.i

cleanup.action276.i:                              ; preds = %cleanup.done270.thread.i, %invoke.cont229.i
  %145 = phi ptr [ %.pre1311.i, %cleanup.done270.thread.i ], [ %123, %invoke.cont229.i ]
  %146 = phi i1 [ %143, %cleanup.done270.thread.i ], [ true, %invoke.cont229.i ]
  %cmp.i.i.i673.i = icmp eq ptr %145, %91
  br i1 %cmp.i.i.i673.i, label %_ZNKSt7__cxx1112basic_stringIcSt11char_traitsIcESaIcEE11_M_is_localEv.exit.thread.i.i676.i, label %if.then.i.i674.i

_ZNKSt7__cxx1112basic_stringIcSt11char_traitsIcESaIcEE11_M_is_localEv.exit.thread.i.i676.i: ; preds = %cleanup.action276.i
  %147 = load i64, ptr %_M_string_length.i.i.i.i.i589.i, align 8, !tbaa !12
  %cmp3.i.i.i678.i = icmp ult i64 %147, 16
  call void @llvm.assume(i1 %cmp3.i.i.i678.i)
  br label %_ZNSt7__cxx1112basic_stringIcSt11char_traitsIcESaIcEED2Ev.exit679.i

if.then.i.i674.i:                                 ; preds = %cleanup.action276.i
  call void @_ZdlPv(ptr noundef %145) #31
  br label %_ZNSt7__cxx1112basic_stringIcSt11char_traitsIcESaIcEED2Ev.exit679.i

_ZNSt7__cxx1112basic_stringIcSt11char_traitsIcESaIcEED2Ev.exit679.i: ; preds = %if.then.i.i674.i, %_ZNKSt7__cxx1112basic_stringIcSt11char_traitsIcESaIcEE11_M_is_localEv.exit.thread.i.i676.i
  call void @llvm.lifetime.end.p0(i64 32, ptr nonnull %ref.tmp227.i) #33
  %.pre1312.i = load ptr, ptr %ref.tmp222.i, align 8, !tbaa !5
  br label %cleanup.done284.i

cleanup.done284.i:                                ; preds = %_ZNSt7__cxx1112basic_stringIcSt11char_traitsIcESaIcEED2Ev.exit679.i, %_ZStplIcSt11char_traitsIcESaIcEENSt7__cxx1112basic_stringIT_T0_T1_EERKS8_PKS5_.exit.i
  %148 = phi ptr [ %.pre1312.i, %_ZNSt7__cxx1112basic_stringIcSt11char_traitsIcESaIcEED2Ev.exit679.i ], [ %115, %_ZStplIcSt11char_traitsIcESaIcEENSt7__cxx1112basic_stringIT_T0_T1_EERKS8_PKS5_.exit.i ]
  %149 = phi i1 [ %146, %_ZNSt7__cxx1112basic_stringIcSt11char_traitsIcESaIcEED2Ev.exit679.i ], [ true, %_ZStplIcSt11char_traitsIcESaIcEENSt7__cxx1112basic_stringIT_T0_T1_EERKS8_PKS5_.exit.i ]
  %cmp.i.i.i680.i = icmp eq ptr %148, %90
  br i1 %cmp.i.i.i680.i, label %_ZNKSt7__cxx1112basic_stringIcSt11char_traitsIcESaIcEE11_M_is_localEv.exit.thread.i.i683.i, label %if.then.i.i681.i

_ZNKSt7__cxx1112basic_stringIcSt11char_traitsIcESaIcEE11_M_is_localEv.exit.thread.i.i683.i: ; preds = %cleanup.done284.i
  %150 = load i64, ptr %_M_string_length.i.i.i.i.i.i, align 8, !tbaa !12
  %cmp3.i.i.i685.i = icmp ult i64 %150, 16
  call void @llvm.assume(i1 %cmp3.i.i.i685.i)
  br label %_ZNSt7__cxx1112basic_stringIcSt11char_traitsIcESaIcEED2Ev.exit686.i

if.then.i.i681.i:                                 ; preds = %cleanup.done284.i
  call void @_ZdlPv(ptr noundef %148) #31
  br label %_ZNSt7__cxx1112basic_stringIcSt11char_traitsIcESaIcEED2Ev.exit686.i

_ZNSt7__cxx1112basic_stringIcSt11char_traitsIcESaIcEED2Ev.exit686.i: ; preds = %if.then.i.i681.i, %_ZNKSt7__cxx1112basic_stringIcSt11char_traitsIcESaIcEE11_M_is_localEv.exit.thread.i.i683.i
  call void @llvm.lifetime.end.p0(i64 32, ptr nonnull %ref.tmp222.i) #33
  br i1 %149, label %if.then291.i, label %if.else340.i

if.then291.i:                                     ; preds = %_ZNSt7__cxx1112basic_stringIcSt11char_traitsIcESaIcEED2Ev.exit686.i
  call void @llvm.lifetime.start.p0(i64 32, ptr nonnull %tmp.i) #33
  call void @llvm.lifetime.start.p0(i64 32, ptr nonnull %ref.tmp292.i) #33
  call void @llvm.lifetime.start.p0(i64 32, ptr nonnull %ref.tmp293.i) #33
  call void @llvm.lifetime.start.p0(i64 32, ptr nonnull %ref.tmp294.i) #33
  call void @llvm.lifetime.start.p0(i64 32, ptr nonnull %ref.tmp295.i) #33
  call void @llvm.lifetime.start.p0(i64 32, ptr nonnull %ref.tmp296.i) #33
  call void @llvm.lifetime.start.p0(i64 32, ptr nonnull %ref.tmp297.i) #33
  call void @llvm.lifetime.start.p0(i64 32, ptr nonnull %ref.tmp298.i) #33
  call void @llvm.experimental.noalias.scope.decl(metadata !98)
  %151 = load ptr, ptr getelementptr inbounds (%struct.cmdline_options, ptr @g_options, i64 0, i32 22), align 8, !tbaa !5, !noalias !98
  %152 = load i64, ptr getelementptr inbounds (%struct.cmdline_options, ptr @g_options, i64 0, i32 22, i32 1), align 8, !tbaa !12, !noalias !98
  store ptr %94, ptr %ref.tmp298.i, align 8, !tbaa !45, !alias.scope !101
  store i64 0, ptr %_M_string_length.i.i.i.i.i688.i, align 8, !tbaa !12, !alias.scope !101
  store i8 0, ptr %94, align 8, !tbaa !38, !alias.scope !101
  %add.i.i689.i = add i64 %152, 27
  invoke void @_ZNSt7__cxx1112basic_stringIcSt11char_traitsIcESaIcEE7reserveEm(ptr noundef nonnull align 8 dereferenceable(32) %ref.tmp298.i, i64 noundef %add.i.i689.i)
          to label %invoke.cont.i.i696.i unwind label %lpad.i.i690.loopexit.i

invoke.cont.i.i696.i:                             ; preds = %if.then291.i
  %153 = load i64, ptr %_M_string_length.i.i.i.i.i688.i, align 8, !tbaa !12, !alias.scope !101
  %154 = add i64 %153, -4611686018427387877
  %cmp.i.i.i.i698.i = icmp ult i64 %154, 27
  br i1 %cmp.i.i.i.i698.i, label %if.then.i.i13.invoke.i.i707.i, label %_ZNKSt7__cxx1112basic_stringIcSt11char_traitsIcESaIcEE15_M_check_lengthEmmPKc.exit.i.i.i699.i

_ZNKSt7__cxx1112basic_stringIcSt11char_traitsIcESaIcEE15_M_check_lengthEmmPKc.exit.i.i.i699.i: ; preds = %invoke.cont.i.i696.i
  %call.i8.i.i700.i = invoke noundef nonnull align 8 dereferenceable(32) ptr @_ZNSt7__cxx1112basic_stringIcSt11char_traitsIcESaIcEE9_M_appendEPKcm(ptr noundef nonnull align 8 dereferenceable(32) %ref.tmp298.i, ptr noundef nonnull @.str.78, i64 noundef 27)
          to label %invoke.cont1.i.i701.i unwind label %lpad.i.i690.loopexit.i

invoke.cont1.i.i701.i:                            ; preds = %_ZNKSt7__cxx1112basic_stringIcSt11char_traitsIcESaIcEE15_M_check_lengthEmmPKc.exit.i.i.i699.i
  %155 = load i64, ptr %_M_string_length.i.i.i.i.i688.i, align 8, !tbaa !12, !alias.scope !101
  %sub3.i.i10.i.i702.i = sub i64 4611686018427387903, %155
  %cmp.i.i11.i.i703.i = icmp ult i64 %sub3.i.i10.i.i702.i, %152
  br i1 %cmp.i.i11.i.i703.i, label %if.then.i.i13.invoke.i.i707.i, label %_ZNKSt7__cxx1112basic_stringIcSt11char_traitsIcESaIcEE15_M_check_lengthEmmPKc.exit.i12.i.i704.i

if.then.i.i13.invoke.i.i707.i:                    ; preds = %invoke.cont1.i.i701.i, %invoke.cont.i.i696.i
  invoke void @_ZSt20__throw_length_errorPKc(ptr noundef nonnull @.str.126) #34
          to label %if.then.i.i13.cont.i.i708.i unwind label %lpad.i.i690.loopexit.split-lp.i

if.then.i.i13.cont.i.i708.i:                      ; preds = %if.then.i.i13.invoke.i.i707.i
  unreachable

_ZNKSt7__cxx1112basic_stringIcSt11char_traitsIcESaIcEE15_M_check_lengthEmmPKc.exit.i12.i.i704.i: ; preds = %invoke.cont1.i.i701.i
  %call.i15.i.i705.i = invoke noundef nonnull align 8 dereferenceable(32) ptr @_ZNSt7__cxx1112basic_stringIcSt11char_traitsIcESaIcEE9_M_appendEPKcm(ptr noundef nonnull align 8 dereferenceable(32) %ref.tmp298.i, ptr noundef %151, i64 noundef %152)
          to label %_ZStplIcSt11char_traitsIcESaIcEENSt7__cxx1112basic_stringIT_T0_T1_EEPKS5_RKS8_.exit.i unwind label %lpad.i.i690.loopexit.i

lpad.i.i690.loopexit.i:                           ; preds = %_ZNKSt7__cxx1112basic_stringIcSt11char_traitsIcESaIcEE15_M_check_lengthEmmPKc.exit.i12.i.i704.i, %_ZNKSt7__cxx1112basic_stringIcSt11char_traitsIcESaIcEE15_M_check_lengthEmmPKc.exit.i.i.i699.i, %if.then291.i
  %lpad.loopexit989.i = landingpad { ptr, i32 }
          cleanup
  br label %lpad.i.i690.i

lpad.i.i690.loopexit.split-lp.i:                  ; preds = %if.then.i.i13.invoke.i.i707.i
  %lpad.loopexit.split-lp990.i = landingpad { ptr, i32 }
          cleanup
  br label %lpad.i.i690.i

lpad.i.i690.i:                                    ; preds = %lpad.i.i690.loopexit.split-lp.i, %lpad.i.i690.loopexit.i
  %lpad.phi991.i = phi { ptr, i32 } [ %lpad.loopexit989.i, %lpad.i.i690.loopexit.i ], [ %lpad.loopexit.split-lp990.i, %lpad.i.i690.loopexit.split-lp.i ]
  %156 = load ptr, ptr %ref.tmp298.i, align 8, !tbaa !5, !alias.scope !101
  %cmp.i.i.i.i.i691.i = icmp eq ptr %156, %94
  br i1 %cmp.i.i.i.i.i691.i, label %_ZNKSt7__cxx1112basic_stringIcSt11char_traitsIcESaIcEE11_M_is_localEv.exit.thread.i.i.i.i694.i, label %if.then.i.i17.i.i692.i

_ZNKSt7__cxx1112basic_stringIcSt11char_traitsIcESaIcEE11_M_is_localEv.exit.thread.i.i.i.i694.i: ; preds = %lpad.i.i690.i
  %157 = load i64, ptr %_M_string_length.i.i.i.i.i688.i, align 8, !tbaa !12, !alias.scope !101
  %cmp3.i.i.i.i.i695.i = icmp ult i64 %157, 16
  call void @llvm.assume(i1 %cmp3.i.i.i.i.i695.i)
  br label %common.resume

if.then.i.i17.i.i692.i:                           ; preds = %lpad.i.i690.i
  call void @_ZdlPv(ptr noundef %156) #31
  br label %common.resume

_ZStplIcSt11char_traitsIcESaIcEENSt7__cxx1112basic_stringIT_T0_T1_EEPKS5_RKS8_.exit.i: ; preds = %_ZNKSt7__cxx1112basic_stringIcSt11char_traitsIcESaIcEE15_M_check_lengthEmmPKc.exit.i12.i.i704.i
  call void @llvm.experimental.noalias.scope.decl(metadata !104)
  %158 = load i64, ptr %_M_string_length.i.i.i.i.i688.i, align 8, !tbaa !12, !noalias !104
  %159 = add i64 %158, -4611686018427387897
  %cmp.i.i.i711.i = icmp ult i64 %159, 7
  br i1 %cmp.i.i.i711.i, label %if.then.i.i.i717.i, label %_ZNSt7__cxx1112basic_stringIcSt11char_traitsIcESaIcEE6appendEPKc.exit.i.i

if.then.i.i.i717.i:                               ; preds = %_ZStplIcSt11char_traitsIcESaIcEENSt7__cxx1112basic_stringIT_T0_T1_EEPKS5_RKS8_.exit.i
  invoke void @_ZSt20__throw_length_errorPKc(ptr noundef nonnull @.str.126) #34
          to label %.noexc718.i unwind label %lpad299.loopexit.split-lp.i

.noexc718.i:                                      ; preds = %if.then.i.i.i717.i
  unreachable

_ZNSt7__cxx1112basic_stringIcSt11char_traitsIcESaIcEE6appendEPKc.exit.i.i: ; preds = %_ZStplIcSt11char_traitsIcESaIcEENSt7__cxx1112basic_stringIT_T0_T1_EEPKS5_RKS8_.exit.i
  %call2.i.i719.i = invoke noundef nonnull align 8 dereferenceable(32) ptr @_ZNSt7__cxx1112basic_stringIcSt11char_traitsIcESaIcEE9_M_appendEPKcm(ptr noundef nonnull align 8 dereferenceable(32) %ref.tmp298.i, ptr noundef nonnull @.str.79, i64 noundef 7)
          to label %call2.i.i.noexc.i unwind label %lpad299.loopexit.i

call2.i.i.noexc.i:                                ; preds = %_ZNSt7__cxx1112basic_stringIcSt11char_traitsIcESaIcEE6appendEPKc.exit.i.i
  store ptr %95, ptr %ref.tmp297.i, align 8, !tbaa !45, !alias.scope !104
  %160 = load ptr, ptr %call2.i.i719.i, align 8, !tbaa !5
  %161 = getelementptr inbounds %"class.std::__cxx11::basic_string", ptr %call2.i.i719.i, i64 0, i32 2
  %cmp.i.i1.i.i = icmp eq ptr %160, %161
  br i1 %cmp.i.i1.i.i, label %if.then.i.i713.i, label %if.else.i.i712.i

if.then.i.i713.i:                                 ; preds = %call2.i.i.noexc.i
  %_M_string_length.i.i.i714.i = getelementptr inbounds %"class.std::__cxx11::basic_string", ptr %call2.i.i719.i, i64 0, i32 1
  %162 = load i64, ptr %_M_string_length.i.i.i714.i, align 8, !tbaa !12
  %cmp3.i.i.i715.i = icmp ult i64 %162, 16
  call void @llvm.assume(i1 %cmp3.i.i.i715.i)
  %add.i.i716.i = add nuw nsw i64 %162, 1
  call void @llvm.memcpy.p0.p0.i64(ptr noundef nonnull align 8 dereferenceable(1) %95, ptr noundef nonnull align 8 dereferenceable(1) %160, i64 %add.i.i716.i, i1 false)
  br label %invoke.cont300.i

if.else.i.i712.i:                                 ; preds = %call2.i.i.noexc.i
  store ptr %160, ptr %ref.tmp297.i, align 8, !tbaa !5, !alias.scope !104
  %163 = load i64, ptr %161, align 8, !tbaa !38
  store i64 %163, ptr %95, align 8, !tbaa !38, !alias.scope !104
  br label %invoke.cont300.i

invoke.cont300.i:                                 ; preds = %if.else.i.i712.i, %if.then.i.i713.i
  %_M_string_length.i23.i.i.i = getelementptr inbounds %"class.std::__cxx11::basic_string", ptr %call2.i.i719.i, i64 0, i32 1
  %164 = load i64, ptr %_M_string_length.i23.i.i.i, align 8, !tbaa !12
  store i64 %164, ptr %_M_string_length.i24.i.i.i, align 8, !tbaa !12, !alias.scope !104
  store ptr %161, ptr %call2.i.i719.i, align 8, !tbaa !5
  store i64 0, ptr %_M_string_length.i23.i.i.i, align 8, !tbaa !12
  store i8 0, ptr %161, align 8, !tbaa !38
  call void @llvm.experimental.noalias.scope.decl(metadata !107)
  %165 = load i64, ptr getelementptr inbounds (%struct.cmdline_options, ptr @g_options, i64 0, i32 22, i32 1), align 8, !tbaa !12, !noalias !107
  %166 = load i64, ptr %_M_string_length.i24.i.i.i, align 8, !tbaa !12, !noalias !107
  %sub3.i.i.i.i721.i = sub i64 4611686018427387903, %166
  %cmp.i.i.i.i722.i = icmp ult i64 %sub3.i.i.i.i721.i, %165
  br i1 %cmp.i.i.i.i722.i, label %if.then.i.i.i.i731.i, label %_ZNSt7__cxx1112basic_stringIcSt11char_traitsIcESaIcEE6appendERKS4_.exit.i.i

if.then.i.i.i.i731.i:                             ; preds = %invoke.cont300.i
  invoke void @_ZSt20__throw_length_errorPKc(ptr noundef nonnull @.str.126) #34
          to label %.noexc732.i unwind label %lpad301.loopexit.split-lp.i

.noexc732.i:                                      ; preds = %if.then.i.i.i.i731.i
  unreachable

_ZNSt7__cxx1112basic_stringIcSt11char_traitsIcESaIcEE6appendERKS4_.exit.i.i: ; preds = %invoke.cont300.i
  %167 = load ptr, ptr getelementptr inbounds (%struct.cmdline_options, ptr @g_options, i64 0, i32 22), align 8, !tbaa !5, !noalias !107
  %call.i.i.i723733.i = invoke noundef nonnull align 8 dereferenceable(32) ptr @_ZNSt7__cxx1112basic_stringIcSt11char_traitsIcESaIcEE9_M_appendEPKcm(ptr noundef nonnull align 8 dereferenceable(32) %ref.tmp297.i, ptr noundef %167, i64 noundef %165)
          to label %call.i.i.i723.noexc.i unwind label %lpad301.loopexit.i

call.i.i.i723.noexc.i:                            ; preds = %_ZNSt7__cxx1112basic_stringIcSt11char_traitsIcESaIcEE6appendERKS4_.exit.i.i
  store ptr %96, ptr %ref.tmp296.i, align 8, !tbaa !45, !alias.scope !107
  %168 = load ptr, ptr %call.i.i.i723733.i, align 8, !tbaa !5
  %169 = getelementptr inbounds %"class.std::__cxx11::basic_string", ptr %call.i.i.i723733.i, i64 0, i32 2
  %cmp.i.i.i724.i = icmp eq ptr %168, %169
  br i1 %cmp.i.i.i724.i, label %if.then.i.i728.i, label %if.else.i.i725.i

if.then.i.i728.i:                                 ; preds = %call.i.i.i723.noexc.i
  %_M_string_length.i.i1.i.i = getelementptr inbounds %"class.std::__cxx11::basic_string", ptr %call.i.i.i723733.i, i64 0, i32 1
  %170 = load i64, ptr %_M_string_length.i.i1.i.i, align 8, !tbaa !12
  %cmp3.i.i.i729.i = icmp ult i64 %170, 16
  call void @llvm.assume(i1 %cmp3.i.i.i729.i)
  %add.i.i730.i = add nuw nsw i64 %170, 1
  call void @llvm.memcpy.p0.p0.i64(ptr noundef nonnull align 8 dereferenceable(1) %96, ptr noundef nonnull align 8 dereferenceable(1) %168, i64 %add.i.i730.i, i1 false)
  br label %invoke.cont302.i

if.else.i.i725.i:                                 ; preds = %call.i.i.i723.noexc.i
  store ptr %168, ptr %ref.tmp296.i, align 8, !tbaa !5, !alias.scope !107
  %171 = load i64, ptr %169, align 8, !tbaa !38
  store i64 %171, ptr %96, align 8, !tbaa !38, !alias.scope !107
  br label %invoke.cont302.i

invoke.cont302.i:                                 ; preds = %if.else.i.i725.i, %if.then.i.i728.i
  %_M_string_length.i23.i.i726.i = getelementptr inbounds %"class.std::__cxx11::basic_string", ptr %call.i.i.i723733.i, i64 0, i32 1
  %172 = load i64, ptr %_M_string_length.i23.i.i726.i, align 8, !tbaa !12
  store i64 %172, ptr %_M_string_length.i24.i.i727.i, align 8, !tbaa !12, !alias.scope !107
  store ptr %169, ptr %call.i.i.i723733.i, align 8, !tbaa !5
  store i64 0, ptr %_M_string_length.i23.i.i726.i, align 8, !tbaa !12
  store i8 0, ptr %169, align 8, !tbaa !38
  call void @llvm.experimental.noalias.scope.decl(metadata !110)
  %173 = load i64, ptr %_M_string_length.i24.i.i727.i, align 8, !tbaa !12, !noalias !110
  %174 = and i64 %173, -8
  %cmp.i.i.i737.i = icmp eq i64 %174, 4611686018427387896
  br i1 %cmp.i.i.i737.i, label %if.then.i.i.i747.i, label %_ZNSt7__cxx1112basic_stringIcSt11char_traitsIcESaIcEE6appendEPKc.exit.i738.i

if.then.i.i.i747.i:                               ; preds = %invoke.cont302.i
  invoke void @_ZSt20__throw_length_errorPKc(ptr noundef nonnull @.str.126) #34
          to label %.noexc748.i unwind label %lpad303.loopexit.split-lp.i

.noexc748.i:                                      ; preds = %if.then.i.i.i747.i
  unreachable

_ZNSt7__cxx1112basic_stringIcSt11char_traitsIcESaIcEE6appendEPKc.exit.i738.i: ; preds = %invoke.cont302.i
  %call2.i.i750.i = invoke noundef nonnull align 8 dereferenceable(32) ptr @_ZNSt7__cxx1112basic_stringIcSt11char_traitsIcESaIcEE9_M_appendEPKcm(ptr noundef nonnull align 8 dereferenceable(32) %ref.tmp296.i, ptr noundef nonnull @.str.80, i64 noundef 8)
          to label %call2.i.i.noexc749.i unwind label %lpad303.loopexit.i

call2.i.i.noexc749.i:                             ; preds = %_ZNSt7__cxx1112basic_stringIcSt11char_traitsIcESaIcEE6appendEPKc.exit.i738.i
  store ptr %97, ptr %ref.tmp295.i, align 8, !tbaa !45, !alias.scope !110
  %175 = load ptr, ptr %call2.i.i750.i, align 8, !tbaa !5
  %176 = getelementptr inbounds %"class.std::__cxx11::basic_string", ptr %call2.i.i750.i, i64 0, i32 2
  %cmp.i.i1.i739.i = icmp eq ptr %175, %176
  br i1 %cmp.i.i1.i739.i, label %if.then.i.i743.i, label %if.else.i.i740.i

if.then.i.i743.i:                                 ; preds = %call2.i.i.noexc749.i
  %_M_string_length.i.i.i744.i = getelementptr inbounds %"class.std::__cxx11::basic_string", ptr %call2.i.i750.i, i64 0, i32 1
  %177 = load i64, ptr %_M_string_length.i.i.i744.i, align 8, !tbaa !12
  %cmp3.i.i.i745.i = icmp ult i64 %177, 16
  call void @llvm.assume(i1 %cmp3.i.i.i745.i)
  %add.i.i746.i = add nuw nsw i64 %177, 1
  call void @llvm.memcpy.p0.p0.i64(ptr noundef nonnull align 8 dereferenceable(1) %97, ptr noundef nonnull align 8 dereferenceable(1) %175, i64 %add.i.i746.i, i1 false)
  br label %invoke.cont304.i

if.else.i.i740.i:                                 ; preds = %call2.i.i.noexc749.i
  store ptr %175, ptr %ref.tmp295.i, align 8, !tbaa !5, !alias.scope !110
  %178 = load i64, ptr %176, align 8, !tbaa !38
  store i64 %178, ptr %97, align 8, !tbaa !38, !alias.scope !110
  br label %invoke.cont304.i

invoke.cont304.i:                                 ; preds = %if.else.i.i740.i, %if.then.i.i743.i
  %_M_string_length.i23.i.i741.i = getelementptr inbounds %"class.std::__cxx11::basic_string", ptr %call2.i.i750.i, i64 0, i32 1
  %179 = load i64, ptr %_M_string_length.i23.i.i741.i, align 8, !tbaa !12
  store i64 %179, ptr %_M_string_length.i24.i.i742.i, align 8, !tbaa !12, !alias.scope !110
  store ptr %176, ptr %call2.i.i750.i, align 8, !tbaa !5
  store i64 0, ptr %_M_string_length.i23.i.i741.i, align 8, !tbaa !12
  store i8 0, ptr %176, align 8, !tbaa !38
  call void @llvm.experimental.noalias.scope.decl(metadata !113)
  %180 = load i64, ptr getelementptr inbounds (%struct.cmdline_options, ptr @g_options, i64 0, i32 22, i32 1), align 8, !tbaa !12, !noalias !113
  %181 = load i64, ptr %_M_string_length.i24.i.i742.i, align 8, !tbaa !12, !noalias !113
  %sub3.i.i.i.i753.i = sub i64 4611686018427387903, %181
  %cmp.i.i.i.i754.i = icmp ult i64 %sub3.i.i.i.i753.i, %180
  br i1 %cmp.i.i.i.i754.i, label %if.then.i.i.i.i765.i, label %_ZNSt7__cxx1112basic_stringIcSt11char_traitsIcESaIcEE6appendERKS4_.exit.i755.i

if.then.i.i.i.i765.i:                             ; preds = %invoke.cont304.i
  invoke void @_ZSt20__throw_length_errorPKc(ptr noundef nonnull @.str.126) #34
          to label %.noexc766.i unwind label %lpad305.loopexit.split-lp.i

.noexc766.i:                                      ; preds = %if.then.i.i.i.i765.i
  unreachable

_ZNSt7__cxx1112basic_stringIcSt11char_traitsIcESaIcEE6appendERKS4_.exit.i755.i: ; preds = %invoke.cont304.i
  %182 = load ptr, ptr getelementptr inbounds (%struct.cmdline_options, ptr @g_options, i64 0, i32 22), align 8, !tbaa !5, !noalias !113
  %call.i.i.i756767.i = invoke noundef nonnull align 8 dereferenceable(32) ptr @_ZNSt7__cxx1112basic_stringIcSt11char_traitsIcESaIcEE9_M_appendEPKcm(ptr noundef nonnull align 8 dereferenceable(32) %ref.tmp295.i, ptr noundef %182, i64 noundef %180)
          to label %call.i.i.i756.noexc.i unwind label %lpad305.loopexit.i

call.i.i.i756.noexc.i:                            ; preds = %_ZNSt7__cxx1112basic_stringIcSt11char_traitsIcESaIcEE6appendERKS4_.exit.i755.i
  store ptr %98, ptr %ref.tmp294.i, align 8, !tbaa !45, !alias.scope !113
  %183 = load ptr, ptr %call.i.i.i756767.i, align 8, !tbaa !5
  %184 = getelementptr inbounds %"class.std::__cxx11::basic_string", ptr %call.i.i.i756767.i, i64 0, i32 2
  %cmp.i.i.i757.i = icmp eq ptr %183, %184
  br i1 %cmp.i.i.i757.i, label %if.then.i.i761.i, label %if.else.i.i758.i

if.then.i.i761.i:                                 ; preds = %call.i.i.i756.noexc.i
  %_M_string_length.i.i1.i762.i = getelementptr inbounds %"class.std::__cxx11::basic_string", ptr %call.i.i.i756767.i, i64 0, i32 1
  %185 = load i64, ptr %_M_string_length.i.i1.i762.i, align 8, !tbaa !12
  %cmp3.i.i.i763.i = icmp ult i64 %185, 16
  call void @llvm.assume(i1 %cmp3.i.i.i763.i)
  %add.i.i764.i = add nuw nsw i64 %185, 1
  call void @llvm.memcpy.p0.p0.i64(ptr noundef nonnull align 8 dereferenceable(1) %98, ptr noundef nonnull align 8 dereferenceable(1) %183, i64 %add.i.i764.i, i1 false)
  br label %invoke.cont306.i

if.else.i.i758.i:                                 ; preds = %call.i.i.i756.noexc.i
  store ptr %183, ptr %ref.tmp294.i, align 8, !tbaa !5, !alias.scope !113
  %186 = load i64, ptr %184, align 8, !tbaa !38
  store i64 %186, ptr %98, align 8, !tbaa !38, !alias.scope !113
  br label %invoke.cont306.i

invoke.cont306.i:                                 ; preds = %if.else.i.i758.i, %if.then.i.i761.i
  %_M_string_length.i23.i.i759.i = getelementptr inbounds %"class.std::__cxx11::basic_string", ptr %call.i.i.i756767.i, i64 0, i32 1
  %187 = load i64, ptr %_M_string_length.i23.i.i759.i, align 8, !tbaa !12
  store i64 %187, ptr %_M_string_length.i24.i.i760.i, align 8, !tbaa !12, !alias.scope !113
  store ptr %184, ptr %call.i.i.i756767.i, align 8, !tbaa !5
  store i64 0, ptr %_M_string_length.i23.i.i759.i, align 8, !tbaa !12
  store i8 0, ptr %184, align 8, !tbaa !38
  call void @llvm.experimental.noalias.scope.decl(metadata !116)
  %188 = load i64, ptr %_M_string_length.i24.i.i760.i, align 8, !tbaa !12, !noalias !116
  %189 = add i64 %188, -4611686018427387894
  %cmp.i.i.i772.i = icmp ult i64 %189, 10
  br i1 %cmp.i.i.i772.i, label %if.then.i.i.i782.i, label %_ZNSt7__cxx1112basic_stringIcSt11char_traitsIcESaIcEE6appendEPKc.exit.i773.i

if.then.i.i.i782.i:                               ; preds = %invoke.cont306.i
  invoke void @_ZSt20__throw_length_errorPKc(ptr noundef nonnull @.str.126) #34
          to label %.noexc783.i unwind label %lpad307.loopexit.split-lp.i

.noexc783.i:                                      ; preds = %if.then.i.i.i782.i
  unreachable

_ZNSt7__cxx1112basic_stringIcSt11char_traitsIcESaIcEE6appendEPKc.exit.i773.i: ; preds = %invoke.cont306.i
  %call2.i.i785.i = invoke noundef nonnull align 8 dereferenceable(32) ptr @_ZNSt7__cxx1112basic_stringIcSt11char_traitsIcESaIcEE9_M_appendEPKcm(ptr noundef nonnull align 8 dereferenceable(32) %ref.tmp294.i, ptr noundef nonnull @.str.81, i64 noundef 10)
          to label %call2.i.i.noexc784.i unwind label %lpad307.loopexit.i

call2.i.i.noexc784.i:                             ; preds = %_ZNSt7__cxx1112basic_stringIcSt11char_traitsIcESaIcEE6appendEPKc.exit.i773.i
  store ptr %99, ptr %ref.tmp293.i, align 8, !tbaa !45, !alias.scope !116
  %190 = load ptr, ptr %call2.i.i785.i, align 8, !tbaa !5
  %191 = getelementptr inbounds %"class.std::__cxx11::basic_string", ptr %call2.i.i785.i, i64 0, i32 2
  %cmp.i.i1.i774.i = icmp eq ptr %190, %191
  br i1 %cmp.i.i1.i774.i, label %if.then.i.i778.i, label %if.else.i.i775.i

if.then.i.i778.i:                                 ; preds = %call2.i.i.noexc784.i
  %_M_string_length.i.i.i779.i = getelementptr inbounds %"class.std::__cxx11::basic_string", ptr %call2.i.i785.i, i64 0, i32 1
  %192 = load i64, ptr %_M_string_length.i.i.i779.i, align 8, !tbaa !12
  %cmp3.i.i.i780.i = icmp ult i64 %192, 16
  call void @llvm.assume(i1 %cmp3.i.i.i780.i)
  %add.i.i781.i = add nuw nsw i64 %192, 1
  call void @llvm.memcpy.p0.p0.i64(ptr noundef nonnull align 8 dereferenceable(1) %99, ptr noundef nonnull align 8 dereferenceable(1) %190, i64 %add.i.i781.i, i1 false)
  br label %invoke.cont308.i

if.else.i.i775.i:                                 ; preds = %call2.i.i.noexc784.i
  store ptr %190, ptr %ref.tmp293.i, align 8, !tbaa !5, !alias.scope !116
  %193 = load i64, ptr %191, align 8, !tbaa !38
  store i64 %193, ptr %99, align 8, !tbaa !38, !alias.scope !116
  br label %invoke.cont308.i

invoke.cont308.i:                                 ; preds = %if.else.i.i775.i, %if.then.i.i778.i
  %_M_string_length.i23.i.i776.i = getelementptr inbounds %"class.std::__cxx11::basic_string", ptr %call2.i.i785.i, i64 0, i32 1
  %194 = load i64, ptr %_M_string_length.i23.i.i776.i, align 8, !tbaa !12
  store i64 %194, ptr %_M_string_length.i24.i.i777.i, align 8, !tbaa !12, !alias.scope !116
  store ptr %191, ptr %call2.i.i785.i, align 8, !tbaa !5
  store i64 0, ptr %_M_string_length.i23.i.i776.i, align 8, !tbaa !12
  store i8 0, ptr %191, align 8, !tbaa !38
  call void @llvm.experimental.noalias.scope.decl(metadata !119)
  %195 = load i64, ptr getelementptr inbounds (%struct.cmdline_options, ptr @g_options, i64 0, i32 22, i32 1), align 8, !tbaa !12, !noalias !119
  %196 = load i64, ptr %_M_string_length.i24.i.i777.i, align 8, !tbaa !12, !noalias !119
  %sub3.i.i.i.i788.i = sub i64 4611686018427387903, %196
  %cmp.i.i.i.i789.i = icmp ult i64 %sub3.i.i.i.i788.i, %195
  br i1 %cmp.i.i.i.i789.i, label %if.then.i.i.i.i800.i, label %_ZNSt7__cxx1112basic_stringIcSt11char_traitsIcESaIcEE6appendERKS4_.exit.i790.i

if.then.i.i.i.i800.i:                             ; preds = %invoke.cont308.i
  invoke void @_ZSt20__throw_length_errorPKc(ptr noundef nonnull @.str.126) #34
          to label %.noexc801.i unwind label %lpad309.loopexit.split-lp.i

.noexc801.i:                                      ; preds = %if.then.i.i.i.i800.i
  unreachable

_ZNSt7__cxx1112basic_stringIcSt11char_traitsIcESaIcEE6appendERKS4_.exit.i790.i: ; preds = %invoke.cont308.i
  %197 = load ptr, ptr getelementptr inbounds (%struct.cmdline_options, ptr @g_options, i64 0, i32 22), align 8, !tbaa !5, !noalias !119
  %call.i.i.i791802.i = invoke noundef nonnull align 8 dereferenceable(32) ptr @_ZNSt7__cxx1112basic_stringIcSt11char_traitsIcESaIcEE9_M_appendEPKcm(ptr noundef nonnull align 8 dereferenceable(32) %ref.tmp293.i, ptr noundef %197, i64 noundef %195)
          to label %call.i.i.i791.noexc.i unwind label %lpad309.loopexit.i

call.i.i.i791.noexc.i:                            ; preds = %_ZNSt7__cxx1112basic_stringIcSt11char_traitsIcESaIcEE6appendERKS4_.exit.i790.i
  store ptr %100, ptr %ref.tmp292.i, align 8, !tbaa !45, !alias.scope !119
  %198 = load ptr, ptr %call.i.i.i791802.i, align 8, !tbaa !5
  %199 = getelementptr inbounds %"class.std::__cxx11::basic_string", ptr %call.i.i.i791802.i, i64 0, i32 2
  %cmp.i.i.i792.i = icmp eq ptr %198, %199
  br i1 %cmp.i.i.i792.i, label %if.then.i.i796.i, label %if.else.i.i793.i

if.then.i.i796.i:                                 ; preds = %call.i.i.i791.noexc.i
  %_M_string_length.i.i1.i797.i = getelementptr inbounds %"class.std::__cxx11::basic_string", ptr %call.i.i.i791802.i, i64 0, i32 1
  %200 = load i64, ptr %_M_string_length.i.i1.i797.i, align 8, !tbaa !12
  %cmp3.i.i.i798.i = icmp ult i64 %200, 16
  call void @llvm.assume(i1 %cmp3.i.i.i798.i)
  %add.i.i799.i = add nuw nsw i64 %200, 1
  call void @llvm.memcpy.p0.p0.i64(ptr noundef nonnull align 8 dereferenceable(1) %100, ptr noundef nonnull align 8 dereferenceable(1) %198, i64 %add.i.i799.i, i1 false)
  br label %invoke.cont310.i

if.else.i.i793.i:                                 ; preds = %call.i.i.i791.noexc.i
  store ptr %198, ptr %ref.tmp292.i, align 8, !tbaa !5, !alias.scope !119
  %201 = load i64, ptr %199, align 8, !tbaa !38
  store i64 %201, ptr %100, align 8, !tbaa !38, !alias.scope !119
  br label %invoke.cont310.i

invoke.cont310.i:                                 ; preds = %if.else.i.i793.i, %if.then.i.i796.i
  %_M_string_length.i23.i.i794.i = getelementptr inbounds %"class.std::__cxx11::basic_string", ptr %call.i.i.i791802.i, i64 0, i32 1
  %202 = load i64, ptr %_M_string_length.i23.i.i794.i, align 8, !tbaa !12
  store i64 %202, ptr %_M_string_length.i24.i.i795.i, align 8, !tbaa !12, !alias.scope !119
  store ptr %199, ptr %call.i.i.i791802.i, align 8, !tbaa !5
  store i64 0, ptr %_M_string_length.i23.i.i794.i, align 8, !tbaa !12
  store i8 0, ptr %199, align 8, !tbaa !38
  call void @llvm.experimental.noalias.scope.decl(metadata !122)
  %203 = load i64, ptr %_M_string_length.i24.i.i795.i, align 8, !tbaa !12, !noalias !122
  %204 = add i64 %203, -4611686018427387868
  %cmp.i.i.i807.i = icmp ult i64 %204, 36
  br i1 %cmp.i.i.i807.i, label %if.then.i.i.i817.i, label %_ZNSt7__cxx1112basic_stringIcSt11char_traitsIcESaIcEE6appendEPKc.exit.i808.i

if.then.i.i.i817.i:                               ; preds = %invoke.cont310.i
  invoke void @_ZSt20__throw_length_errorPKc(ptr noundef nonnull @.str.126) #34
          to label %.noexc818.i unwind label %lpad311.loopexit.split-lp.i

.noexc818.i:                                      ; preds = %if.then.i.i.i817.i
  unreachable

_ZNSt7__cxx1112basic_stringIcSt11char_traitsIcESaIcEE6appendEPKc.exit.i808.i: ; preds = %invoke.cont310.i
  %call2.i.i820.i = invoke noundef nonnull align 8 dereferenceable(32) ptr @_ZNSt7__cxx1112basic_stringIcSt11char_traitsIcESaIcEE9_M_appendEPKcm(ptr noundef nonnull align 8 dereferenceable(32) %ref.tmp292.i, ptr noundef nonnull @.str.82, i64 noundef 36)
          to label %call2.i.i.noexc819.i unwind label %lpad311.loopexit.i

call2.i.i.noexc819.i:                             ; preds = %_ZNSt7__cxx1112basic_stringIcSt11char_traitsIcESaIcEE6appendEPKc.exit.i808.i
  store ptr %101, ptr %tmp.i, align 8, !tbaa !45, !alias.scope !122
  %205 = load ptr, ptr %call2.i.i820.i, align 8, !tbaa !5
  %206 = getelementptr inbounds %"class.std::__cxx11::basic_string", ptr %call2.i.i820.i, i64 0, i32 2
  %cmp.i.i1.i809.i = icmp eq ptr %205, %206
  br i1 %cmp.i.i1.i809.i, label %if.then.i.i813.i, label %if.else.i.i810.i

if.then.i.i813.i:                                 ; preds = %call2.i.i.noexc819.i
  %_M_string_length.i.i.i814.i = getelementptr inbounds %"class.std::__cxx11::basic_string", ptr %call2.i.i820.i, i64 0, i32 1
  %207 = load i64, ptr %_M_string_length.i.i.i814.i, align 8, !tbaa !12
  %cmp3.i.i.i815.i = icmp ult i64 %207, 16
  call void @llvm.assume(i1 %cmp3.i.i.i815.i)
  %add.i.i816.i = add nuw nsw i64 %207, 1
  call void @llvm.memcpy.p0.p0.i64(ptr noundef nonnull align 8 dereferenceable(1) %101, ptr noundef nonnull align 8 dereferenceable(1) %205, i64 %add.i.i816.i, i1 false)
  br label %invoke.cont312.i

if.else.i.i810.i:                                 ; preds = %call2.i.i.noexc819.i
  store ptr %205, ptr %tmp.i, align 8, !tbaa !5, !alias.scope !122
  %208 = load i64, ptr %206, align 8, !tbaa !38
  store i64 %208, ptr %101, align 8, !tbaa !38, !alias.scope !122
  br label %invoke.cont312.i

invoke.cont312.i:                                 ; preds = %if.else.i.i810.i, %if.then.i.i813.i
  %_M_string_length.i23.i.i811.i = getelementptr inbounds %"class.std::__cxx11::basic_string", ptr %call2.i.i820.i, i64 0, i32 1
  %209 = load i64, ptr %_M_string_length.i23.i.i811.i, align 8, !tbaa !12
  store i64 %209, ptr %_M_string_length.i24.i.i812.i, align 8, !tbaa !12, !alias.scope !122
  store ptr %206, ptr %call2.i.i820.i, align 8, !tbaa !5
  store i64 0, ptr %_M_string_length.i23.i.i811.i, align 8, !tbaa !12
  store i8 0, ptr %206, align 8, !tbaa !38
  %210 = load ptr, ptr %ref.tmp292.i, align 8, !tbaa !5
  %cmp.i.i.i822.i = icmp eq ptr %210, %100
  br i1 %cmp.i.i.i822.i, label %_ZNKSt7__cxx1112basic_stringIcSt11char_traitsIcESaIcEE11_M_is_localEv.exit.thread.i.i825.i, label %if.then.i.i823.i

_ZNKSt7__cxx1112basic_stringIcSt11char_traitsIcESaIcEE11_M_is_localEv.exit.thread.i.i825.i: ; preds = %invoke.cont312.i
  %211 = load i64, ptr %_M_string_length.i24.i.i795.i, align 8, !tbaa !12
  %cmp3.i.i.i827.i = icmp ult i64 %211, 16
  call void @llvm.assume(i1 %cmp3.i.i.i827.i)
  br label %_ZNSt7__cxx1112basic_stringIcSt11char_traitsIcESaIcEED2Ev.exit828.i

if.then.i.i823.i:                                 ; preds = %invoke.cont312.i
  call void @_ZdlPv(ptr noundef %210) #31
  br label %_ZNSt7__cxx1112basic_stringIcSt11char_traitsIcESaIcEED2Ev.exit828.i

_ZNSt7__cxx1112basic_stringIcSt11char_traitsIcESaIcEED2Ev.exit828.i: ; preds = %if.then.i.i823.i, %_ZNKSt7__cxx1112basic_stringIcSt11char_traitsIcESaIcEE11_M_is_localEv.exit.thread.i.i825.i
  %212 = load ptr, ptr %ref.tmp293.i, align 8, !tbaa !5
  %cmp.i.i.i829.i = icmp eq ptr %212, %99
  br i1 %cmp.i.i.i829.i, label %_ZNKSt7__cxx1112basic_stringIcSt11char_traitsIcESaIcEE11_M_is_localEv.exit.thread.i.i832.i, label %if.then.i.i830.i

_ZNKSt7__cxx1112basic_stringIcSt11char_traitsIcESaIcEE11_M_is_localEv.exit.thread.i.i832.i: ; preds = %_ZNSt7__cxx1112basic_stringIcSt11char_traitsIcESaIcEED2Ev.exit828.i
  %213 = load i64, ptr %_M_string_length.i24.i.i777.i, align 8, !tbaa !12
  %cmp3.i.i.i834.i = icmp ult i64 %213, 16
  call void @llvm.assume(i1 %cmp3.i.i.i834.i)
  br label %_ZNSt7__cxx1112basic_stringIcSt11char_traitsIcESaIcEED2Ev.exit835.i

if.then.i.i830.i:                                 ; preds = %_ZNSt7__cxx1112basic_stringIcSt11char_traitsIcESaIcEED2Ev.exit828.i
  call void @_ZdlPv(ptr noundef %212) #31
  br label %_ZNSt7__cxx1112basic_stringIcSt11char_traitsIcESaIcEED2Ev.exit835.i

_ZNSt7__cxx1112basic_stringIcSt11char_traitsIcESaIcEED2Ev.exit835.i: ; preds = %if.then.i.i830.i, %_ZNKSt7__cxx1112basic_stringIcSt11char_traitsIcESaIcEE11_M_is_localEv.exit.thread.i.i832.i
  %214 = load ptr, ptr %ref.tmp294.i, align 8, !tbaa !5
  %cmp.i.i.i836.i = icmp eq ptr %214, %98
  br i1 %cmp.i.i.i836.i, label %_ZNKSt7__cxx1112basic_stringIcSt11char_traitsIcESaIcEE11_M_is_localEv.exit.thread.i.i839.i, label %if.then.i.i837.i

_ZNKSt7__cxx1112basic_stringIcSt11char_traitsIcESaIcEE11_M_is_localEv.exit.thread.i.i839.i: ; preds = %_ZNSt7__cxx1112basic_stringIcSt11char_traitsIcESaIcEED2Ev.exit835.i
  %215 = load i64, ptr %_M_string_length.i24.i.i760.i, align 8, !tbaa !12
  %cmp3.i.i.i841.i = icmp ult i64 %215, 16
  call void @llvm.assume(i1 %cmp3.i.i.i841.i)
  br label %_ZNSt7__cxx1112basic_stringIcSt11char_traitsIcESaIcEED2Ev.exit842.i

if.then.i.i837.i:                                 ; preds = %_ZNSt7__cxx1112basic_stringIcSt11char_traitsIcESaIcEED2Ev.exit835.i
  call void @_ZdlPv(ptr noundef %214) #31
  br label %_ZNSt7__cxx1112basic_stringIcSt11char_traitsIcESaIcEED2Ev.exit842.i

_ZNSt7__cxx1112basic_stringIcSt11char_traitsIcESaIcEED2Ev.exit842.i: ; preds = %if.then.i.i837.i, %_ZNKSt7__cxx1112basic_stringIcSt11char_traitsIcESaIcEE11_M_is_localEv.exit.thread.i.i839.i
  %216 = load ptr, ptr %ref.tmp295.i, align 8, !tbaa !5
  %cmp.i.i.i843.i = icmp eq ptr %216, %97
  br i1 %cmp.i.i.i843.i, label %_ZNKSt7__cxx1112basic_stringIcSt11char_traitsIcESaIcEE11_M_is_localEv.exit.thread.i.i846.i, label %if.then.i.i844.i

_ZNKSt7__cxx1112basic_stringIcSt11char_traitsIcESaIcEE11_M_is_localEv.exit.thread.i.i846.i: ; preds = %_ZNSt7__cxx1112basic_stringIcSt11char_traitsIcESaIcEED2Ev.exit842.i
  %217 = load i64, ptr %_M_string_length.i24.i.i742.i, align 8, !tbaa !12
  %cmp3.i.i.i848.i = icmp ult i64 %217, 16
  call void @llvm.assume(i1 %cmp3.i.i.i848.i)
  br label %_ZNSt7__cxx1112basic_stringIcSt11char_traitsIcESaIcEED2Ev.exit849.i

if.then.i.i844.i:                                 ; preds = %_ZNSt7__cxx1112basic_stringIcSt11char_traitsIcESaIcEED2Ev.exit842.i
  call void @_ZdlPv(ptr noundef %216) #31
  br label %_ZNSt7__cxx1112basic_stringIcSt11char_traitsIcESaIcEED2Ev.exit849.i

_ZNSt7__cxx1112basic_stringIcSt11char_traitsIcESaIcEED2Ev.exit849.i: ; preds = %if.then.i.i844.i, %_ZNKSt7__cxx1112basic_stringIcSt11char_traitsIcESaIcEE11_M_is_localEv.exit.thread.i.i846.i
  %218 = load ptr, ptr %ref.tmp296.i, align 8, !tbaa !5
  %cmp.i.i.i850.i = icmp eq ptr %218, %96
  br i1 %cmp.i.i.i850.i, label %_ZNKSt7__cxx1112basic_stringIcSt11char_traitsIcESaIcEE11_M_is_localEv.exit.thread.i.i853.i, label %if.then.i.i851.i

_ZNKSt7__cxx1112basic_stringIcSt11char_traitsIcESaIcEE11_M_is_localEv.exit.thread.i.i853.i: ; preds = %_ZNSt7__cxx1112basic_stringIcSt11char_traitsIcESaIcEED2Ev.exit849.i
  %219 = load i64, ptr %_M_string_length.i24.i.i727.i, align 8, !tbaa !12
  %cmp3.i.i.i855.i = icmp ult i64 %219, 16
  call void @llvm.assume(i1 %cmp3.i.i.i855.i)
  br label %_ZNSt7__cxx1112basic_stringIcSt11char_traitsIcESaIcEED2Ev.exit856.i

if.then.i.i851.i:                                 ; preds = %_ZNSt7__cxx1112basic_stringIcSt11char_traitsIcESaIcEED2Ev.exit849.i
  call void @_ZdlPv(ptr noundef %218) #31
  br label %_ZNSt7__cxx1112basic_stringIcSt11char_traitsIcESaIcEED2Ev.exit856.i

_ZNSt7__cxx1112basic_stringIcSt11char_traitsIcESaIcEED2Ev.exit856.i: ; preds = %if.then.i.i851.i, %_ZNKSt7__cxx1112basic_stringIcSt11char_traitsIcESaIcEE11_M_is_localEv.exit.thread.i.i853.i
  %220 = load ptr, ptr %ref.tmp297.i, align 8, !tbaa !5
  %cmp.i.i.i857.i = icmp eq ptr %220, %95
  br i1 %cmp.i.i.i857.i, label %_ZNKSt7__cxx1112basic_stringIcSt11char_traitsIcESaIcEE11_M_is_localEv.exit.thread.i.i860.i, label %if.then.i.i858.i

_ZNKSt7__cxx1112basic_stringIcSt11char_traitsIcESaIcEE11_M_is_localEv.exit.thread.i.i860.i: ; preds = %_ZNSt7__cxx1112basic_stringIcSt11char_traitsIcESaIcEED2Ev.exit856.i
  %221 = load i64, ptr %_M_string_length.i24.i.i.i, align 8, !tbaa !12
  %cmp3.i.i.i862.i = icmp ult i64 %221, 16
  call void @llvm.assume(i1 %cmp3.i.i.i862.i)
  br label %_ZNSt7__cxx1112basic_stringIcSt11char_traitsIcESaIcEED2Ev.exit863.i

if.then.i.i858.i:                                 ; preds = %_ZNSt7__cxx1112basic_stringIcSt11char_traitsIcESaIcEED2Ev.exit856.i
  call void @_ZdlPv(ptr noundef %220) #31
  br label %_ZNSt7__cxx1112basic_stringIcSt11char_traitsIcESaIcEED2Ev.exit863.i

_ZNSt7__cxx1112basic_stringIcSt11char_traitsIcESaIcEED2Ev.exit863.i: ; preds = %if.then.i.i858.i, %_ZNKSt7__cxx1112basic_stringIcSt11char_traitsIcESaIcEE11_M_is_localEv.exit.thread.i.i860.i
  %222 = load ptr, ptr %ref.tmp298.i, align 8, !tbaa !5
  %cmp.i.i.i864.i = icmp eq ptr %222, %94
  br i1 %cmp.i.i.i864.i, label %_ZNKSt7__cxx1112basic_stringIcSt11char_traitsIcESaIcEE11_M_is_localEv.exit.thread.i.i867.i, label %if.then.i.i865.i

_ZNKSt7__cxx1112basic_stringIcSt11char_traitsIcESaIcEE11_M_is_localEv.exit.thread.i.i867.i: ; preds = %_ZNSt7__cxx1112basic_stringIcSt11char_traitsIcESaIcEED2Ev.exit863.i
  %223 = load i64, ptr %_M_string_length.i.i.i.i.i688.i, align 8, !tbaa !12
  %cmp3.i.i.i869.i = icmp ult i64 %223, 16
  call void @llvm.assume(i1 %cmp3.i.i.i869.i)
  br label %_ZNSt7__cxx1112basic_stringIcSt11char_traitsIcESaIcEED2Ev.exit870.i

if.then.i.i865.i:                                 ; preds = %_ZNSt7__cxx1112basic_stringIcSt11char_traitsIcESaIcEED2Ev.exit863.i
  call void @_ZdlPv(ptr noundef %222) #31
  br label %_ZNSt7__cxx1112basic_stringIcSt11char_traitsIcESaIcEED2Ev.exit870.i

_ZNSt7__cxx1112basic_stringIcSt11char_traitsIcESaIcEED2Ev.exit870.i: ; preds = %if.then.i.i865.i, %_ZNKSt7__cxx1112basic_stringIcSt11char_traitsIcESaIcEE11_M_is_localEv.exit.thread.i.i867.i
  call void @llvm.lifetime.end.p0(i64 32, ptr nonnull %ref.tmp298.i) #33
  call void @llvm.lifetime.end.p0(i64 32, ptr nonnull %ref.tmp297.i) #33
  call void @llvm.lifetime.end.p0(i64 32, ptr nonnull %ref.tmp296.i) #33
  call void @llvm.lifetime.end.p0(i64 32, ptr nonnull %ref.tmp295.i) #33
  call void @llvm.lifetime.end.p0(i64 32, ptr nonnull %ref.tmp294.i) #33
  call void @llvm.lifetime.end.p0(i64 32, ptr nonnull %ref.tmp293.i) #33
  call void @llvm.lifetime.end.p0(i64 32, ptr nonnull %ref.tmp292.i) #33
  %call329.i = invoke noundef ptr @_ZN2kc10NoFileLineEv()
          to label %invoke.cont328.i unwind label %lpad327.i

invoke.cont328.i:                                 ; preds = %_ZNSt7__cxx1112basic_stringIcSt11char_traitsIcESaIcEED2Ev.exit870.i
  %224 = load ptr, ptr %tmp.i, align 8, !tbaa !5
  %225 = load ptr, ptr %arrayidx197.i, align 8, !tbaa !13
  %call334.i = invoke noundef ptr @_ZN2kc9Problem2SEPKcS1_(ptr noundef %224, ptr noundef %225)
          to label %invoke.cont333.i unwind label %lpad327.i

invoke.cont333.i:                                 ; preds = %invoke.cont328.i
  %call336.i = invoke noundef ptr @_ZN2kc8NonFatalEPNS_13impl_filelineEPNS_12impl_problemE(ptr noundef %call329.i, ptr noundef %call334.i)
          to label %invoke.cont335.i unwind label %lpad327.i

invoke.cont335.i:                                 ; preds = %invoke.cont333.i
  invoke void @_ZN2kc8v_reportEPNS_10impl_errorE(ptr noundef %call336.i)
          to label %invoke.cont337.i unwind label %lpad327.i

invoke.cont337.i:                                 ; preds = %invoke.cont335.i
  %226 = load ptr, ptr %tmp.i, align 8, !tbaa !5
  %cmp.i.i.i871.i = icmp eq ptr %226, %101
  br i1 %cmp.i.i.i871.i, label %_ZNKSt7__cxx1112basic_stringIcSt11char_traitsIcESaIcEE11_M_is_localEv.exit.thread.i.i874.i, label %if.then.i.i872.i

_ZNKSt7__cxx1112basic_stringIcSt11char_traitsIcESaIcEE11_M_is_localEv.exit.thread.i.i874.i: ; preds = %invoke.cont337.i
  %227 = load i64, ptr %_M_string_length.i24.i.i812.i, align 8, !tbaa !12
  %cmp3.i.i.i876.i = icmp ult i64 %227, 16
  call void @llvm.assume(i1 %cmp3.i.i.i876.i)
  br label %_ZNSt7__cxx1112basic_stringIcSt11char_traitsIcESaIcEED2Ev.exit877.i

if.then.i.i872.i:                                 ; preds = %invoke.cont337.i
  call void @_ZdlPv(ptr noundef %226) #31
  br label %_ZNSt7__cxx1112basic_stringIcSt11char_traitsIcESaIcEED2Ev.exit877.i

_ZNSt7__cxx1112basic_stringIcSt11char_traitsIcESaIcEED2Ev.exit877.i: ; preds = %if.then.i.i872.i, %_ZNKSt7__cxx1112basic_stringIcSt11char_traitsIcESaIcEE11_M_is_localEv.exit.thread.i.i874.i
  call void @llvm.lifetime.end.p0(i64 32, ptr nonnull %tmp.i) #33
  br label %if.end355.i

lpad246.body.i:                                   ; preds = %if.then.i.i17.i.i640.i, %_ZNKSt7__cxx1112basic_stringIcSt11char_traitsIcESaIcEE11_M_is_localEv.exit.thread.i.i.i.i642.i
  call void @llvm.lifetime.end.p0(i64 32, ptr nonnull %ref.tmp244.i) #33
  %228 = load ptr, ptr %ref.tmp235.i, align 8, !tbaa !5
  %cmp.i.i.i878.i = icmp eq ptr %228, %92
  br i1 %cmp.i.i.i878.i, label %_ZNKSt7__cxx1112basic_stringIcSt11char_traitsIcESaIcEE11_M_is_localEv.exit.thread.i.i881.i, label %if.then.i.i879.i

_ZNKSt7__cxx1112basic_stringIcSt11char_traitsIcESaIcEE11_M_is_localEv.exit.thread.i.i881.i: ; preds = %lpad246.body.i
  %229 = load i64, ptr %_M_string_length.i.i.i.i.i612.i, align 8, !tbaa !12
  %cmp3.i.i.i883.i = icmp ult i64 %229, 16
  call void @llvm.assume(i1 %cmp3.i.i.i883.i)
  br label %cleanup.action273.i

if.then.i.i879.i:                                 ; preds = %lpad246.body.i
  call void @_ZdlPv(ptr noundef %228) #31
  br label %cleanup.action273.i

cleanup.action273.i:                              ; preds = %if.then.i.i879.i, %_ZNKSt7__cxx1112basic_stringIcSt11char_traitsIcESaIcEE11_M_is_localEv.exit.thread.i.i881.i, %if.then.i.i17.i.i616.i, %_ZNKSt7__cxx1112basic_stringIcSt11char_traitsIcESaIcEE11_M_is_localEv.exit.thread.i.i.i.i618.i
  %.pn.i = phi { ptr, i32 } [ %lpad.phi985.i, %if.then.i.i17.i.i616.i ], [ %lpad.phi985.i, %_ZNKSt7__cxx1112basic_stringIcSt11char_traitsIcESaIcEE11_M_is_localEv.exit.thread.i.i.i.i618.i ], [ %lpad.phi988.i, %_ZNKSt7__cxx1112basic_stringIcSt11char_traitsIcESaIcEE11_M_is_localEv.exit.thread.i.i881.i ], [ %lpad.phi988.i, %if.then.i.i879.i ]
  call void @llvm.lifetime.end.p0(i64 32, ptr nonnull %ref.tmp235.i) #33
  %230 = load ptr, ptr %ref.tmp227.i, align 8, !tbaa !5
  %cmp.i.i.i885.i = icmp eq ptr %230, %91
  br i1 %cmp.i.i.i885.i, label %_ZNKSt7__cxx1112basic_stringIcSt11char_traitsIcESaIcEE11_M_is_localEv.exit.thread.i.i888.i, label %if.then.i.i886.i

_ZNKSt7__cxx1112basic_stringIcSt11char_traitsIcESaIcEE11_M_is_localEv.exit.thread.i.i888.i: ; preds = %cleanup.action273.i
  %231 = load i64, ptr %_M_string_length.i.i.i.i.i589.i, align 8, !tbaa !12
  %cmp3.i.i.i890.i = icmp ult i64 %231, 16
  call void @llvm.assume(i1 %cmp3.i.i.i890.i)
  br label %cleanup.action287.i

if.then.i.i886.i:                                 ; preds = %cleanup.action273.i
  call void @_ZdlPv(ptr noundef %230) #31
  br label %cleanup.action287.i

cleanup.action287.i:                              ; preds = %if.then.i.i886.i, %_ZNKSt7__cxx1112basic_stringIcSt11char_traitsIcESaIcEE11_M_is_localEv.exit.thread.i.i888.i, %if.then.i.i17.i.i593.i, %_ZNKSt7__cxx1112basic_stringIcSt11char_traitsIcESaIcEE11_M_is_localEv.exit.thread.i.i.i.i595.i
  %.pn.pn.i = phi { ptr, i32 } [ %lpad.phi982.i, %if.then.i.i17.i.i593.i ], [ %lpad.phi982.i, %_ZNKSt7__cxx1112basic_stringIcSt11char_traitsIcESaIcEE11_M_is_localEv.exit.thread.i.i.i.i595.i ], [ %.pn.i, %_ZNKSt7__cxx1112basic_stringIcSt11char_traitsIcESaIcEE11_M_is_localEv.exit.thread.i.i888.i ], [ %.pn.i, %if.then.i.i886.i ]
  call void @llvm.lifetime.end.p0(i64 32, ptr nonnull %ref.tmp227.i) #33
  %232 = load ptr, ptr %ref.tmp222.i, align 8, !tbaa !5
  %cmp.i.i.i892.i = icmp eq ptr %232, %90
  br i1 %cmp.i.i.i892.i, label %_ZNKSt7__cxx1112basic_stringIcSt11char_traitsIcESaIcEE11_M_is_localEv.exit.thread.i.i895.i, label %if.then.i.i893.i

_ZNKSt7__cxx1112basic_stringIcSt11char_traitsIcESaIcEE11_M_is_localEv.exit.thread.i.i895.i: ; preds = %cleanup.action287.i
  %233 = load i64, ptr %_M_string_length.i.i.i.i.i.i, align 8, !tbaa !12
  %cmp3.i.i.i897.i = icmp ult i64 %233, 16
  call void @llvm.assume(i1 %cmp3.i.i.i897.i)
  br label %_ZNSt7__cxx1112basic_stringIcSt11char_traitsIcESaIcEED2Ev.exit898.i

if.then.i.i893.i:                                 ; preds = %cleanup.action287.i
  call void @_ZdlPv(ptr noundef %232) #31
  br label %_ZNSt7__cxx1112basic_stringIcSt11char_traitsIcESaIcEED2Ev.exit898.i

_ZNSt7__cxx1112basic_stringIcSt11char_traitsIcESaIcEED2Ev.exit898.i: ; preds = %if.then.i.i893.i, %_ZNKSt7__cxx1112basic_stringIcSt11char_traitsIcESaIcEE11_M_is_localEv.exit.thread.i.i895.i
  call void @llvm.lifetime.end.p0(i64 32, ptr nonnull %ref.tmp222.i) #33
  br label %common.resume

lpad299.loopexit.i:                               ; preds = %_ZNSt7__cxx1112basic_stringIcSt11char_traitsIcESaIcEE6appendEPKc.exit.i.i
  %lpad.loopexit992.i = landingpad { ptr, i32 }
          cleanup
  br label %ehcleanup319.i

lpad299.loopexit.split-lp.i:                      ; preds = %if.then.i.i.i717.i
  %lpad.loopexit.split-lp993.i = landingpad { ptr, i32 }
          cleanup
  br label %ehcleanup319.i

lpad301.loopexit.i:                               ; preds = %_ZNSt7__cxx1112basic_stringIcSt11char_traitsIcESaIcEE6appendERKS4_.exit.i.i
  %lpad.loopexit995.i = landingpad { ptr, i32 }
          cleanup
  br label %ehcleanup318.i

lpad301.loopexit.split-lp.i:                      ; preds = %if.then.i.i.i.i731.i
  %lpad.loopexit.split-lp996.i = landingpad { ptr, i32 }
          cleanup
  br label %ehcleanup318.i

lpad303.loopexit.i:                               ; preds = %_ZNSt7__cxx1112basic_stringIcSt11char_traitsIcESaIcEE6appendEPKc.exit.i738.i
  %lpad.loopexit998.i = landingpad { ptr, i32 }
          cleanup
  br label %ehcleanup317.i

lpad303.loopexit.split-lp.i:                      ; preds = %if.then.i.i.i747.i
  %lpad.loopexit.split-lp999.i = landingpad { ptr, i32 }
          cleanup
  br label %ehcleanup317.i

lpad305.loopexit.i:                               ; preds = %_ZNSt7__cxx1112basic_stringIcSt11char_traitsIcESaIcEE6appendERKS4_.exit.i755.i
  %lpad.loopexit1001.i = landingpad { ptr, i32 }
          cleanup
  br label %ehcleanup316.i

lpad305.loopexit.split-lp.i:                      ; preds = %if.then.i.i.i.i765.i
  %lpad.loopexit.split-lp1002.i = landingpad { ptr, i32 }
          cleanup
  br label %ehcleanup316.i

lpad307.loopexit.i:                               ; preds = %_ZNSt7__cxx1112basic_stringIcSt11char_traitsIcESaIcEE6appendEPKc.exit.i773.i
  %lpad.loopexit1004.i = landingpad { ptr, i32 }
          cleanup
  br label %ehcleanup315.i

lpad307.loopexit.split-lp.i:                      ; preds = %if.then.i.i.i782.i
  %lpad.loopexit.split-lp1005.i = landingpad { ptr, i32 }
          cleanup
  br label %ehcleanup315.i

lpad309.loopexit.i:                               ; preds = %_ZNSt7__cxx1112basic_stringIcSt11char_traitsIcESaIcEE6appendERKS4_.exit.i790.i
  %lpad.loopexit1007.i = landingpad { ptr, i32 }
          cleanup
  br label %ehcleanup314.i

lpad309.loopexit.split-lp.i:                      ; preds = %if.then.i.i.i.i800.i
  %lpad.loopexit.split-lp1008.i = landingpad { ptr, i32 }
          cleanup
  br label %ehcleanup314.i

lpad311.loopexit.i:                               ; preds = %_ZNSt7__cxx1112basic_stringIcSt11char_traitsIcESaIcEE6appendEPKc.exit.i808.i
  %lpad.loopexit1010.i = landingpad { ptr, i32 }
          cleanup
  br label %lpad311.i

lpad311.loopexit.split-lp.i:                      ; preds = %if.then.i.i.i817.i
  %lpad.loopexit.split-lp1011.i = landingpad { ptr, i32 }
          cleanup
  br label %lpad311.i

lpad311.i:                                        ; preds = %lpad311.loopexit.split-lp.i, %lpad311.loopexit.i
  %lpad.phi1012.i = phi { ptr, i32 } [ %lpad.loopexit1010.i, %lpad311.loopexit.i ], [ %lpad.loopexit.split-lp1011.i, %lpad311.loopexit.split-lp.i ]
  %234 = load ptr, ptr %ref.tmp292.i, align 8, !tbaa !5
  %cmp.i.i.i899.i = icmp eq ptr %234, %100
  br i1 %cmp.i.i.i899.i, label %_ZNKSt7__cxx1112basic_stringIcSt11char_traitsIcESaIcEE11_M_is_localEv.exit.thread.i.i902.i, label %if.then.i.i900.i

_ZNKSt7__cxx1112basic_stringIcSt11char_traitsIcESaIcEE11_M_is_localEv.exit.thread.i.i902.i: ; preds = %lpad311.i
  %235 = load i64, ptr %_M_string_length.i24.i.i795.i, align 8, !tbaa !12
  %cmp3.i.i.i904.i = icmp ult i64 %235, 16
  call void @llvm.assume(i1 %cmp3.i.i.i904.i)
  br label %ehcleanup314.i

if.then.i.i900.i:                                 ; preds = %lpad311.i
  call void @_ZdlPv(ptr noundef %234) #31
  br label %ehcleanup314.i

ehcleanup314.i:                                   ; preds = %if.then.i.i900.i, %_ZNKSt7__cxx1112basic_stringIcSt11char_traitsIcESaIcEE11_M_is_localEv.exit.thread.i.i902.i, %lpad309.loopexit.split-lp.i, %lpad309.loopexit.i
  %.pn427.i = phi { ptr, i32 } [ %lpad.phi1012.i, %_ZNKSt7__cxx1112basic_stringIcSt11char_traitsIcESaIcEE11_M_is_localEv.exit.thread.i.i902.i ], [ %lpad.phi1012.i, %if.then.i.i900.i ], [ %lpad.loopexit1007.i, %lpad309.loopexit.i ], [ %lpad.loopexit.split-lp1008.i, %lpad309.loopexit.split-lp.i ]
  %236 = load ptr, ptr %ref.tmp293.i, align 8, !tbaa !5
  %cmp.i.i.i906.i = icmp eq ptr %236, %99
  br i1 %cmp.i.i.i906.i, label %_ZNKSt7__cxx1112basic_stringIcSt11char_traitsIcESaIcEE11_M_is_localEv.exit.thread.i.i909.i, label %if.then.i.i907.i

_ZNKSt7__cxx1112basic_stringIcSt11char_traitsIcESaIcEE11_M_is_localEv.exit.thread.i.i909.i: ; preds = %ehcleanup314.i
  %237 = load i64, ptr %_M_string_length.i24.i.i777.i, align 8, !tbaa !12
  %cmp3.i.i.i911.i = icmp ult i64 %237, 16
  call void @llvm.assume(i1 %cmp3.i.i.i911.i)
  br label %ehcleanup315.i

if.then.i.i907.i:                                 ; preds = %ehcleanup314.i
  call void @_ZdlPv(ptr noundef %236) #31
  br label %ehcleanup315.i

ehcleanup315.i:                                   ; preds = %if.then.i.i907.i, %_ZNKSt7__cxx1112basic_stringIcSt11char_traitsIcESaIcEE11_M_is_localEv.exit.thread.i.i909.i, %lpad307.loopexit.split-lp.i, %lpad307.loopexit.i
  %.pn427.pn.i = phi { ptr, i32 } [ %.pn427.i, %_ZNKSt7__cxx1112basic_stringIcSt11char_traitsIcESaIcEE11_M_is_localEv.exit.thread.i.i909.i ], [ %.pn427.i, %if.then.i.i907.i ], [ %lpad.loopexit1004.i, %lpad307.loopexit.i ], [ %lpad.loopexit.split-lp1005.i, %lpad307.loopexit.split-lp.i ]
  %238 = load ptr, ptr %ref.tmp294.i, align 8, !tbaa !5
  %cmp.i.i.i913.i = icmp eq ptr %238, %98
  br i1 %cmp.i.i.i913.i, label %_ZNKSt7__cxx1112basic_stringIcSt11char_traitsIcESaIcEE11_M_is_localEv.exit.thread.i.i916.i, label %if.then.i.i914.i

_ZNKSt7__cxx1112basic_stringIcSt11char_traitsIcESaIcEE11_M_is_localEv.exit.thread.i.i916.i: ; preds = %ehcleanup315.i
  %239 = load i64, ptr %_M_string_length.i24.i.i760.i, align 8, !tbaa !12
  %cmp3.i.i.i918.i = icmp ult i64 %239, 16
  call void @llvm.assume(i1 %cmp3.i.i.i918.i)
  br label %ehcleanup316.i

if.then.i.i914.i:                                 ; preds = %ehcleanup315.i
  call void @_ZdlPv(ptr noundef %238) #31
  br label %ehcleanup316.i

ehcleanup316.i:                                   ; preds = %if.then.i.i914.i, %_ZNKSt7__cxx1112basic_stringIcSt11char_traitsIcESaIcEE11_M_is_localEv.exit.thread.i.i916.i, %lpad305.loopexit.split-lp.i, %lpad305.loopexit.i
  %.pn427.pn.pn.i = phi { ptr, i32 } [ %.pn427.pn.i, %_ZNKSt7__cxx1112basic_stringIcSt11char_traitsIcESaIcEE11_M_is_localEv.exit.thread.i.i916.i ], [ %.pn427.pn.i, %if.then.i.i914.i ], [ %lpad.loopexit1001.i, %lpad305.loopexit.i ], [ %lpad.loopexit.split-lp1002.i, %lpad305.loopexit.split-lp.i ]
  %240 = load ptr, ptr %ref.tmp295.i, align 8, !tbaa !5
  %cmp.i.i.i920.i = icmp eq ptr %240, %97
  br i1 %cmp.i.i.i920.i, label %_ZNKSt7__cxx1112basic_stringIcSt11char_traitsIcESaIcEE11_M_is_localEv.exit.thread.i.i923.i, label %if.then.i.i921.i

_ZNKSt7__cxx1112basic_stringIcSt11char_traitsIcESaIcEE11_M_is_localEv.exit.thread.i.i923.i: ; preds = %ehcleanup316.i
  %241 = load i64, ptr %_M_string_length.i24.i.i742.i, align 8, !tbaa !12
  %cmp3.i.i.i925.i = icmp ult i64 %241, 16
  call void @llvm.assume(i1 %cmp3.i.i.i925.i)
  br label %ehcleanup317.i

if.then.i.i921.i:                                 ; preds = %ehcleanup316.i
  call void @_ZdlPv(ptr noundef %240) #31
  br label %ehcleanup317.i

ehcleanup317.i:                                   ; preds = %if.then.i.i921.i, %_ZNKSt7__cxx1112basic_stringIcSt11char_traitsIcESaIcEE11_M_is_localEv.exit.thread.i.i923.i, %lpad303.loopexit.split-lp.i, %lpad303.loopexit.i
  %.pn427.pn.pn.pn.i = phi { ptr, i32 } [ %.pn427.pn.pn.i, %_ZNKSt7__cxx1112basic_stringIcSt11char_traitsIcESaIcEE11_M_is_localEv.exit.thread.i.i923.i ], [ %.pn427.pn.pn.i, %if.then.i.i921.i ], [ %lpad.loopexit998.i, %lpad303.loopexit.i ], [ %lpad.loopexit.split-lp999.i, %lpad303.loopexit.split-lp.i ]
  %242 = load ptr, ptr %ref.tmp296.i, align 8, !tbaa !5
  %cmp.i.i.i927.i = icmp eq ptr %242, %96
  br i1 %cmp.i.i.i927.i, label %_ZNKSt7__cxx1112basic_stringIcSt11char_traitsIcESaIcEE11_M_is_localEv.exit.thread.i.i930.i, label %if.then.i.i928.i

_ZNKSt7__cxx1112basic_stringIcSt11char_traitsIcESaIcEE11_M_is_localEv.exit.thread.i.i930.i: ; preds = %ehcleanup317.i
  %243 = load i64, ptr %_M_string_length.i24.i.i727.i, align 8, !tbaa !12
  %cmp3.i.i.i932.i = icmp ult i64 %243, 16
  call void @llvm.assume(i1 %cmp3.i.i.i932.i)
  br label %ehcleanup318.i

if.then.i.i928.i:                                 ; preds = %ehcleanup317.i
  call void @_ZdlPv(ptr noundef %242) #31
  br label %ehcleanup318.i

ehcleanup318.i:                                   ; preds = %if.then.i.i928.i, %_ZNKSt7__cxx1112basic_stringIcSt11char_traitsIcESaIcEE11_M_is_localEv.exit.thread.i.i930.i, %lpad301.loopexit.split-lp.i, %lpad301.loopexit.i
  %.pn427.pn.pn.pn.pn.i = phi { ptr, i32 } [ %.pn427.pn.pn.pn.i, %_ZNKSt7__cxx1112basic_stringIcSt11char_traitsIcESaIcEE11_M_is_localEv.exit.thread.i.i930.i ], [ %.pn427.pn.pn.pn.i, %if.then.i.i928.i ], [ %lpad.loopexit995.i, %lpad301.loopexit.i ], [ %lpad.loopexit.split-lp996.i, %lpad301.loopexit.split-lp.i ]
  %244 = load ptr, ptr %ref.tmp297.i, align 8, !tbaa !5
  %cmp.i.i.i934.i = icmp eq ptr %244, %95
  br i1 %cmp.i.i.i934.i, label %_ZNKSt7__cxx1112basic_stringIcSt11char_traitsIcESaIcEE11_M_is_localEv.exit.thread.i.i937.i, label %if.then.i.i935.i

_ZNKSt7__cxx1112basic_stringIcSt11char_traitsIcESaIcEE11_M_is_localEv.exit.thread.i.i937.i: ; preds = %ehcleanup318.i
  %245 = load i64, ptr %_M_string_length.i24.i.i.i, align 8, !tbaa !12
  %cmp3.i.i.i939.i = icmp ult i64 %245, 16
  call void @llvm.assume(i1 %cmp3.i.i.i939.i)
  br label %ehcleanup319.i

if.then.i.i935.i:                                 ; preds = %ehcleanup318.i
  call void @_ZdlPv(ptr noundef %244) #31
  br label %ehcleanup319.i

ehcleanup319.i:                                   ; preds = %if.then.i.i935.i, %_ZNKSt7__cxx1112basic_stringIcSt11char_traitsIcESaIcEE11_M_is_localEv.exit.thread.i.i937.i, %lpad299.loopexit.split-lp.i, %lpad299.loopexit.i
  %.pn427.pn.pn.pn.pn.pn.i = phi { ptr, i32 } [ %.pn427.pn.pn.pn.pn.i, %_ZNKSt7__cxx1112basic_stringIcSt11char_traitsIcESaIcEE11_M_is_localEv.exit.thread.i.i937.i ], [ %.pn427.pn.pn.pn.pn.i, %if.then.i.i935.i ], [ %lpad.loopexit992.i, %lpad299.loopexit.i ], [ %lpad.loopexit.split-lp993.i, %lpad299.loopexit.split-lp.i ]
  %246 = load ptr, ptr %ref.tmp298.i, align 8, !tbaa !5
  %cmp.i.i.i941.i = icmp eq ptr %246, %94
  br i1 %cmp.i.i.i941.i, label %_ZNKSt7__cxx1112basic_stringIcSt11char_traitsIcESaIcEE11_M_is_localEv.exit.thread.i.i944.i, label %if.then.i.i942.i

_ZNKSt7__cxx1112basic_stringIcSt11char_traitsIcESaIcEE11_M_is_localEv.exit.thread.i.i944.i: ; preds = %ehcleanup319.i
  %247 = load i64, ptr %_M_string_length.i.i.i.i.i688.i, align 8, !tbaa !12
  %cmp3.i.i.i946.i = icmp ult i64 %247, 16
  call void @llvm.assume(i1 %cmp3.i.i.i946.i)
  br label %_ZNSt7__cxx1112basic_stringIcSt11char_traitsIcESaIcEED2Ev.exit947.i

if.then.i.i942.i:                                 ; preds = %ehcleanup319.i
  call void @_ZdlPv(ptr noundef %246) #31
  br label %_ZNSt7__cxx1112basic_stringIcSt11char_traitsIcESaIcEED2Ev.exit947.i

_ZNSt7__cxx1112basic_stringIcSt11char_traitsIcESaIcEED2Ev.exit947.i: ; preds = %if.then.i.i942.i, %_ZNKSt7__cxx1112basic_stringIcSt11char_traitsIcESaIcEE11_M_is_localEv.exit.thread.i.i944.i
  call void @llvm.lifetime.end.p0(i64 32, ptr nonnull %ref.tmp298.i) #33
  call void @llvm.lifetime.end.p0(i64 32, ptr nonnull %ref.tmp297.i) #33
  call void @llvm.lifetime.end.p0(i64 32, ptr nonnull %ref.tmp296.i) #33
  call void @llvm.lifetime.end.p0(i64 32, ptr nonnull %ref.tmp295.i) #33
  call void @llvm.lifetime.end.p0(i64 32, ptr nonnull %ref.tmp294.i) #33
  call void @llvm.lifetime.end.p0(i64 32, ptr nonnull %ref.tmp293.i) #33
  call void @llvm.lifetime.end.p0(i64 32, ptr nonnull %ref.tmp292.i) #33
  br label %ehcleanup339.i

lpad327.i:                                        ; preds = %invoke.cont335.i, %invoke.cont333.i, %invoke.cont328.i, %_ZNSt7__cxx1112basic_stringIcSt11char_traitsIcESaIcEED2Ev.exit870.i
  %248 = landingpad { ptr, i32 }
          cleanup
  %249 = load ptr, ptr %tmp.i, align 8, !tbaa !5
  %cmp.i.i.i948.i = icmp eq ptr %249, %101
  br i1 %cmp.i.i.i948.i, label %_ZNKSt7__cxx1112basic_stringIcSt11char_traitsIcESaIcEE11_M_is_localEv.exit.thread.i.i951.i, label %if.then.i.i949.i

_ZNKSt7__cxx1112basic_stringIcSt11char_traitsIcESaIcEE11_M_is_localEv.exit.thread.i.i951.i: ; preds = %lpad327.i
  %250 = load i64, ptr %_M_string_length.i24.i.i812.i, align 8, !tbaa !12
  %cmp3.i.i.i953.i = icmp ult i64 %250, 16
  call void @llvm.assume(i1 %cmp3.i.i.i953.i)
  br label %ehcleanup339.i

if.then.i.i949.i:                                 ; preds = %lpad327.i
  call void @_ZdlPv(ptr noundef %249) #31
  br label %ehcleanup339.i

ehcleanup339.i:                                   ; preds = %if.then.i.i949.i, %_ZNKSt7__cxx1112basic_stringIcSt11char_traitsIcESaIcEE11_M_is_localEv.exit.thread.i.i951.i, %_ZNSt7__cxx1112basic_stringIcSt11char_traitsIcESaIcEED2Ev.exit947.i
  %.pn434.i = phi { ptr, i32 } [ %.pn427.pn.pn.pn.pn.pn.i, %_ZNSt7__cxx1112basic_stringIcSt11char_traitsIcESaIcEED2Ev.exit947.i ], [ %248, %_ZNKSt7__cxx1112basic_stringIcSt11char_traitsIcESaIcEE11_M_is_localEv.exit.thread.i.i951.i ], [ %248, %if.then.i.i949.i ]
  call void @llvm.lifetime.end.p0(i64 32, ptr nonnull %tmp.i) #33
  br label %common.resume

if.else340.i:                                     ; preds = %_ZNSt7__cxx1112basic_stringIcSt11char_traitsIcESaIcEED2Ev.exit686.i
  %251 = load ptr, ptr %arrayidx197.i, align 8, !tbaa !13
  %call343.i = call noalias ptr @fopen(ptr noundef %251, ptr noundef nonnull @.str.83)
  store ptr %call343.i, ptr @yyin, align 8, !tbaa !13
  %cmp344.i = icmp eq ptr %call343.i, null
  br i1 %cmp344.i, label %if.then345.i, label %if.else351.i

if.then345.i:                                     ; preds = %if.else340.i
  %call346.i = call noundef ptr @_ZN2kc10NoFileLineEv()
  %252 = load ptr, ptr %arrayidx197.i, align 8, !tbaa !13
  %call349.i = call noundef ptr @_ZN2kc9Problem2SEPKcS1_(ptr noundef nonnull @.str.84, ptr noundef %252)
  %call350.i = call noundef ptr @_ZN2kc8NonFatalEPNS_13impl_filelineEPNS_12impl_problemE(ptr noundef %call346.i, ptr noundef %call349.i)
  call void @_ZN2kc8v_reportEPNS_10impl_errorE(ptr noundef %call350.i)
  br label %if.end355.i

if.else351.i:                                     ; preds = %if.else340.i
  %call352.i = call i32 @fclose(ptr noundef nonnull %call343.i)
  br label %if.end355.i

if.end355.i:                                      ; preds = %if.else351.i, %if.then345.i, %_ZNSt7__cxx1112basic_stringIcSt11char_traitsIcESaIcEED2Ev.exit877.i, %if.then215.i
  %indvars.iv.next1297.i = add nsw i64 %indvars.iv1296.i, 1
  %lftr.wideiv.i = trunc i64 %indvars.iv.next1297.i to i32
  %exitcond1299.not.i = icmp eq i32 %lftr.wideiv.i, %argc
  br i1 %exitcond1299.not.i, label %for.cond.cleanup195.i, label %for.body196.i, !llvm.loop !125

if.then362.i:                                     ; preds = %for.cond.cleanup195.i
  %253 = load i32, ptr @optind, align 4, !tbaa !40
  %cmp363.i = icmp slt i32 %253, %argc
  br i1 %cmp363.i, label %if.then364.i, label %_ZN2kcL11processargsEiPPc.exit

if.then364.i:                                     ; preds = %if.then362.i
  %idx.ext.i = sext i32 %253 to i64
  %add.ptr.i = getelementptr inbounds ptr, ptr %argv, i64 %idx.ext.i
  store ptr %add.ptr.i, ptr @_ZL14inputfilenames, align 8, !tbaa !13
  %sub365.i = sub nsw i32 %argc, %253
  store i32 %sub365.i, ptr @_ZL13no_inputfiles, align 4, !tbaa !40
  store i32 0, ptr @_ZL17current_inputfile, align 4, !tbaa !40
  %254 = load ptr, ptr %add.ptr.i, align 8, !tbaa !13
  %call368.i = call fastcc noundef ptr @_ZN2kcL16make_pg_filenameEPKc(ptr noundef %254)
  store ptr %call368.i, ptr @pg_filename, align 8, !tbaa !13
  %255 = load ptr, ptr @_ZL14inputfilenames, align 8, !tbaa !13
  %256 = load i32, ptr @_ZL17current_inputfile, align 4, !tbaa !40
  %idxprom369.i = sext i32 %256 to i64
  %arrayidx370.i = getelementptr inbounds ptr, ptr %255, i64 %idxprom369.i
  %257 = load ptr, ptr %arrayidx370.i, align 8, !tbaa !13
  %call371.i = call fastcc noundef ptr @_ZN2kcL8openfileEPKcS1_(ptr noundef %257)
  store ptr %call371.i, ptr @yyin, align 8, !tbaa !13
  %cmp372.i = icmp eq ptr %call371.i, null
  br i1 %cmp372.i, label %if.then373.i, label %if.end379.i

if.then373.i:                                     ; preds = %if.then364.i
  %call374.i = call noundef ptr @_ZN2kc10NoFileLineEv()
  %258 = load ptr, ptr @_ZL14inputfilenames, align 8, !tbaa !13
  %259 = load i32, ptr @_ZL17current_inputfile, align 4, !tbaa !40
  %idxprom375.i = sext i32 %259 to i64
  %arrayidx376.i = getelementptr inbounds ptr, ptr %258, i64 %idxprom375.i
  %260 = load ptr, ptr %arrayidx376.i, align 8, !tbaa !13
  %call377.i = call noundef ptr @_ZN2kc9Problem2SEPKcS1_(ptr noundef nonnull @.str.84, ptr noundef %260)
  %call378.i = call noundef ptr @_ZN2kc5FatalEPNS_13impl_filelineEPNS_12impl_problemE(ptr noundef %call374.i, ptr noundef %call377.i)
  call void @_ZN2kc8v_reportEPNS_10impl_errorE(ptr noundef %call378.i)
  br label %if.end379.i

if.end379.i:                                      ; preds = %if.then373.i, %if.then364.i
  store i32 1, ptr @pg_lineno, align 4, !tbaa !40
  store i32 0, ptr @pg_column, align 4, !tbaa !40
  store i32 0, ptr @pg_charpos, align 4, !tbaa !40
  br label %_ZN2kcL11processargsEiPPc.exit

if.else381.i:                                     ; preds = %for.cond.cleanup195.i
  call void @_ZN2kc5leaveEi(i32 noundef 1)
  unreachable

_ZN2kcL11processargsEiPPc.exit:                   ; preds = %if.then362.i, %if.end379.i
  %call.i = call ptr @signal(i32 noundef 2, ptr noundef nonnull @cleanup_and_die) #33
  %call1.i827 = call ptr @signal(i32 noundef 15, ptr noundef nonnull @cleanup_and_die) #33
  %call2.i828 = call ptr @signal(i32 noundef 11, ptr noundef nonnull @cleanup_and_abort) #33
  %call3.i = call ptr @signal(i32 noundef 4, ptr noundef nonnull @cleanup_and_abort) #33
  %call4.i = call ptr @signal(i32 noundef 31, ptr noundef nonnull @cleanup_and_abort) #33
  %call5.i = call ptr @signal(i32 noundef 6, ptr noundef nonnull @cleanup_and_abort) #33
  %call6.i = call ptr @signal(i32 noundef 1, ptr noundef nonnull @cleanup_and_die) #33
  %call7.i829 = call ptr @signal(i32 noundef 3, ptr noundef nonnull @cleanup_and_die) #33
  %call8.i830 = call ptr @signal(i32 noundef 7, ptr noundef nonnull @cleanup_and_abort) #33
  store i32 1, ptr @pg_lineno, align 4, !tbaa !40
  store i32 0, ptr @pg_column, align 4, !tbaa !40
  store i32 0, ptr @pg_charpos, align 4, !tbaa !40
  %261 = load i8, ptr getelementptr inbounds (%struct.cmdline_options, ptr @g_options, i64 0, i32 3), align 1, !tbaa !22, !range !24, !noundef !25
  %tobool.not = icmp eq i8 %261, 0
  br i1 %tobool.not, label %if.end, label %if.then

if.then:                                          ; preds = %_ZN2kcL11processargsEiPPc.exit
  %call1.i832 = call noundef nonnull align 8 dereferenceable(8) ptr @_ZSt16__ostream_insertIcSt11char_traitsIcEERSt13basic_ostreamIT_T0_ES6_PKS3_l(ptr noundef nonnull align 8 dereferenceable(8) @_ZSt4cout, ptr noundef nonnull @.str.5, i64 noundef 23)
  %call.i2021 = call noundef nonnull align 8 dereferenceable(8) ptr @_ZNSo5flushEv(ptr noundef nonnull align 8 dereferenceable(8) @_ZSt4cout)
  br label %if.end

if.end:                                           ; preds = %if.then, %_ZN2kcL11processargsEiPPc.exit
  %call.i834 = call noundef ptr @_ZN2kc12mkcasestringEPKci(ptr noundef nonnull @.str.93, i32 noundef -1)
  %call1.i835 = call noundef ptr @_ZN2kc11IncludeFileEPNS_20impl_casestring__StrE(ptr noundef %call.i834)
  %call2.i836 = call noundef ptr @_ZN2kc12mkcasestringEPKci(ptr noundef nonnull @.str.94, i32 noundef -1)
  %call3.i837 = call noundef ptr @_ZN2kc11IncludeFileEPNS_20impl_casestring__StrE(ptr noundef %call2.i836)
  %call4.i838 = call noundef ptr @_ZN2kc12mkcasestringEPKci(ptr noundef nonnull @.str.95, i32 noundef -1)
  %call5.i839 = call noundef ptr @_ZN2kc3StrEPNS_20impl_casestring__StrE(ptr noundef %call4.i838)
  %call6.i840 = call noundef ptr @_ZN2kc2IdEPNS_11impl_uniqIDE(ptr noundef %call5.i839)
  %call7.i841 = call noundef ptr @_ZN2kc12mkcasestringEPKci(ptr noundef nonnull @.str.96, i32 noundef -1)
  %call8.i842 = call noundef ptr @_ZN2kc3StrEPNS_20impl_casestring__StrE(ptr noundef %call7.i841)
  %call9.i843 = call noundef ptr @_ZN2kc2IdEPNS_11impl_uniqIDE(ptr noundef %call8.i842)
  %call10.i = call noundef ptr @_ZN2kc12mkcasestringEPKci(ptr noundef nonnull @.str.97, i32 noundef -1)
  %call11.i = call noundef ptr @_ZN2kc3StrEPNS_20impl_casestring__StrE(ptr noundef %call10.i)
  %call12.i = call noundef ptr @_ZN2kc2IdEPNS_11impl_uniqIDE(ptr noundef %call11.i)
  %call13.i844 = call noundef ptr @_ZN2kc12mkcasestringEPKci(ptr noundef nonnull @.str.98, i32 noundef -1)
  %call14.i845 = call noundef ptr @_ZN2kc3StrEPNS_20impl_casestring__StrE(ptr noundef %call13.i844)
  %call15.i846 = call noundef ptr @_ZN2kc2IdEPNS_11impl_uniqIDE(ptr noundef %call14.i845)
  %call.i.i847 = call noundef ptr @_ZN2kc12mkcasestringEPKci(ptr noundef nonnull @.str.99, i32 noundef -1)
  %call1.i.i = call noundef ptr @_ZN2kc3StrEPNS_20impl_casestring__StrE(ptr noundef %call.i.i847)
  %call2.i.i = call noundef ptr @_ZN2kc2IdEPNS_11impl_uniqIDE(ptr noundef %call1.i.i)
  %call3.i.i = call noundef ptr @_ZN2kc9f_emptyIdEv()
  %call4.i.i = call noundef ptr @_ZN2kc21PositiveStorageOptionEPNS_7impl_IDE(ptr noundef %call3.i.i)
  %call5.i.i848 = call noundef ptr @_ZN2kc20EmptyproductionblockEv()
  %call6.i.i = call noundef ptr @_ZN2kc13NilattributesEv()
  %call7.i.i = call noundef ptr @_ZN2kc9NilCtextsEv()
  %call8.i.i = call noundef ptr @_ZN2kc11CcodeOptionEPNS_15impl_attributesEPNS_11impl_CtextsE(ptr noundef %call6.i.i, ptr noundef %call7.i.i)
  %call9.i.i = call noundef ptr @_ZN2kc17PhylumDeclarationEPNS_7impl_IDEPNS_18impl_storageoptionEPNS_20impl_productionblockEPNS_17impl_Ccode_optionE(ptr noundef %call2.i.i, ptr noundef %call4.i.i, ptr noundef %call5.i.i848, ptr noundef %call8.i.i)
  %call10.i.i = call noundef ptr @_ZN2kc18ITPredefinedPhylumEPNS_22impl_phylumdeclarationE(ptr noundef %call9.i.i)
  call void @_ZN2kc10v_defoccurEPNS_7impl_IDEPNS_11impl_IDtypeE(ptr noundef %call2.i.i, ptr noundef %call10.i.i)
  store ptr %call9.i.i, ptr @The_abstract_phylum_decl, align 8, !tbaa !13
  %call.i133.i = call noundef ptr @_ZN2kc12mkcasestringEPKci(ptr noundef nonnull @.str.100, i32 noundef -1)
  %call1.i134.i = call noundef ptr @_ZN2kc3StrEPNS_20impl_casestring__StrE(ptr noundef %call.i133.i)
  %call2.i135.i = call noundef ptr @_ZN2kc2IdEPNS_11impl_uniqIDE(ptr noundef %call1.i134.i)
  %call3.i136.i = call noundef ptr @_ZN2kc9f_emptyIdEv()
  %call4.i137.i = call noundef ptr @_ZN2kc21PositiveStorageOptionEPNS_7impl_IDE(ptr noundef %call3.i136.i)
  %call5.i138.i = call noundef ptr @_ZN2kc20EmptyproductionblockEv()
  %call6.i139.i = call noundef ptr @_ZN2kc13NilattributesEv()
  %call7.i140.i = call noundef ptr @_ZN2kc9NilCtextsEv()
  %call8.i141.i = call noundef ptr @_ZN2kc11CcodeOptionEPNS_15impl_attributesEPNS_11impl_CtextsE(ptr noundef %call6.i139.i, ptr noundef %call7.i140.i)
  %call9.i142.i = call noundef ptr @_ZN2kc17PhylumDeclarationEPNS_7impl_IDEPNS_18impl_storageoptionEPNS_20impl_productionblockEPNS_17impl_Ccode_optionE(ptr noundef %call2.i135.i, ptr noundef %call4.i137.i, ptr noundef %call5.i138.i, ptr noundef %call8.i141.i)
  %call10.i143.i = call noundef ptr @_ZN2kc18ITPredefinedPhylumEPNS_22impl_phylumdeclarationE(ptr noundef %call9.i142.i)
  call void @_ZN2kc10v_defoccurEPNS_7impl_IDEPNS_11impl_IDtypeE(ptr noundef %call2.i135.i, ptr noundef %call10.i143.i)
  store ptr %call9.i142.i, ptr @The_abstract_phylum_ref_decl, align 8, !tbaa !13
  %call.i144.i = call noundef ptr @_ZN2kc12mkcasestringEPKci(ptr noundef nonnull @.str.101, i32 noundef -1)
  %call1.i145.i = call noundef ptr @_ZN2kc3StrEPNS_20impl_casestring__StrE(ptr noundef %call.i144.i)
  %call2.i146.i = call noundef ptr @_ZN2kc2IdEPNS_11impl_uniqIDE(ptr noundef %call1.i145.i)
  %call3.i147.i = call noundef ptr @_ZN2kc9f_emptyIdEv()
  %call4.i148.i = call noundef ptr @_ZN2kc21PositiveStorageOptionEPNS_7impl_IDE(ptr noundef %call3.i147.i)
  %call5.i149.i = call noundef ptr @_ZN2kc20EmptyproductionblockEv()
  %call6.i150.i = call noundef ptr @_ZN2kc13NilattributesEv()
  %call7.i151.i = call noundef ptr @_ZN2kc9NilCtextsEv()
  %call8.i152.i = call noundef ptr @_ZN2kc11CcodeOptionEPNS_15impl_attributesEPNS_11impl_CtextsE(ptr noundef %call6.i150.i, ptr noundef %call7.i151.i)
  %call9.i153.i = call noundef ptr @_ZN2kc17PhylumDeclarationEPNS_7impl_IDEPNS_18impl_storageoptionEPNS_20impl_productionblockEPNS_17impl_Ccode_optionE(ptr noundef %call2.i146.i, ptr noundef %call4.i148.i, ptr noundef %call5.i149.i, ptr noundef %call8.i152.i)
  %call10.i154.i = call noundef ptr @_ZN2kc18ITPredefinedPhylumEPNS_22impl_phylumdeclarationE(ptr noundef %call9.i153.i)
  call void @_ZN2kc10v_defoccurEPNS_7impl_IDEPNS_11impl_IDtypeE(ptr noundef %call2.i146.i, ptr noundef %call10.i154.i)
  store ptr %call9.i153.i, ptr @The_abstract_list_decl, align 8, !tbaa !13
  %call19.i = call noundef ptr @_ZN2kc21NilphylumdeclarationsEv()
  %call.i.i.i = call noundef ptr @_ZN2kc12mkcasestringEPKci(ptr noundef nonnull @.str.102, i32 noundef -1)
  %call1.i.i.i = call noundef ptr @_ZN2kc3StrEPNS_20impl_casestring__StrE(ptr noundef %call.i.i.i)
  %call2.i.i.i = call noundef ptr @_ZN2kc2IdEPNS_11impl_uniqIDE(ptr noundef %call1.i.i.i)
  %call3.i.i.i849 = call noundef ptr @_ZN2kc12mkcasestringEPKci(ptr noundef nonnull @.str.98, i32 noundef -1)
  %call4.i.i.i = call noundef ptr @_ZN2kc3StrEPNS_20impl_casestring__StrE(ptr noundef %call3.i.i.i849)
  %call5.i.i.i = call noundef ptr @_ZN2kc2IdEPNS_11impl_uniqIDE(ptr noundef %call4.i.i.i)
  %call6.i.i.i = call noundef ptr @_ZN2kc12mkcasestringEPKci(ptr noundef nonnull @.str.103, i32 noundef -1)
  %call7.i.i.i = call noundef ptr @_ZN2kc3StrEPNS_20impl_casestring__StrE(ptr noundef %call6.i.i.i)
  %call8.i.i.i = call noundef ptr @_ZN2kc2IdEPNS_11impl_uniqIDE(ptr noundef %call7.i.i.i)
  %call9.i.i.i = call noundef ptr @_ZN2kc12NilargumentsEv()
  %call10.i.i.i = call noundef ptr @_ZN2kc11AlternativeEPNS_7impl_IDEPNS_14impl_argumentsE(ptr noundef %call8.i.i.i, ptr noundef %call9.i.i.i)
  %call11.i.i.i = call noundef ptr @_ZN2kc21PositiveStorageOptionEPNS_7impl_IDE(ptr noundef %call5.i.i.i)
  %call12.i.i.i = call noundef ptr @_ZN2kc15NilalternativesEv()
  %call13.i.i.i = call noundef ptr @_ZN2kc16ConsalternativesEPNS_16impl_alternativeEPNS_17impl_alternativesE(ptr noundef %call10.i.i.i, ptr noundef %call12.i.i.i)
  %call14.i.i.i = call noundef ptr @_ZN2kc22PredefinedAlternativesEPNS_17impl_alternativesE(ptr noundef %call13.i.i.i)
  %call15.i.i.i = call noundef ptr @_ZN2kc13NilattributesEv()
  %call16.i.i.i = call noundef ptr @_ZN2kc9NilCtextsEv()
  %call17.i.i.i = call noundef ptr @_ZN2kc11CcodeOptionEPNS_15impl_attributesEPNS_11impl_CtextsE(ptr noundef %call15.i.i.i, ptr noundef %call16.i.i.i)
  %call18.i.i.i = call noundef ptr @_ZN2kc17PhylumDeclarationEPNS_7impl_IDEPNS_18impl_storageoptionEPNS_20impl_productionblockEPNS_17impl_Ccode_optionE(ptr noundef %call2.i.i.i, ptr noundef %call11.i.i.i, ptr noundef %call14.i.i.i, ptr noundef %call17.i.i.i)
  %call19.i.i.i = call noundef ptr @_ZN2kc20ITPredefinedOperatorEPNS_16impl_alternativeEPNS_7impl_IDE(ptr noundef %call10.i.i.i, ptr noundef %call2.i.i.i)
  call void @_ZN2kc10v_defoccurEPNS_7impl_IDEPNS_11impl_IDtypeE(ptr noundef %call8.i.i.i, ptr noundef %call19.i.i.i)
  %call20.i.i.i = call noundef ptr @_ZN2kc18ITPredefinedPhylumEPNS_22impl_phylumdeclarationE(ptr noundef %call18.i.i.i)
  call void @_ZN2kc10v_defoccurEPNS_7impl_IDEPNS_11impl_IDtypeE(ptr noundef %call2.i.i.i, ptr noundef %call20.i.i.i)
  %call.i10.i.i = call noundef ptr @_ZN2kc12mkcasestringEPKci(ptr noundef nonnull @.str.104, i32 noundef -1)
  %call1.i11.i.i = call noundef ptr @_ZN2kc3StrEPNS_20impl_casestring__StrE(ptr noundef %call.i10.i.i)
  %call2.i12.i.i = call noundef ptr @_ZN2kc2IdEPNS_11impl_uniqIDE(ptr noundef %call1.i11.i.i)
  %call3.i13.i.i = call noundef ptr @_ZN2kc12mkcasestringEPKci(ptr noundef nonnull @.str.98, i32 noundef -1)
  %call4.i14.i.i = call noundef ptr @_ZN2kc3StrEPNS_20impl_casestring__StrE(ptr noundef %call3.i13.i.i)
  %call5.i15.i.i = call noundef ptr @_ZN2kc2IdEPNS_11impl_uniqIDE(ptr noundef %call4.i14.i.i)
  %call6.i16.i.i = call noundef ptr @_ZN2kc12mkcasestringEPKci(ptr noundef nonnull @.str.105, i32 noundef -1)
  %call7.i17.i.i = call noundef ptr @_ZN2kc3StrEPNS_20impl_casestring__StrE(ptr noundef %call6.i16.i.i)
  %call8.i18.i.i = call noundef ptr @_ZN2kc2IdEPNS_11impl_uniqIDE(ptr noundef %call7.i17.i.i)
  %call9.i19.i.i = call noundef ptr @_ZN2kc12NilargumentsEv()
  %call10.i20.i.i = call noundef ptr @_ZN2kc11AlternativeEPNS_7impl_IDEPNS_14impl_argumentsE(ptr noundef %call8.i18.i.i, ptr noundef %call9.i19.i.i)
  %call11.i21.i.i = call noundef ptr @_ZN2kc21PositiveStorageOptionEPNS_7impl_IDE(ptr noundef %call5.i15.i.i)
  %call12.i22.i.i = call noundef ptr @_ZN2kc15NilalternativesEv()
  %call13.i23.i.i = call noundef ptr @_ZN2kc16ConsalternativesEPNS_16impl_alternativeEPNS_17impl_alternativesE(ptr noundef %call10.i20.i.i, ptr noundef %call12.i22.i.i)
  %call14.i24.i.i = call noundef ptr @_ZN2kc22PredefinedAlternativesEPNS_17impl_alternativesE(ptr noundef %call13.i23.i.i)
  %call15.i25.i.i = call noundef ptr @_ZN2kc13NilattributesEv()
  %call16.i26.i.i = call noundef ptr @_ZN2kc9NilCtextsEv()
  %call17.i27.i.i = call noundef ptr @_ZN2kc11CcodeOptionEPNS_15impl_attributesEPNS_11impl_CtextsE(ptr noundef %call15.i25.i.i, ptr noundef %call16.i26.i.i)
  %call18.i28.i.i = call noundef ptr @_ZN2kc17PhylumDeclarationEPNS_7impl_IDEPNS_18impl_storageoptionEPNS_20impl_productionblockEPNS_17impl_Ccode_optionE(ptr noundef %call2.i12.i.i, ptr noundef %call11.i21.i.i, ptr noundef %call14.i24.i.i, ptr noundef %call17.i27.i.i)
  %call19.i29.i.i = call noundef ptr @_ZN2kc20ITPredefinedOperatorEPNS_16impl_alternativeEPNS_7impl_IDE(ptr noundef %call10.i20.i.i, ptr noundef %call2.i12.i.i)
  call void @_ZN2kc10v_defoccurEPNS_7impl_IDEPNS_11impl_IDtypeE(ptr noundef %call8.i18.i.i, ptr noundef %call19.i29.i.i)
  %call20.i30.i.i = call noundef ptr @_ZN2kc18ITPredefinedPhylumEPNS_22impl_phylumdeclarationE(ptr noundef %call18.i28.i.i)
  call void @_ZN2kc10v_defoccurEPNS_7impl_IDEPNS_11impl_IDtypeE(ptr noundef %call2.i12.i.i, ptr noundef %call20.i30.i.i)
  %call.i31.i.i = call noundef ptr @_ZN2kc12mkcasestringEPKci(ptr noundef nonnull @.str.106, i32 noundef -1)
  %call1.i32.i.i = call noundef ptr @_ZN2kc3StrEPNS_20impl_casestring__StrE(ptr noundef %call.i31.i.i)
  %call2.i33.i.i = call noundef ptr @_ZN2kc2IdEPNS_11impl_uniqIDE(ptr noundef %call1.i32.i.i)
  %call3.i34.i.i = call noundef ptr @_ZN2kc12mkcasestringEPKci(ptr noundef nonnull @.str.98, i32 noundef -1)
  %call4.i35.i.i = call noundef ptr @_ZN2kc3StrEPNS_20impl_casestring__StrE(ptr noundef %call3.i34.i.i)
  %call5.i36.i.i = call noundef ptr @_ZN2kc2IdEPNS_11impl_uniqIDE(ptr noundef %call4.i35.i.i)
  %call6.i37.i.i = call noundef ptr @_ZN2kc12mkcasestringEPKci(ptr noundef nonnull @.str.107, i32 noundef -1)
  %call7.i38.i.i = call noundef ptr @_ZN2kc3StrEPNS_20impl_casestring__StrE(ptr noundef %call6.i37.i.i)
  %call8.i39.i.i = call noundef ptr @_ZN2kc2IdEPNS_11impl_uniqIDE(ptr noundef %call7.i38.i.i)
  %call9.i40.i.i = call noundef ptr @_ZN2kc12NilargumentsEv()
  %call10.i41.i.i = call noundef ptr @_ZN2kc11AlternativeEPNS_7impl_IDEPNS_14impl_argumentsE(ptr noundef %call8.i39.i.i, ptr noundef %call9.i40.i.i)
  %call11.i42.i.i = call noundef ptr @_ZN2kc21PositiveStorageOptionEPNS_7impl_IDE(ptr noundef %call5.i36.i.i)
  %call12.i43.i.i = call noundef ptr @_ZN2kc15NilalternativesEv()
  %call13.i44.i.i = call noundef ptr @_ZN2kc16ConsalternativesEPNS_16impl_alternativeEPNS_17impl_alternativesE(ptr noundef %call10.i41.i.i, ptr noundef %call12.i43.i.i)
  %call14.i45.i.i = call noundef ptr @_ZN2kc22PredefinedAlternativesEPNS_17impl_alternativesE(ptr noundef %call13.i44.i.i)
  %call15.i46.i.i = call noundef ptr @_ZN2kc13NilattributesEv()
  %call16.i47.i.i = call noundef ptr @_ZN2kc9NilCtextsEv()
  %call17.i48.i.i = call noundef ptr @_ZN2kc11CcodeOptionEPNS_15impl_attributesEPNS_11impl_CtextsE(ptr noundef %call15.i46.i.i, ptr noundef %call16.i47.i.i)
  %call18.i49.i.i = call noundef ptr @_ZN2kc17PhylumDeclarationEPNS_7impl_IDEPNS_18impl_storageoptionEPNS_20impl_productionblockEPNS_17impl_Ccode_optionE(ptr noundef %call2.i33.i.i, ptr noundef %call11.i42.i.i, ptr noundef %call14.i45.i.i, ptr noundef %call17.i48.i.i)
  %call19.i50.i.i = call noundef ptr @_ZN2kc20ITPredefinedOperatorEPNS_16impl_alternativeEPNS_7impl_IDE(ptr noundef %call10.i41.i.i, ptr noundef %call2.i33.i.i)
  call void @_ZN2kc10v_defoccurEPNS_7impl_IDEPNS_11impl_IDtypeE(ptr noundef %call8.i39.i.i, ptr noundef %call19.i50.i.i)
  %call20.i51.i.i = call noundef ptr @_ZN2kc18ITPredefinedPhylumEPNS_22impl_phylumdeclarationE(ptr noundef %call18.i49.i.i)
  call void @_ZN2kc10v_defoccurEPNS_7impl_IDEPNS_11impl_IDtypeE(ptr noundef %call2.i33.i.i, ptr noundef %call20.i51.i.i)
  %call.i52.i.i = call noundef ptr @_ZN2kc12mkcasestringEPKci(ptr noundef nonnull @.str.108, i32 noundef -1)
  %call1.i53.i.i = call noundef ptr @_ZN2kc3StrEPNS_20impl_casestring__StrE(ptr noundef %call.i52.i.i)
  %call2.i54.i.i = call noundef ptr @_ZN2kc2IdEPNS_11impl_uniqIDE(ptr noundef %call1.i53.i.i)
  %call3.i55.i.i = call noundef ptr @_ZN2kc12mkcasestringEPKci(ptr noundef nonnull @.str.98, i32 noundef -1)
  %call4.i56.i.i = call noundef ptr @_ZN2kc3StrEPNS_20impl_casestring__StrE(ptr noundef %call3.i55.i.i)
  %call5.i57.i.i = call noundef ptr @_ZN2kc2IdEPNS_11impl_uniqIDE(ptr noundef %call4.i56.i.i)
  %call6.i58.i.i = call noundef ptr @_ZN2kc12mkcasestringEPKci(ptr noundef nonnull @.str.109, i32 noundef -1)
  %call7.i59.i.i = call noundef ptr @_ZN2kc3StrEPNS_20impl_casestring__StrE(ptr noundef %call6.i58.i.i)
  %call8.i60.i.i = call noundef ptr @_ZN2kc2IdEPNS_11impl_uniqIDE(ptr noundef %call7.i59.i.i)
  %call9.i61.i.i = call noundef ptr @_ZN2kc12NilargumentsEv()
  %call10.i62.i.i = call noundef ptr @_ZN2kc11AlternativeEPNS_7impl_IDEPNS_14impl_argumentsE(ptr noundef %call8.i60.i.i, ptr noundef %call9.i61.i.i)
  %call11.i63.i.i = call noundef ptr @_ZN2kc21PositiveStorageOptionEPNS_7impl_IDE(ptr noundef %call5.i57.i.i)
  %call12.i64.i.i = call noundef ptr @_ZN2kc15NilalternativesEv()
  %call13.i65.i.i = call noundef ptr @_ZN2kc16ConsalternativesEPNS_16impl_alternativeEPNS_17impl_alternativesE(ptr noundef %call10.i62.i.i, ptr noundef %call12.i64.i.i)
  %call14.i66.i.i = call noundef ptr @_ZN2kc22PredefinedAlternativesEPNS_17impl_alternativesE(ptr noundef %call13.i65.i.i)
  %call15.i67.i.i = call noundef ptr @_ZN2kc13NilattributesEv()
  %call16.i68.i.i = call noundef ptr @_ZN2kc9NilCtextsEv()
  %call17.i69.i.i = call noundef ptr @_ZN2kc11CcodeOptionEPNS_15impl_attributesEPNS_11impl_CtextsE(ptr noundef %call15.i67.i.i, ptr noundef %call16.i68.i.i)
  %call18.i70.i.i = call noundef ptr @_ZN2kc17PhylumDeclarationEPNS_7impl_IDEPNS_18impl_storageoptionEPNS_20impl_productionblockEPNS_17impl_Ccode_optionE(ptr noundef %call2.i54.i.i, ptr noundef %call11.i63.i.i, ptr noundef %call14.i66.i.i, ptr noundef %call17.i69.i.i)
  %call19.i71.i.i = call noundef ptr @_ZN2kc20ITPredefinedOperatorEPNS_16impl_alternativeEPNS_7impl_IDE(ptr noundef %call10.i62.i.i, ptr noundef %call2.i54.i.i)
  call void @_ZN2kc10v_defoccurEPNS_7impl_IDEPNS_11impl_IDtypeE(ptr noundef %call8.i60.i.i, ptr noundef %call19.i71.i.i)
  %call20.i72.i.i = call noundef ptr @_ZN2kc18ITPredefinedPhylumEPNS_22impl_phylumdeclarationE(ptr noundef %call18.i70.i.i)
  call void @_ZN2kc10v_defoccurEPNS_7impl_IDEPNS_11impl_IDtypeE(ptr noundef %call2.i54.i.i, ptr noundef %call20.i72.i.i)
  %call.i73.i.i = call noundef ptr @_ZN2kc12mkcasestringEPKci(ptr noundef nonnull @.str.110, i32 noundef -1)
  %call1.i74.i.i = call noundef ptr @_ZN2kc3StrEPNS_20impl_casestring__StrE(ptr noundef %call.i73.i.i)
  %call2.i75.i.i = call noundef ptr @_ZN2kc2IdEPNS_11impl_uniqIDE(ptr noundef %call1.i74.i.i)
  %call3.i76.i.i = call noundef ptr @_ZN2kc12mkcasestringEPKci(ptr noundef nonnull @.str.98, i32 noundef -1)
  %call4.i77.i.i = call noundef ptr @_ZN2kc3StrEPNS_20impl_casestring__StrE(ptr noundef %call3.i76.i.i)
  %call5.i78.i.i = call noundef ptr @_ZN2kc2IdEPNS_11impl_uniqIDE(ptr noundef %call4.i77.i.i)
  %call6.i79.i.i = call noundef ptr @_ZN2kc12mkcasestringEPKci(ptr noundef nonnull @.str.111, i32 noundef -1)
  %call7.i80.i.i = call noundef ptr @_ZN2kc3StrEPNS_20impl_casestring__StrE(ptr noundef %call6.i79.i.i)
  %call8.i81.i.i = call noundef ptr @_ZN2kc2IdEPNS_11impl_uniqIDE(ptr noundef %call7.i80.i.i)
  %call9.i82.i.i = call noundef ptr @_ZN2kc12NilargumentsEv()
  %call10.i83.i.i = call noundef ptr @_ZN2kc11AlternativeEPNS_7impl_IDEPNS_14impl_argumentsE(ptr noundef %call8.i81.i.i, ptr noundef %call9.i82.i.i)
  %call11.i84.i.i = call noundef ptr @_ZN2kc21PositiveStorageOptionEPNS_7impl_IDE(ptr noundef %call5.i78.i.i)
  %call12.i85.i.i = call noundef ptr @_ZN2kc15NilalternativesEv()
  %call13.i86.i.i = call noundef ptr @_ZN2kc16ConsalternativesEPNS_16impl_alternativeEPNS_17impl_alternativesE(ptr noundef %call10.i83.i.i, ptr noundef %call12.i85.i.i)
  %call14.i87.i.i = call noundef ptr @_ZN2kc22PredefinedAlternativesEPNS_17impl_alternativesE(ptr noundef %call13.i86.i.i)
  %call15.i88.i.i = call noundef ptr @_ZN2kc13NilattributesEv()
  %call16.i89.i.i = call noundef ptr @_ZN2kc9NilCtextsEv()
  %call17.i90.i.i = call noundef ptr @_ZN2kc11CcodeOptionEPNS_15impl_attributesEPNS_11impl_CtextsE(ptr noundef %call15.i88.i.i, ptr noundef %call16.i89.i.i)
  %call18.i91.i.i = call noundef ptr @_ZN2kc17PhylumDeclarationEPNS_7impl_IDEPNS_18impl_storageoptionEPNS_20impl_productionblockEPNS_17impl_Ccode_optionE(ptr noundef %call2.i75.i.i, ptr noundef %call11.i84.i.i, ptr noundef %call14.i87.i.i, ptr noundef %call17.i90.i.i)
  %call19.i92.i.i = call noundef ptr @_ZN2kc20ITPredefinedOperatorEPNS_16impl_alternativeEPNS_7impl_IDE(ptr noundef %call10.i83.i.i, ptr noundef %call2.i75.i.i)
  call void @_ZN2kc10v_defoccurEPNS_7impl_IDEPNS_11impl_IDtypeE(ptr noundef %call8.i81.i.i, ptr noundef %call19.i92.i.i)
  %call20.i93.i.i = call noundef ptr @_ZN2kc18ITPredefinedPhylumEPNS_22impl_phylumdeclarationE(ptr noundef %call18.i91.i.i)
  call void @_ZN2kc10v_defoccurEPNS_7impl_IDEPNS_11impl_IDtypeE(ptr noundef %call2.i75.i.i, ptr noundef %call20.i93.i.i)
  %call5.i155.i = call noundef ptr @_ZN2kc22ConsphylumdeclarationsEPNS_22impl_phylumdeclarationEPNS_23impl_phylumdeclarationsE(ptr noundef %call18.i91.i.i, ptr noundef %call19.i)
  %call6.i156.i = call noundef ptr @_ZN2kc22ConsphylumdeclarationsEPNS_22impl_phylumdeclarationEPNS_23impl_phylumdeclarationsE(ptr noundef %call18.i70.i.i, ptr noundef %call5.i155.i)
  %call7.i157.i = call noundef ptr @_ZN2kc22ConsphylumdeclarationsEPNS_22impl_phylumdeclarationEPNS_23impl_phylumdeclarationsE(ptr noundef %call18.i49.i.i, ptr noundef %call6.i156.i)
  %call8.i158.i = call noundef ptr @_ZN2kc22ConsphylumdeclarationsEPNS_22impl_phylumdeclarationEPNS_23impl_phylumdeclarationsE(ptr noundef %call18.i28.i.i, ptr noundef %call7.i157.i)
  %call9.i159.i = call noundef ptr @_ZN2kc22ConsphylumdeclarationsEPNS_22impl_phylumdeclarationEPNS_23impl_phylumdeclarationsE(ptr noundef %call18.i.i.i, ptr noundef %call8.i158.i)
  store ptr %call9.i159.i, ptr @Thephylumdeclarations, align 8, !tbaa !13
  %call21.i = call noundef ptr @_ZN2kc17NilrwdeclarationsEv()
  store ptr %call21.i, ptr @Therwdeclarations, align 8, !tbaa !13
  %call22.i = call noundef ptr @_ZN2kc22NilunparsedeclarationsEv()
  store ptr %call22.i, ptr @Theunparsedeclarations, align 8, !tbaa !13
  %call23.i = call noundef ptr @_ZN2kc14NilargsnumbersEv()
  store ptr %call23.i, ptr @Theargsnumbers, align 8, !tbaa !13
  %call24.i = call noundef ptr @_ZN2kc17NilfndeclarationsEv()
  store ptr %call24.i, ptr @Thefndeclarations, align 8, !tbaa !13
  %call25.i = call noundef ptr @_ZN2kc16NillanguagenamesEv()
  store ptr %call25.i, ptr @Thelanguages, align 8, !tbaa !13
  %call26.i = call noundef ptr @_ZN2kc25Nilbaseclass_declarationsEv()
  store ptr %call26.i, ptr @Thebaseclasses, align 8, !tbaa !13
  %inc_type.i = getelementptr inbounds %"class.kc::impl_includefile", ptr %call1.i835, i64 0, i32 1
  store i32 0, ptr %inc_type.i, align 8, !tbaa !126
  %inc_type27.i = getelementptr inbounds %"class.kc::impl_includefile", ptr %call3.i837, i64 0, i32 1
  store i32 1, ptr %inc_type27.i, align 8, !tbaa !126
  %call28.i = call noundef ptr @_ZN2kc12mkcasestringEPKci(ptr noundef nonnull @.str.16, i32 noundef -1)
  %call29.i = call noundef ptr @_ZN2kc11IncludeFileEPNS_20impl_casestring__StrE(ptr noundef %call28.i)
  %inc_type30.i = getelementptr inbounds %"class.kc::impl_includefile", ptr %call29.i, i64 0, i32 1
  store i32 0, ptr %inc_type30.i, align 8, !tbaa !126
  %call31.i = call noundef ptr @_ZN2kc12mkcasestringEPKci(ptr noundef nonnull @.str.17, i32 noundef -1)
  %call32.i = call noundef ptr @_ZN2kc11IncludeFileEPNS_20impl_casestring__StrE(ptr noundef %call31.i)
  %inc_type33.i = getelementptr inbounds %"class.kc::impl_includefile", ptr %call32.i, i64 0, i32 1
  store i32 1, ptr %inc_type33.i, align 8, !tbaa !126
  %call34.i = call noundef ptr @_ZN2kc12mkcasestringEPKci(ptr noundef nonnull @.str.37, i32 noundef -1)
  %call35.i = call noundef ptr @_ZN2kc11IncludeFileEPNS_20impl_casestring__StrE(ptr noundef %call34.i)
  %inc_type36.i = getelementptr inbounds %"class.kc::impl_includefile", ptr %call35.i, i64 0, i32 1
  store i32 0, ptr %inc_type36.i, align 8, !tbaa !126
  %call37.i = call noundef ptr @_ZN2kc12mkcasestringEPKci(ptr noundef nonnull @.str.38, i32 noundef -1)
  %call38.i = call noundef ptr @_ZN2kc11IncludeFileEPNS_20impl_casestring__StrE(ptr noundef %call37.i)
  %inc_type39.i = getelementptr inbounds %"class.kc::impl_includefile", ptr %call38.i, i64 0, i32 1
  store i32 1, ptr %inc_type39.i, align 8, !tbaa !126
  %call40.i = call noundef ptr @_ZN2kc12mkcasestringEPKci(ptr noundef nonnull @.str.23, i32 noundef -1)
  %call41.i = call noundef ptr @_ZN2kc11IncludeFileEPNS_20impl_casestring__StrE(ptr noundef %call40.i)
  %inc_type42.i = getelementptr inbounds %"class.kc::impl_includefile", ptr %call41.i, i64 0, i32 1
  store i32 0, ptr %inc_type42.i, align 8, !tbaa !126
  %call43.i = call noundef ptr @_ZN2kc12mkcasestringEPKci(ptr noundef nonnull @.str.24, i32 noundef -1)
  %call44.i = call noundef ptr @_ZN2kc11IncludeFileEPNS_20impl_casestring__StrE(ptr noundef %call43.i)
  %inc_type45.i = getelementptr inbounds %"class.kc::impl_includefile", ptr %call44.i, i64 0, i32 1
  store i32 1, ptr %inc_type45.i, align 8, !tbaa !126
  %call46.i = call noundef ptr @_ZN2kc12mkcasestringEPKci(ptr noundef nonnull @.str.30, i32 noundef -1)
  %call47.i = call noundef ptr @_ZN2kc11IncludeFileEPNS_20impl_casestring__StrE(ptr noundef %call46.i)
  %inc_type48.i = getelementptr inbounds %"class.kc::impl_includefile", ptr %call47.i, i64 0, i32 1
  store i32 0, ptr %inc_type48.i, align 8, !tbaa !126
  %call49.i = call noundef ptr @_ZN2kc12mkcasestringEPKci(ptr noundef nonnull @.str.31, i32 noundef -1)
  %call50.i = call noundef ptr @_ZN2kc11IncludeFileEPNS_20impl_casestring__StrE(ptr noundef %call49.i)
  %inc_type51.i = getelementptr inbounds %"class.kc::impl_includefile", ptr %call50.i, i64 0, i32 1
  store i32 1, ptr %inc_type51.i, align 8, !tbaa !126
